	.text
	.file	"hisi-blk-core.c"
                                        // Start of file scope inline assembly
	.section "___kcrctab+blk_dev_write_order_preserved", "a"	
	.weak	__crc_blk_dev_write_order_preserved	
	.long	__crc_blk_dev_write_order_preserved	
	.previous					
	.section "___kcrctab+blk_req_get_order_nr", "a"	
	.weak	__crc_blk_req_get_order_nr	
	.long	__crc_blk_req_get_order_nr	
	.previous					
	.section "___kcrctab+blk_queue_order_enable", "a"	
	.weak	__crc_blk_queue_order_enable	
	.long	__crc_blk_queue_order_enable	
	.previous					
	.section "___kcrctab+blk_queue_query_order_enable", "a"	
	.weak	__crc_blk_queue_query_order_enable	
	.long	__crc_blk_queue_query_order_enable	
	.previous					
	.section "___kcrctab+blk_order_nr_reset", "a"	
	.weak	__crc_blk_order_nr_reset	
	.long	__crc_blk_order_nr_reset	
	.previous					

                                        // End of file scope inline assembly
	.file	1 "/mnt/disk/jenkins/ci/workspace/chipset_pipeline_release/opensource/component_code/vendor/huawei/extra/build/build_script/kirin_kernel_release/kernel/include/linux/lockdep.h"
	.file	2 "/mnt/disk/jenkins/ci/workspace/chipset_pipeline_release/opensource/component_code/vendor/huawei/extra/build/build_script/kirin_kernel_release/kernel/block/hisi-blk-core.c"
	.file	3 "/mnt/disk/jenkins/ci/workspace/chipset_pipeline_release/opensource/component_code/vendor/huawei/extra/build/build_script/kirin_kernel_release/kernel/include/linux/export.h"
	.file	4 "/mnt/disk/jenkins/ci/workspace/chipset_pipeline_release/opensource/component_code/vendor/huawei/extra/build/build_script/kirin_kernel_release/kernel/include/linux/blkdev.h"
	.file	5 "/mnt/disk/jenkins/ci/workspace/chipset_pipeline_release/opensource/component_code/vendor/huawei/extra/build/build_script/kirin_kernel_release/kernel/include/linux/kobject_ns.h"
	.file	6 "/mnt/disk/jenkins/ci/workspace/chipset_pipeline_release/opensource/component_code/vendor/huawei/extra/build/build_script/kirin_kernel_release/kernel/include/linux/hrtimer.h"
	.file	7 "/mnt/disk/jenkins/ci/workspace/chipset_pipeline_release/opensource/component_code/vendor/huawei/extra/build/build_script/kirin_kernel_release/kernel/include/linux/module.h"
	.file	8 "/mnt/disk/jenkins/ci/workspace/chipset_pipeline_release/opensource/component_code/vendor/huawei/extra/build/build_script/kirin_kernel_release/kernel/include/linux/quota.h"
	.file	9 "/mnt/disk/jenkins/ci/workspace/chipset_pipeline_release/opensource/component_code/vendor/huawei/extra/build/build_script/kirin_kernel_release/kernel/include/linux/fs.h"
	.file	10 "/mnt/disk/jenkins/ci/workspace/chipset_pipeline_release/opensource/component_code/vendor/huawei/extra/build/build_script/kirin_kernel_release/kernel/include/linux/pid.h"
	.file	11 "/mnt/disk/jenkins/ci/workspace/chipset_pipeline_release/opensource/component_code/vendor/huawei/extra/build/build_script/kirin_kernel_release/kernel/include/linux/device.h"
	.file	12 "/mnt/disk/jenkins/ci/workspace/chipset_pipeline_release/opensource/component_code/vendor/huawei/extra/build/build_script/kirin_kernel_release/kernel/include/linux/pm.h"
	.file	13 "/mnt/disk/jenkins/ci/workspace/chipset_pipeline_release/opensource/component_code/vendor/huawei/extra/build/build_script/kirin_kernel_release/kernel/include/linux/rcu_sync.h"
	.file	14 "/mnt/disk/jenkins/ci/workspace/chipset_pipeline_release/opensource/component_code/vendor/huawei/extra/build/build_script/kirin_kernel_release/kernel/include/linux/migrate_mode.h"
	.file	15 "/mnt/disk/jenkins/ci/workspace/chipset_pipeline_release/opensource/component_code/vendor/huawei/extra/build/build_script/kirin_kernel_release/kernel/include/linux/memremap.h"
	.file	16 "/mnt/disk/jenkins/ci/workspace/chipset_pipeline_release/opensource/component_code/vendor/huawei/extra/build/build_script/kirin_kernel_release/kernel/include/linux/mm.h"
	.file	17 "/mnt/disk/jenkins/ci/workspace/chipset_pipeline_release/opensource/component_code/vendor/huawei/extra/build/build_script/kirin_kernel_release/kernel/include/linux/restart_block.h"
	.file	18 "/mnt/disk/jenkins/ci/workspace/chipset_pipeline_release/opensource/component_code/vendor/huawei/extra/build/build_script/kirin_kernel_release/kernel/include/linux/elevator.h"
	.file	19 "/mnt/disk/jenkins/ci/workspace/chipset_pipeline_release/opensource/component_code/vendor/huawei/extra/build/build_script/kirin_kernel_release/kernel/block/hisi-blk.h"
	.file	20 "/mnt/disk/jenkins/ci/workspace/chipset_pipeline_release/opensource/component_code/vendor/huawei/extra/build/build_script/kirin_kernel_release/kernel/include/linux/stddef.h"
	.file	21 "/mnt/disk/jenkins/ci/workspace/chipset_pipeline_release/opensource/component_code/vendor/huawei/extra/build/build_script/kirin_kernel_release/kernel/include/linux/blk_types.h"
	.file	22 "/mnt/disk/jenkins/ci/workspace/chipset_pipeline_release/opensource/component_code/vendor/huawei/extra/build/build_script/kirin_kernel_release/kernel/include/linux/types.h"
	.file	23 "/mnt/disk/jenkins/ci/workspace/chipset_pipeline_release/opensource/component_code/vendor/huawei/extra/build/build_script/kirin_kernel_release/kernel/include/linux/llist.h"
	.file	24 "/mnt/disk/jenkins/ci/workspace/chipset_pipeline_release/opensource/component_code/vendor/huawei/extra/build/build_script/kirin_kernel_release/kernel/include/linux/smp.h"
	.file	25 "/mnt/disk/jenkins/ci/workspace/chipset_pipeline_release/opensource/component_code/vendor/huawei/extra/build/build_script/kirin_kernel_release/kernel/include/asm-generic/int-ll64.h"
	.file	26 "/mnt/disk/jenkins/ci/workspace/chipset_pipeline_release/opensource/component_code/vendor/huawei/extra/build/build_script/kirin_kernel_release/kernel/arch/arm64/include/asm/spinlock_types.h"
	.file	27 "/mnt/disk/jenkins/ci/workspace/chipset_pipeline_release/opensource/component_code/vendor/huawei/extra/build/build_script/kirin_kernel_release/kernel/include/linux/spinlock_types.h"
	.file	28 "/mnt/disk/jenkins/ci/workspace/chipset_pipeline_release/opensource/component_code/vendor/huawei/extra/build/build_script/kirin_kernel_release/kernel/block/blk-mq.h"
	.file	29 "/mnt/disk/jenkins/ci/workspace/chipset_pipeline_release/opensource/component_code/vendor/huawei/extra/build/build_script/kirin_kernel_release/kernel/include/linux/kobject.h"
	.file	30 "/mnt/disk/jenkins/ci/workspace/chipset_pipeline_release/opensource/component_code/vendor/huawei/extra/build/build_script/kirin_kernel_release/kernel/include/uapi/asm-generic/posix_types.h"
	.file	31 "/mnt/disk/jenkins/ci/workspace/chipset_pipeline_release/opensource/component_code/vendor/huawei/extra/build/build_script/kirin_kernel_release/kernel/include/linux/sysfs.h"
	.file	32 "/mnt/disk/jenkins/ci/workspace/chipset_pipeline_release/opensource/component_code/vendor/huawei/extra/build/build_script/kirin_kernel_release/kernel/include/linux/kernfs.h"
	.file	33 "/mnt/disk/jenkins/ci/workspace/chipset_pipeline_release/opensource/component_code/vendor/huawei/extra/build/build_script/kirin_kernel_release/kernel/include/linux/rbtree.h"
	.file	34 "/mnt/disk/jenkins/ci/workspace/chipset_pipeline_release/opensource/component_code/vendor/huawei/extra/build/build_script/kirin_kernel_release/kernel/include/linux/radix-tree.h"
	.file	35 "/mnt/disk/jenkins/ci/workspace/chipset_pipeline_release/opensource/component_code/vendor/huawei/extra/build/build_script/kirin_kernel_release/kernel/include/linux/idr.h"
	.file	36 "/mnt/disk/jenkins/ci/workspace/chipset_pipeline_release/opensource/component_code/vendor/huawei/extra/build/build_script/kirin_kernel_release/kernel/include/linux/seq_file.h"
	.file	37 "/mnt/disk/jenkins/ci/workspace/chipset_pipeline_release/opensource/component_code/vendor/huawei/extra/build/build_script/kirin_kernel_release/kernel/include/asm-generic/atomic-long.h"
	.file	38 "/mnt/disk/jenkins/ci/workspace/chipset_pipeline_release/opensource/component_code/vendor/huawei/extra/build/build_script/kirin_kernel_release/kernel/include/linux/mutex.h"
	.file	39 "/mnt/disk/jenkins/ci/workspace/chipset_pipeline_release/opensource/component_code/vendor/huawei/extra/build/build_script/kirin_kernel_release/kernel/include/linux/osq_lock.h"
	.file	40 "/mnt/disk/jenkins/ci/workspace/chipset_pipeline_release/opensource/component_code/vendor/huawei/extra/build/build_script/kirin_kernel_release/kernel/arch/arm64/include/asm/thread_info.h"
	.file	41 "/mnt/disk/jenkins/ci/workspace/chipset_pipeline_release/opensource/component_code/vendor/huawei/extra/build/build_script/kirin_kernel_release/kernel/include/linux/sched.h"
	.file	42 "/mnt/disk/jenkins/ci/workspace/chipset_pipeline_release/opensource/component_code/vendor/huawei/extra/build/build_script/kirin_kernel_release/kernel/include/linux/cpumask.h"
	.file	43 "/mnt/disk/jenkins/ci/workspace/chipset_pipeline_release/opensource/component_code/vendor/huawei/extra/build/build_script/kirin_kernel_release/kernel/include/linux/timerqueue.h"
	.file	44 "/mnt/disk/jenkins/ci/workspace/chipset_pipeline_release/opensource/component_code/vendor/huawei/extra/build/build_script/kirin_kernel_release/kernel/include/linux/ktime.h"
	.file	45 "/mnt/disk/jenkins/ci/workspace/chipset_pipeline_release/opensource/component_code/vendor/huawei/extra/build/build_script/kirin_kernel_release/kernel/include/linux/seqlock.h"
	.file	46 "/mnt/disk/jenkins/ci/workspace/chipset_pipeline_release/opensource/component_code/vendor/huawei/extra/build/build_script/kirin_kernel_release/kernel/include/linux/plist.h"
	.file	47 "/mnt/disk/jenkins/ci/workspace/chipset_pipeline_release/opensource/component_code/vendor/huawei/extra/build/build_script/kirin_kernel_release/kernel/include/linux/mm_types.h"
	.file	48 "/mnt/disk/jenkins/ci/workspace/chipset_pipeline_release/opensource/component_code/vendor/huawei/extra/build/build_script/kirin_kernel_release/kernel/arch/arm64/include/asm/pgtable-types.h"
	.file	49 "/mnt/disk/jenkins/ci/workspace/chipset_pipeline_release/opensource/component_code/vendor/huawei/extra/build/build_script/kirin_kernel_release/kernel/include/asm-generic/pgtable-nop4d-hack.h"
	.file	50 "/mnt/disk/jenkins/ci/workspace/chipset_pipeline_release/opensource/component_code/vendor/huawei/extra/build/build_script/kirin_kernel_release/kernel/include/linux/uidgid.h"
	.file	51 "/mnt/disk/jenkins/ci/workspace/chipset_pipeline_release/opensource/component_code/vendor/huawei/extra/build/build_script/kirin_kernel_release/kernel/include/linux/dcache.h"
	.file	52 "/mnt/disk/jenkins/ci/workspace/chipset_pipeline_release/opensource/component_code/vendor/huawei/extra/build/build_script/kirin_kernel_release/kernel/include/linux/list_bl.h"
	.file	53 "/mnt/disk/jenkins/ci/workspace/chipset_pipeline_release/opensource/component_code/vendor/huawei/extra/build/build_script/kirin_kernel_release/kernel/include/linux/lockref.h"
	.file	54 "/mnt/disk/jenkins/ci/workspace/chipset_pipeline_release/opensource/component_code/vendor/huawei/extra/build/build_script/kirin_kernel_release/kernel/include/linux/path.h"
	.file	55 "/mnt/disk/jenkins/ci/workspace/chipset_pipeline_release/opensource/component_code/vendor/huawei/extra/build/build_script/kirin_kernel_release/kernel/include/uapi/asm-generic/int-ll64.h"
	.file	56 "/mnt/disk/jenkins/ci/workspace/chipset_pipeline_release/opensource/component_code/vendor/huawei/extra/build/build_script/kirin_kernel_release/kernel/include/linux/completion.h"
	.file	57 "/mnt/disk/jenkins/ci/workspace/chipset_pipeline_release/opensource/component_code/vendor/huawei/extra/build/build_script/kirin_kernel_release/kernel/include/linux/wait.h"
	.file	58 "/mnt/disk/jenkins/ci/workspace/chipset_pipeline_release/opensource/component_code/vendor/huawei/extra/build/build_script/kirin_kernel_release/kernel/include/linux/moduleparam.h"
	.file	59 "/mnt/disk/jenkins/ci/workspace/chipset_pipeline_release/opensource/component_code/vendor/huawei/extra/build/build_script/kirin_kernel_release/kernel/arch/arm64/include/asm/extable.h"
	.file	60 "/mnt/disk/jenkins/ci/workspace/chipset_pipeline_release/opensource/component_code/vendor/huawei/extra/build/build_script/kirin_kernel_release/kernel/include/linux/rbtree_latch.h"
	.file	61 "/mnt/disk/jenkins/ci/workspace/chipset_pipeline_release/opensource/component_code/vendor/huawei/extra/build/build_script/kirin_kernel_release/kernel/include/uapi/linux/elf.h"
	.file	62 "/mnt/disk/jenkins/ci/workspace/chipset_pipeline_release/opensource/component_code/vendor/huawei/extra/build/build_script/kirin_kernel_release/kernel/arch/arm64/include/asm/module.h"
	.file	63 "/mnt/disk/jenkins/ci/workspace/chipset_pipeline_release/opensource/component_code/vendor/huawei/extra/build/build_script/kirin_kernel_release/kernel/include/uapi/linux/types.h"
	.file	64 "/mnt/disk/jenkins/ci/workspace/chipset_pipeline_release/opensource/component_code/vendor/huawei/extra/build/build_script/kirin_kernel_release/kernel/include/asm-generic/bug.h"
	.file	65 "/mnt/disk/jenkins/ci/workspace/chipset_pipeline_release/opensource/component_code/vendor/huawei/extra/build/build_script/kirin_kernel_release/kernel/include/linux/tracepoint-defs.h"
	.file	66 "/mnt/disk/jenkins/ci/workspace/chipset_pipeline_release/opensource/component_code/vendor/huawei/extra/build/build_script/kirin_kernel_release/kernel/include/linux/jump_label.h"
	.file	67 "/mnt/disk/jenkins/ci/workspace/chipset_pipeline_release/opensource/component_code/vendor/huawei/extra/build/build_script/kirin_kernel_release/kernel/include/linux/tracepoint.h"
	.file	68 "/mnt/disk/jenkins/ci/workspace/chipset_pipeline_release/opensource/component_code/vendor/huawei/extra/build/build_script/kirin_kernel_release/kernel/include/linux/projid.h"
	.file	69 "/mnt/disk/jenkins/ci/workspace/chipset_pipeline_release/opensource/component_code/vendor/huawei/extra/build/build_script/kirin_kernel_release/kernel/include/linux/time64.h"
	.file	70 "/mnt/disk/jenkins/ci/workspace/chipset_pipeline_release/opensource/component_code/vendor/huawei/extra/build/build_script/kirin_kernel_release/kernel/include/linux/shrinker.h"
	.file	71 "/mnt/disk/jenkins/ci/workspace/chipset_pipeline_release/opensource/component_code/vendor/huawei/extra/build/build_script/kirin_kernel_release/kernel/include/linux/rwsem.h"
	.file	72 "/mnt/disk/jenkins/ci/workspace/chipset_pipeline_release/opensource/component_code/vendor/huawei/extra/build/build_script/kirin_kernel_release/kernel/include/linux/genhd.h"
	.file	73 "/mnt/disk/jenkins/ci/workspace/chipset_pipeline_release/opensource/component_code/vendor/huawei/extra/build/build_script/kirin_kernel_release/kernel/include/linux/uio.h"
	.file	74 "/mnt/disk/jenkins/ci/workspace/chipset_pipeline_release/opensource/component_code/vendor/huawei/extra/build/build_script/kirin_kernel_release/kernel/include/uapi/linux/uio.h"
	.file	75 "/mnt/disk/jenkins/ci/workspace/chipset_pipeline_release/opensource/component_code/vendor/huawei/extra/build/build_script/kirin_kernel_release/kernel/include/linux/bvec.h"
	.file	76 "/mnt/disk/jenkins/ci/workspace/chipset_pipeline_release/opensource/component_code/vendor/huawei/extra/build/build_script/kirin_kernel_release/kernel/include/linux/poll.h"
	.file	77 "/mnt/disk/jenkins/ci/workspace/chipset_pipeline_release/opensource/component_code/vendor/huawei/extra/build/build_script/kirin_kernel_release/kernel/include/linux/nfs_fs_i.h"
	.file	78 "/mnt/disk/jenkins/ci/workspace/chipset_pipeline_release/opensource/component_code/vendor/huawei/extra/build/build_script/kirin_kernel_release/kernel/include/linux/rwlock_types.h"
	.file	79 "/mnt/disk/jenkins/ci/workspace/chipset_pipeline_release/opensource/component_code/vendor/huawei/extra/build/build_script/kirin_kernel_release/kernel/include/linux/cred.h"
	.file	80 "/mnt/disk/jenkins/ci/workspace/chipset_pipeline_release/opensource/component_code/vendor/huawei/extra/build/build_script/kirin_kernel_release/kernel/include/linux/capability.h"
	.file	81 "/mnt/disk/jenkins/ci/workspace/chipset_pipeline_release/opensource/component_code/vendor/huawei/extra/build/build_script/kirin_kernel_release/kernel/include/linux/refcount.h"
	.file	82 "/mnt/disk/jenkins/ci/workspace/chipset_pipeline_release/opensource/component_code/vendor/huawei/extra/build/build_script/kirin_kernel_release/kernel/include/linux/key.h"
	.file	83 "/mnt/disk/jenkins/ci/workspace/chipset_pipeline_release/opensource/component_code/vendor/huawei/extra/build/build_script/kirin_kernel_release/kernel/include/linux/assoc_array.h"
	.file	84 "/mnt/disk/jenkins/ci/workspace/chipset_pipeline_release/opensource/component_code/vendor/huawei/extra/build/build_script/kirin_kernel_release/kernel/include/linux/sched/user.h"
	.file	85 "/mnt/disk/jenkins/ci/workspace/chipset_pipeline_release/opensource/component_code/vendor/huawei/extra/build/build_script/kirin_kernel_release/kernel/include/linux/errseq.h"
	.file	86 "/mnt/disk/jenkins/ci/workspace/chipset_pipeline_release/opensource/component_code/vendor/huawei/extra/build/build_script/kirin_kernel_release/kernel/include/linux/pm_wakeup.h"
	.file	87 "/mnt/disk/jenkins/ci/workspace/chipset_pipeline_release/opensource/component_code/vendor/huawei/extra/build/build_script/kirin_kernel_release/kernel/include/linux/timer.h"
	.file	88 "/mnt/disk/jenkins/ci/workspace/chipset_pipeline_release/opensource/component_code/vendor/huawei/extra/build/build_script/kirin_kernel_release/kernel/include/linux/workqueue.h"
	.file	89 "/mnt/disk/jenkins/ci/workspace/chipset_pipeline_release/opensource/component_code/vendor/huawei/extra/build/build_script/kirin_kernel_release/kernel/include/linux/pinctrl/devinfo.h"
	.file	90 "/mnt/disk/jenkins/ci/workspace/chipset_pipeline_release/opensource/component_code/vendor/huawei/extra/build/build_script/kirin_kernel_release/kernel/arch/arm64/include/asm/device.h"
	.file	91 "/mnt/disk/jenkins/ci/workspace/chipset_pipeline_release/opensource/component_code/vendor/huawei/extra/build/build_script/kirin_kernel_release/kernel/include/linux/klist.h"
	.file	92 "/mnt/disk/jenkins/ci/workspace/chipset_pipeline_release/opensource/component_code/vendor/huawei/extra/build/build_script/kirin_kernel_release/kernel/include/linux/kref.h"
	.file	93 "/mnt/disk/jenkins/ci/workspace/chipset_pipeline_release/opensource/component_code/vendor/huawei/extra/build/build_script/kirin_kernel_release/kernel/include/linux/percpu-refcount.h"
	.file	94 "/mnt/disk/jenkins/ci/workspace/chipset_pipeline_release/opensource/component_code/vendor/huawei/extra/build/build_script/kirin_kernel_release/kernel/include/linux/backing-dev-defs.h"
	.file	95 "/mnt/disk/jenkins/ci/workspace/chipset_pipeline_release/opensource/component_code/vendor/huawei/extra/build/build_script/kirin_kernel_release/kernel/include/linux/percpu_counter.h"
	.file	96 "/mnt/disk/jenkins/ci/workspace/chipset_pipeline_release/opensource/component_code/vendor/huawei/extra/build/build_script/kirin_kernel_release/kernel/include/linux/flex_proportions.h"
	.file	97 "/mnt/disk/jenkins/ci/workspace/chipset_pipeline_release/opensource/component_code/vendor/huawei/extra/build/build_script/kirin_kernel_release/kernel/include/linux/percpu-rwsem.h"
	.file	98 "/mnt/disk/jenkins/ci/workspace/chipset_pipeline_release/opensource/component_code/vendor/huawei/extra/build/build_script/kirin_kernel_release/kernel/include/linux/rcuwait.h"
	.file	99 "/mnt/disk/jenkins/ci/workspace/chipset_pipeline_release/opensource/component_code/vendor/huawei/extra/build/build_script/kirin_kernel_release/kernel/include/linux/uuid.h"
	.file	100 "/mnt/disk/jenkins/ci/workspace/chipset_pipeline_release/opensource/component_code/vendor/huawei/extra/build/build_script/kirin_kernel_release/kernel/include/linux/list_lru.h"
	.file	101 "/mnt/disk/jenkins/ci/workspace/chipset_pipeline_release/opensource/component_code/vendor/huawei/extra/build/build_script/kirin_kernel_release/kernel/include/linux/delayed_call.h"
	.file	102 "/mnt/disk/jenkins/ci/workspace/chipset_pipeline_release/opensource/component_code/vendor/huawei/extra/build/build_script/kirin_kernel_release/kernel/include/uapi/linux/time.h"
	.file	103 "/mnt/disk/jenkins/ci/workspace/chipset_pipeline_release/opensource/component_code/vendor/huawei/extra/build/build_script/kirin_kernel_release/kernel/include/linux/stat.h"
	.file	104 "/mnt/disk/jenkins/ci/workspace/chipset_pipeline_release/opensource/component_code/vendor/huawei/extra/build/build_script/kirin_kernel_release/kernel/include/uapi/linux/fiemap.h"
	.file	105 "/mnt/disk/jenkins/ci/workspace/chipset_pipeline_release/opensource/component_code/vendor/huawei/extra/build/build_script/kirin_kernel_release/kernel/include/linux/mmzone.h"
	.file	106 "/mnt/disk/jenkins/ci/workspace/chipset_pipeline_release/opensource/component_code/vendor/huawei/extra/build/build_script/kirin_kernel_release/kernel/include/linux/ioport.h"
	.file	107 "/mnt/disk/jenkins/ci/workspace/chipset_pipeline_release/opensource/component_code/vendor/huawei/extra/build/build_script/kirin_kernel_release/kernel/arch/arm64/include/asm/page.h"
	.file	108 "/mnt/disk/jenkins/ci/workspace/chipset_pipeline_release/opensource/component_code/vendor/huawei/extra/build/build_script/kirin_kernel_release/kernel/include/linux/mm_types_task.h"
	.file	109 "/mnt/disk/jenkins/ci/workspace/chipset_pipeline_release/opensource/component_code/vendor/huawei/extra/build/build_script/kirin_kernel_release/kernel/arch/arm64/include/asm/mmu.h"
	.file	110 "/mnt/disk/jenkins/ci/workspace/chipset_pipeline_release/opensource/component_code/vendor/huawei/extra/build/build_script/kirin_kernel_release/kernel/include/linux/uprobes.h"
	.file	111 "/mnt/disk/jenkins/ci/workspace/chipset_pipeline_release/opensource/component_code/vendor/huawei/extra/build/build_script/kirin_kernel_release/kernel/arch/arm64/include/asm/compat.h"
	.file	112 "/mnt/disk/jenkins/ci/workspace/chipset_pipeline_release/opensource/component_code/vendor/huawei/extra/build/build_script/kirin_kernel_release/kernel/include/uapi/asm-generic/poll.h"
	.file	113 "/mnt/disk/jenkins/ci/workspace/chipset_pipeline_release/opensource/component_code/vendor/huawei/extra/build/build_script/kirin_kernel_release/kernel/include/uapi/asm-generic/signal.h"
	.file	114 "/mnt/disk/jenkins/ci/workspace/chipset_pipeline_release/opensource/component_code/vendor/huawei/extra/build/build_script/kirin_kernel_release/kernel/include/linux/signal_types.h"
	.file	115 "/mnt/disk/jenkins/ci/workspace/chipset_pipeline_release/opensource/component_code/vendor/huawei/extra/build/build_script/kirin_kernel_release/kernel/include/linux/seccomp.h"
	.file	116 "/mnt/disk/jenkins/ci/workspace/chipset_pipeline_release/opensource/component_code/vendor/huawei/extra/build/build_script/kirin_kernel_release/kernel/include/linux/iocontext.h"
	.file	117 "/mnt/disk/jenkins/ci/workspace/chipset_pipeline_release/opensource/component_code/vendor/huawei/extra/build/build_script/kirin_kernel_release/kernel/include/linux/bio.h"
	.file	118 "/mnt/disk/jenkins/ci/workspace/chipset_pipeline_release/opensource/component_code/vendor/huawei/extra/build/build_script/kirin_kernel_release/kernel/include/linux/mempool.h"
	.file	119 "/mnt/disk/jenkins/ci/workspace/chipset_pipeline_release/opensource/component_code/vendor/huawei/extra/build/build_script/kirin_kernel_release/kernel/include/uapi/asm-generic/siginfo.h"
	.file	120 "/mnt/disk/jenkins/ci/workspace/chipset_pipeline_release/opensource/component_code/vendor/huawei/extra/build/build_script/kirin_kernel_release/kernel/include/linux/task_io_accounting.h"
	.file	121 "/mnt/disk/jenkins/ci/workspace/chipset_pipeline_release/opensource/component_code/vendor/huawei/extra/build/build_script/kirin_kernel_release/kernel/include/linux/nodemask.h"
	.file	122 "/mnt/disk/jenkins/ci/workspace/chipset_pipeline_release/opensource/component_code/vendor/huawei/extra/build/build_script/kirin_kernel_release/kernel/include/linux/compat.h"
	.file	123 "/mnt/disk/jenkins/ci/workspace/chipset_pipeline_release/opensource/component_code/vendor/huawei/extra/build/build_script/kirin_kernel_release/kernel/arch/arm64/include/asm/processor.h"
	.file	124 "/mnt/disk/jenkins/ci/workspace/chipset_pipeline_release/opensource/component_code/vendor/huawei/extra/build/build_script/kirin_kernel_release/kernel/arch/arm64/include/uapi/asm/ptrace.h"
	.file	125 "/mnt/disk/jenkins/ci/workspace/chipset_pipeline_release/opensource/component_code/vendor/huawei/extra/build/build_script/kirin_kernel_release/kernel/arch/arm64/include/asm/fpsimd.h"
	.file	126 "/mnt/disk/jenkins/ci/workspace/chipset_pipeline_release/opensource/component_code/vendor/huawei/extra/build/build_script/kirin_kernel_release/kernel/include/linux/blk-mq.h"
	.file	127 "/mnt/disk/jenkins/ci/workspace/chipset_pipeline_release/opensource/component_code/vendor/huawei/extra/build/build_script/kirin_kernel_release/kernel/block/blk.h"
	.file	128 "/mnt/disk/jenkins/ci/workspace/chipset_pipeline_release/opensource/component_code/vendor/huawei/extra/build/build_script/kirin_kernel_release/kernel/include/linux/sbitmap.h"
	.file	129 "/mnt/disk/jenkins/ci/workspace/chipset_pipeline_release/opensource/component_code/vendor/huawei/extra/build/build_script/kirin_kernel_release/kernel/block/blk-mq-tag.h"
	.file	130 "/mnt/disk/jenkins/ci/workspace/chipset_pipeline_release/opensource/component_code/vendor/huawei/extra/build/build_script/kirin_kernel_release/kernel/include/linux/notifier.h"
	.file	131 "/mnt/disk/jenkins/ci/workspace/chipset_pipeline_release/opensource/component_code/vendor/huawei/extra/build/build_script/kirin_kernel_release/kernel/include/linux/srcutree.h"
	.file	132 "/mnt/disk/jenkins/ci/workspace/chipset_pipeline_release/opensource/component_code/vendor/huawei/extra/build/build_script/kirin_kernel_release/kernel/include/linux/rcu_segcblist.h"
	.file	133 "/mnt/disk/jenkins/ci/workspace/chipset_pipeline_release/opensource/component_code/vendor/huawei/extra/build/build_script/kirin_kernel_release/kernel/block/blk-stat.h"
	.file	134 "/mnt/disk/jenkins/ci/workspace/chipset_pipeline_release/opensource/component_code/vendor/huawei/extra/build/build_script/kirin_kernel_release/kernel/include/linux/bsg.h"
	.globl	hisi_blk_get_lld        // -- Begin function hisi_blk_get_lld
	.p2align	2
	.type	hisi_blk_get_lld,@function
hisi_blk_get_lld:                       // @hisi_blk_get_lld
.Lfunc_begin0:
	.loc	2 39 0                  // kernel/block/hisi-blk-core.c:39:0
	.cfi_sections .debug_frame
	.cfi_startproc
// %bb.0:
	//DEBUG_VALUE: hisi_blk_get_lld:q <- $x0
	//DEBUG_VALUE: hisi_blk_get_lld:q <- $x0
	.loc	2 40 6 prologue_end     // kernel/block/hisi-blk-core.c:40:6
	ldr	x8, [x0, #312]
.Ltmp0:
	.loc	2 40 6 is_stmt 0        // kernel/block/hisi-blk-core.c:40:6
	cbz	x8, .LBB0_3
.Ltmp1:
// %bb.1:
	//DEBUG_VALUE: hisi_blk_get_lld:q <- $x0
	.loc	2 41 14 is_stmt 1       // kernel/block/hisi-blk-core.c:41:14
	ldr	x8, [x0, #2944]
	.loc	2 41 11 is_stmt 0       // kernel/block/hisi-blk-core.c:41:11
	add	x9, x0, #1808           // =1808
	add	x10, x8, #16            // =16
.Ltmp2:
.LBB0_2:
	//DEBUG_VALUE: hisi_blk_get_lld:q <- $x0
	.loc	2 0 0                   // kernel/block/hisi-blk-core.c:0:0
	cmp	x8, #0                  // =0
	csel	x0, x9, x10, eq
.Ltmp3:
	.loc	2 45 1 is_stmt 1        // kernel/block/hisi-blk-core.c:45:1
	ret
.LBB0_3:
.Ltmp4:
	//DEBUG_VALUE: hisi_blk_get_lld:q <- $x0
	.loc	2 43 14                 // kernel/block/hisi-blk-core.c:43:14
	ldr	x8, [x0, #720]
	.loc	2 43 11 is_stmt 0       // kernel/block/hisi-blk-core.c:43:11
	add	x9, x0, #1808           // =1808
	add	x10, x8, #120           // =120
	b	.LBB0_2
.Ltmp5:
.Lfunc_end0:
	.size	hisi_blk_get_lld, .Lfunc_end0-hisi_blk_get_lld
	.cfi_endproc
                                        // -- End function
	.globl	blk_dio_ck              // -- Begin function blk_dio_ck
	.p2align	2
	.type	blk_dio_ck,@function
blk_dio_ck:                             // @blk_dio_ck
.Lfunc_begin1:
	.loc	2 102 0 is_stmt 1       // kernel/block/hisi-blk-core.c:102:0
	.cfi_startproc
// %bb.0:
	//DEBUG_VALUE: blk_dio_ck:target_disk <- $x0
	//DEBUG_VALUE: blk_dio_ck:dio_start <- $x1
	//DEBUG_VALUE: blk_dio_ck:dio_op <- $w2
	//DEBUG_VALUE: blk_dio_ck:dio_page_count <- $w3
	//DEBUG_VALUE: blk_dio_ck:dio_op <- $w2
	//DEBUG_VALUE: blk_dio_ck:target_disk <- $x0
	str	x21, [sp, #-48]!        // 8-byte Folded Spill
	stp	x20, x19, [sp, #16]     // 16-byte Folded Spill
	stp	x29, x30, [sp, #32]     // 16-byte Folded Spill
	add	x29, sp, #32            // =32
	.cfi_def_cfa w29, 16
	.cfi_offset w30, -8
	.cfi_offset w29, -16
	.cfi_offset w19, -24
	.cfi_offset w20, -32
	.cfi_offset w21, -48
.Ltmp6:
	.loc	2 103 6 prologue_end    // kernel/block/hisi-blk-core.c:103:6
	cbz	x0, .LBB1_13
.Ltmp7:
// %bb.1:
	//DEBUG_VALUE: blk_dio_ck:dio_page_count <- $w3
	//DEBUG_VALUE: blk_dio_ck:dio_op <- $w2
	//DEBUG_VALUE: blk_dio_ck:dio_start <- $x1
	//DEBUG_VALUE: blk_dio_ck:target_disk <- $x0
	ldr	x8, [x0, #1112]
.Ltmp8:
	//DEBUG_VALUE: hisi_blk_get_lld:q <- $x8
	//DEBUG_VALUE: hisi_blk_get_lld:q <- $x8
	.loc	2 103 6 is_stmt 0       // kernel/block/hisi-blk-core.c:103:6
	cbz	x8, .LBB1_13
.Ltmp9:
// %bb.2:
	//DEBUG_VALUE: blk_dio_ck:dio_page_count <- $w3
	//DEBUG_VALUE: blk_dio_ck:dio_op <- $w2
	//DEBUG_VALUE: blk_dio_ck:dio_start <- $x1
	//DEBUG_VALUE: blk_dio_ck:target_disk <- $x0
	.loc	2 0 6                   // kernel/block/hisi-blk-core.c:0:6
	mov	w19, w3
.Ltmp10:
	//DEBUG_VALUE: blk_dio_ck:dio_page_count <- $w19
	mov	x20, x1
.Ltmp11:
	//DEBUG_VALUE: blk_dio_ck:dio_start <- $x20
	.loc	2 106 6 is_stmt 1       // kernel/block/hisi-blk-core.c:106:6
	cmp	w2, #1                  // =1
	b.eq	.LBB1_7
.Ltmp12:
// %bb.3:
	//DEBUG_VALUE: blk_dio_ck:dio_start <- $x20
	//DEBUG_VALUE: blk_dio_ck:dio_page_count <- $w19
	//DEBUG_VALUE: blk_dio_ck:dio_op <- $w2
	//DEBUG_VALUE: blk_dio_ck:target_disk <- $x0
	cbnz	w2, .LBB1_13
.Ltmp13:
// %bb.4:
	//DEBUG_VALUE: blk_dio_ck:dio_start <- $x20
	//DEBUG_VALUE: blk_dio_ck:dio_page_count <- $w19
	//DEBUG_VALUE: blk_dio_ck:dio_op <- $w2
	//DEBUG_VALUE: blk_dio_ck:target_disk <- $x0
	.loc	2 40 6                  // kernel/block/hisi-blk-core.c:40:6
	ldr	x9, [x8, #312]
.Ltmp14:
	.loc	2 40 6 is_stmt 0        // kernel/block/hisi-blk-core.c:40:6
	cbz	x9, .LBB1_14
.Ltmp15:
// %bb.5:
	//DEBUG_VALUE: blk_dio_ck:dio_start <- $x20
	//DEBUG_VALUE: blk_dio_ck:dio_page_count <- $w19
	//DEBUG_VALUE: blk_dio_ck:dio_op <- $w2
	//DEBUG_VALUE: blk_dio_ck:target_disk <- $x0
	.loc	2 41 14 is_stmt 1       // kernel/block/hisi-blk-core.c:41:14
	ldr	x9, [x8, #2944]
	.loc	2 41 11 is_stmt 0       // kernel/block/hisi-blk-core.c:41:11
	add	x8, x8, #1808           // =1808
	add	x10, x9, #16            // =16
.Ltmp16:
.LBB1_6:
	//DEBUG_VALUE: blk_dio_ck:dio_start <- $x20
	//DEBUG_VALUE: blk_dio_ck:dio_page_count <- $w19
	//DEBUG_VALUE: blk_dio_ck:dio_op <- $w2
	//DEBUG_VALUE: blk_dio_ck:target_disk <- $x0
	.loc	2 0 0                   // kernel/block/hisi-blk-core.c:0:0
	cmp	x9, #0                  // =0
	csel	x8, x8, x10, eq
.Ltmp17:
	.loc	2 107 55 is_stmt 1      // kernel/block/hisi-blk-core.c:107:55
	ldrsw	x21, [x8, #560]
.Ltmp18:
	//DEBUG_VALUE: blk_dio_do_vl:rate <- 3906
	//DEBUG_VALUE: blk_dio_do_vl:dio_page_count <- $w19
	//DEBUG_VALUE: blk_dio_do_vl:dio_start <- $x20
	//DEBUG_VALUE: blk_dio_do_vl:target_v <- $w21
	.loc	2 85 6                  // kernel/block/hisi-blk-core.c:85:6
	cbnz	w21, .LBB1_10
	b	.LBB1_13
.Ltmp19:
.LBB1_7:
	//DEBUG_VALUE: blk_dio_ck:dio_start <- $x20
	//DEBUG_VALUE: blk_dio_ck:dio_page_count <- $w19
	//DEBUG_VALUE: blk_dio_ck:dio_op <- $w2
	//DEBUG_VALUE: blk_dio_ck:target_disk <- $x0
	.loc	2 40 6                  // kernel/block/hisi-blk-core.c:40:6
	ldr	x9, [x8, #312]
.Ltmp20:
	.loc	2 40 6 is_stmt 0        // kernel/block/hisi-blk-core.c:40:6
	cbz	x9, .LBB1_15
.Ltmp21:
// %bb.8:
	//DEBUG_VALUE: blk_dio_ck:dio_start <- $x20
	//DEBUG_VALUE: blk_dio_ck:dio_page_count <- $w19
	//DEBUG_VALUE: blk_dio_ck:dio_op <- $w2
	//DEBUG_VALUE: blk_dio_ck:target_disk <- $x0
	.loc	2 41 14 is_stmt 1       // kernel/block/hisi-blk-core.c:41:14
	ldr	x9, [x8, #2944]
	.loc	2 41 11 is_stmt 0       // kernel/block/hisi-blk-core.c:41:11
	add	x8, x8, #1808           // =1808
	add	x10, x9, #16            // =16
.Ltmp22:
.LBB1_9:
	//DEBUG_VALUE: blk_dio_ck:dio_start <- $x20
	//DEBUG_VALUE: blk_dio_ck:dio_page_count <- $w19
	//DEBUG_VALUE: blk_dio_ck:dio_op <- $w2
	//DEBUG_VALUE: blk_dio_ck:target_disk <- $x0
	.loc	2 0 0                   // kernel/block/hisi-blk-core.c:0:0
	cmp	x9, #0                  // =0
	csel	x8, x8, x10, eq
.Ltmp23:
	.loc	2 110 55 is_stmt 1      // kernel/block/hisi-blk-core.c:110:55
	ldrsw	x21, [x8, #564]
.Ltmp24:
	//DEBUG_VALUE: blk_dio_do_vl:rate <- 3906
	//DEBUG_VALUE: blk_dio_do_vl:dio_page_count <- $w19
	//DEBUG_VALUE: blk_dio_do_vl:dio_start <- $x20
	//DEBUG_VALUE: blk_dio_do_vl:target_v <- $w21
	.loc	2 85 6                  // kernel/block/hisi-blk-core.c:85:6
	cbz	w21, .LBB1_13
.Ltmp25:
.LBB1_10:
	//DEBUG_VALUE: blk_dio_ck:dio_start <- $x20
	//DEBUG_VALUE: blk_dio_ck:dio_page_count <- $w19
	//DEBUG_VALUE: blk_dio_ck:dio_op <- $w2
	//DEBUG_VALUE: blk_dio_ck:target_disk <- $x0
	//DEBUG_VALUE: blk_dio_do_vl:target_lat <- undef
	.loc	2 0 0 is_stmt 0         // kernel/block/hisi-blk-core.c:0:0
	bl	ktime_get
.Ltmp26:
	//DEBUG_VALUE: ktime_us_delta:earlier <- $x20
	//DEBUG_VALUE: ktime_us_delta:later <- $x0
	sub	x8, x0, x20
.Ltmp27:
	//DEBUG_VALUE: ktime_divns:div <- 1000
	//DEBUG_VALUE: blk_dio_do_vl:real_lat <- [DW_OP_constu 1000, DW_OP_div, DW_OP_stack_value] $x8
	//DEBUG_VALUE: ktime_divns:kt <- $x8
	//DEBUG_VALUE: ktime_to_us:kt <- $x8
	cmn	x8, #999                // =999
	b.lt	.LBB1_13
.Ltmp28:
// %bb.11:
	//DEBUG_VALUE: blk_dio_do_vl:real_lat <- [DW_OP_constu 1000, DW_OP_div, DW_OP_stack_value] $x8
	//DEBUG_VALUE: blk_dio_ck:dio_start <- $x20
	//DEBUG_VALUE: blk_dio_ck:dio_page_count <- $w19
	mov	x9, #63439
	movk	x9, #58195, lsl #16
	movk	x9, #39845, lsl #32
	movk	x9, #8388, lsl #48
	mov	w10, #3906
	smulh	x8, x8, x9
.Ltmp29:
	smull	x9, w19, w10
	asr	x10, x8, #7
	add	x8, x10, x8, lsr #63
.Ltmp30:
	//DEBUG_VALUE: blk_dio_do_vl:real_lat <- $x8
	sdiv	x9, x9, x21
.Ltmp31:
	//DEBUG_VALUE: blk_dio_do_vl:target_lat <- $x9
	sub	x0, x9, x8
.Ltmp32:
	//DEBUG_VALUE: blk_dio_do_vl:target_lat <- $x0
	cmp	x0, #1                  // =1
	b.lt	.LBB1_13
.Ltmp33:
// %bb.12:
	//DEBUG_VALUE: blk_dio_do_vl:target_lat <- $x0
	//DEBUG_VALUE: blk_dio_do_vl:real_lat <- [DW_OP_constu 1000, DW_OP_div, DW_OP_stack_value] $x8
	//DEBUG_VALUE: blk_dio_ck:dio_start <- $x20
	//DEBUG_VALUE: blk_dio_ck:dio_page_count <- $w19
	bl	__udelay
.Ltmp34:
.LBB1_13:
	.loc	2 112 1 is_stmt 1       // kernel/block/hisi-blk-core.c:112:1
	ldp	x29, x30, [sp, #32]     // 16-byte Folded Reload
	ldp	x20, x19, [sp, #16]     // 16-byte Folded Reload
	ldr	x21, [sp], #48          // 8-byte Folded Reload
	ret
.LBB1_14:
.Ltmp35:
	//DEBUG_VALUE: blk_dio_ck:dio_start <- $x20
	//DEBUG_VALUE: blk_dio_ck:dio_page_count <- $w19
	//DEBUG_VALUE: blk_dio_ck:dio_op <- $w2
	//DEBUG_VALUE: blk_dio_ck:target_disk <- $x0
	.loc	2 43 14                 // kernel/block/hisi-blk-core.c:43:14
	ldr	x9, [x8, #720]
	.loc	2 43 11 is_stmt 0       // kernel/block/hisi-blk-core.c:43:11
	add	x8, x8, #1808           // =1808
	add	x10, x9, #120           // =120
	b	.LBB1_6
.Ltmp36:
.LBB1_15:
	//DEBUG_VALUE: blk_dio_ck:dio_start <- $x20
	//DEBUG_VALUE: blk_dio_ck:dio_page_count <- $w19
	//DEBUG_VALUE: blk_dio_ck:dio_op <- $w2
	//DEBUG_VALUE: blk_dio_ck:target_disk <- $x0
	.loc	2 43 14                 // kernel/block/hisi-blk-core.c:43:14
	ldr	x9, [x8, #720]
	.loc	2 43 11                 // kernel/block/hisi-blk-core.c:43:11
	add	x8, x8, #1808           // =1808
	add	x10, x9, #120           // =120
	b	.LBB1_9
.Ltmp37:
.Lfunc_end1:
	.size	blk_dio_ck, .Lfunc_end1-blk_dio_ck
	.cfi_endproc
                                        // -- End function
	.globl	blk_mq_tagset_vl_setup  // -- Begin function blk_mq_tagset_vl_setup
	.p2align	2
	.type	blk_mq_tagset_vl_setup,@function
blk_mq_tagset_vl_setup:                 // @blk_mq_tagset_vl_setup
.Lfunc_begin2:
	.loc	2 116 0 is_stmt 1       // kernel/block/hisi-blk-core.c:116:0
	.cfi_startproc
// %bb.0:
	//DEBUG_VALUE: blk_mq_tagset_vl_setup:tag_set <- $x0
	//DEBUG_VALUE: blk_mq_tagset_vl_setup:device_capacity <- $x1
	//DEBUG_VALUE: blk_mq_tagset_vl_setup:device_capacity <- $x1
	//DEBUG_VALUE: blk_mq_tagset_vl_setup:sqw_bw <- 0
	lsr	x8, x1, #28
	mov	w9, #500
	mov	w10, #300
	cmp	x8, #0                  // =0
	csel	w8, w10, w9, eq
.Ltmp38:
	//DEBUG_VALUE: blk_mq_tagset_vl_setup:sqr_bw <- 0
	//DEBUG_VALUE: blk_mq_tagset_vl_setup:sqw_bw <- $w8
	//DEBUG_VALUE: blk_mq_tagset_vl_setup:tag_set <- $x0
	.loc	2 127 26 prologue_end   // kernel/block/hisi-blk-core.c:127:26
	str	wzr, [x0, #576]
	.loc	2 128 26                // kernel/block/hisi-blk-core.c:128:26
	str	w8, [x0, #580]
	.loc	2 130 1                 // kernel/block/hisi-blk-core.c:130:1
	ret
.Ltmp39:
.Lfunc_end2:
	.size	blk_mq_tagset_vl_setup, .Lfunc_end2-blk_mq_tagset_vl_setup
	.cfi_endproc
                                        // -- End function
	.globl	blk_queue_set_inline_crypto_flag // -- Begin function blk_queue_set_inline_crypto_flag
	.p2align	2
	.type	blk_queue_set_inline_crypto_flag,@function
blk_queue_set_inline_crypto_flag:       // @blk_queue_set_inline_crypto_flag
.Lfunc_begin3:
	.loc	2 138 0                 // kernel/block/hisi-blk-core.c:138:0
	.cfi_startproc
// %bb.0:
	//DEBUG_VALUE: blk_queue_set_inline_crypto_flag:q <- $x0
	//DEBUG_VALUE: blk_queue_set_inline_crypto_flag:q <- $x0
	//DEBUG_VALUE: hisi_blk_get_lld:q <- $x0
	//DEBUG_VALUE: hisi_blk_get_lld:q <- $x0
	.loc	2 40 6 prologue_end     // kernel/block/hisi-blk-core.c:40:6
	ldr	x8, [x0, #312]
.Ltmp40:
	.loc	2 40 6 is_stmt 0        // kernel/block/hisi-blk-core.c:40:6
	cbz	x8, .LBB3_3
// %bb.1:
	//DEBUG_VALUE: hisi_blk_get_lld:q <- $x0
	//DEBUG_VALUE: blk_queue_set_inline_crypto_flag:q <- $x0
.Ltmp41:
	.loc	2 41 14 is_stmt 1       // kernel/block/hisi-blk-core.c:41:14
	ldr	x8, [x0, #2944]
	.loc	2 41 11 is_stmt 0       // kernel/block/hisi-blk-core.c:41:11
	add	x9, x0, #1808           // =1808
	add	x10, x8, #16            // =16
.LBB3_2:
	//DEBUG_VALUE: hisi_blk_get_lld:q <- $x0
	//DEBUG_VALUE: blk_queue_set_inline_crypto_flag:q <- $x0
	.loc	2 0 0                   // kernel/block/hisi-blk-core.c:0:0
	cmp	x8, #0                  // =0
	csel	x8, x9, x10, eq
.Ltmp42:
	//DEBUG_VALUE: blk_queue_set_inline_crypto_flag:blk_lld <- $x8
	ldr	x9, [x8, #24]
.Ltmp43:
	.loc	2 142 6 is_stmt 1       // kernel/block/hisi-blk-core.c:142:6
	tst	w1, #0x1
	and	x10, x9, #0xffffffffffffffef
	orr	x9, x9, #0x10
	csel	x9, x9, x10, ne
.Ltmp44:
	.loc	2 0 0 is_stmt 0         // kernel/block/hisi-blk-core.c:0:0
	str	x9, [x8, #24]
.Ltmp45:
	.loc	2 146 1 is_stmt 1       // kernel/block/hisi-blk-core.c:146:1
	ret
.Ltmp46:
.LBB3_3:
	//DEBUG_VALUE: hisi_blk_get_lld:q <- $x0
	//DEBUG_VALUE: blk_queue_set_inline_crypto_flag:q <- $x0
	.loc	2 43 14                 // kernel/block/hisi-blk-core.c:43:14
	ldr	x8, [x0, #720]
	.loc	2 43 11 is_stmt 0       // kernel/block/hisi-blk-core.c:43:11
	add	x9, x0, #1808           // =1808
	add	x10, x8, #120           // =120
	b	.LBB3_2
.Ltmp47:
.Lfunc_end3:
	.size	blk_queue_set_inline_crypto_flag, .Lfunc_end3-blk_queue_set_inline_crypto_flag
	.cfi_endproc
                                        // -- End function
	.globl	hisi_blk_queue_usr_ctrl_set // -- Begin function hisi_blk_queue_usr_ctrl_set
	.p2align	2
	.type	hisi_blk_queue_usr_ctrl_set,@function
hisi_blk_queue_usr_ctrl_set:            // @hisi_blk_queue_usr_ctrl_set
.Lfunc_begin4:
	.loc	2 301 0 is_stmt 1       // kernel/block/hisi-blk-core.c:301:0
	.cfi_startproc
// %bb.0:
	//DEBUG_VALUE: hisi_blk_queue_usr_ctrl_set:q <- $x0
	//DEBUG_VALUE: hisi_blk_queue_usr_ctrl_set:q <- $x0
	stp	x29, x30, [sp, #-16]!   // 16-byte Folded Spill
	mov	x29, sp
	.cfi_def_cfa w29, 16
	.cfi_offset w30, -8
	.cfi_offset w29, -16
.Ltmp48:
	.loc	2 302 20 prologue_end   // kernel/block/hisi-blk-core.c:302:20
	ldr	x8, [x0, #1552]
	mov	w9, #28570
	movk	w9, #4, lsl #16
.Ltmp49:
	.loc	2 302 6 is_stmt 0       // kernel/block/hisi-blk-core.c:302:6
	cmp	x8, x9
	b.ne	.LBB4_2
.Ltmp50:
// %bb.1:
	//DEBUG_VALUE: hisi_blk_queue_usr_ctrl_set:q <- $x0
	.loc	2 0 6                   // kernel/block/hisi-blk-core.c:0:6
	mov	w8, #100
.Ltmp51:
	.loc	2 303 22 is_stmt 1      // kernel/block/hisi-blk-core.c:303:22
	str	x8, [x0, #1736]
	.loc	2 305 4                 // kernel/block/hisi-blk-core.c:305:4
	adrp	x8, jiffies
	ldr	x8, [x8, :lo12:jiffies]
	mov	w9, #48032
	movk	w9, #13, lsl #16
	.loc	2 304 28                // kernel/block/hisi-blk-core.c:304:28
	add	x0, x0, #1744           // =1744
.Ltmp52:
	.loc	2 305 12                // kernel/block/hisi-blk-core.c:305:12
	add	x1, x8, x9
	.loc	2 304 3                 // kernel/block/hisi-blk-core.c:304:3
	bl	mod_timer
.Ltmp53:
	.loc	2 311 1                 // kernel/block/hisi-blk-core.c:311:1
	ldp	x29, x30, [sp], #16     // 16-byte Folded Reload
	ret
.LBB4_2:
.Ltmp54:
	//DEBUG_VALUE: hisi_blk_queue_usr_ctrl_set:q <- $x0
	.loc	2 308 22                // kernel/block/hisi-blk-core.c:308:22
	str	xzr, [x0, #1736]
	.loc	2 309 33                // kernel/block/hisi-blk-core.c:309:33
	add	x0, x0, #1744           // =1744
.Ltmp55:
	.loc	2 309 3 is_stmt 0       // kernel/block/hisi-blk-core.c:309:3
	bl	del_timer_sync
.Ltmp56:
	.loc	2 311 1 is_stmt 1       // kernel/block/hisi-blk-core.c:311:1
	ldp	x29, x30, [sp], #16     // 16-byte Folded Reload
	ret
.Ltmp57:
.Lfunc_end4:
	.size	hisi_blk_queue_usr_ctrl_set, .Lfunc_end4-hisi_blk_queue_usr_ctrl_set
	.cfi_endproc
                                        // -- End function
	.globl	hisi_blk_queue_usr_ctrl_recovery_timer_expire // -- Begin function hisi_blk_queue_usr_ctrl_recovery_timer_expire
	.p2align	2
	.type	hisi_blk_queue_usr_ctrl_recovery_timer_expire,@function
hisi_blk_queue_usr_ctrl_recovery_timer_expire: // @hisi_blk_queue_usr_ctrl_recovery_timer_expire
.Lfunc_begin5:
	.loc	2 314 0                 // kernel/block/hisi-blk-core.c:314:0
	.cfi_startproc
// %bb.0:
	//DEBUG_VALUE: hisi_blk_queue_usr_ctrl_recovery_timer_expire:data <- $x0
	//DEBUG_VALUE: hisi_blk_queue_usr_ctrl_recovery_timer_expire:data <- $x0
	//DEBUG_VALUE: hisi_blk_queue_usr_ctrl_recovery_timer_expire:q <- $x0
	.loc	2 317 27 prologue_end   // kernel/block/hisi-blk-core.c:317:27
	str	xzr, [x0, #1552]
	.loc	2 318 21                // kernel/block/hisi-blk-core.c:318:21
	str	xzr, [x0, #1736]
	.loc	2 319 1                 // kernel/block/hisi-blk-core.c:319:1
	ret
.Ltmp58:
.Lfunc_end5:
	.size	hisi_blk_queue_usr_ctrl_recovery_timer_expire, .Lfunc_end5-hisi_blk_queue_usr_ctrl_recovery_timer_expire
	.cfi_endproc
                                        // -- End function
	.globl	hisi_blk_bio_queue_split // -- Begin function hisi_blk_bio_queue_split
	.p2align	2
	.type	hisi_blk_bio_queue_split,@function
hisi_blk_bio_queue_split:               // @hisi_blk_bio_queue_split
.Lfunc_begin6:
	.loc	2 343 0                 // kernel/block/hisi-blk-core.c:343:0
	.cfi_startproc
// %bb.0:
	//DEBUG_VALUE: hisi_blk_bio_queue_split:q <- $x0
	//DEBUG_VALUE: hisi_blk_bio_queue_split:bio <- $x1
	//DEBUG_VALUE: hisi_blk_bio_queue_split:split <- $x2
	stp	x20, x19, [sp, #-32]!   // 16-byte Folded Spill
	stp	x29, x30, [sp, #16]     // 16-byte Folded Spill
	add	x29, sp, #16            // =16
	.cfi_def_cfa w29, 16
	.cfi_offset w30, -8
	.cfi_offset w29, -16
	.cfi_offset w19, -24
	.cfi_offset w20, -32
.Ltmp59:
	.loc	2 344 36 prologue_end   // kernel/block/hisi-blk-core.c:344:36
	ldr	x8, [x1]
	mov	x20, x0
.Ltmp60:
	//DEBUG_VALUE: hisi_blk_bio_queue_split:q <- $x20
	.loc	2 0 36 is_stmt 0        // kernel/block/hisi-blk-core.c:0:36
	mov	x19, x2
.Ltmp61:
	//DEBUG_VALUE: hisi_blk_bio_queue_split:split <- $x19
	//DEBUG_VALUE: hisi_blk_bio_queue_split:bio <- $x1
	.loc	2 344 2                 // kernel/block/hisi-blk-core.c:344:2
	mov	x0, x8
	bl	hisi_blk_busyidle_check_bio_endio
.Ltmp62:
	.loc	2 345 2 is_stmt 1       // kernel/block/hisi-blk-core.c:345:2
	mov	x0, x20
.Ltmp63:
	//DEBUG_VALUE: hisi_blk_bio_queue_split:q <- $x0
	mov	x1, x19
.Ltmp64:
	//DEBUG_VALUE: hisi_blk_bio_queue_split:split <- $x1
	bl	hisi_blk_busyidle_check_bio
.Ltmp65:
	.loc	2 346 1                 // kernel/block/hisi-blk-core.c:346:1
	ldp	x29, x30, [sp, #16]     // 16-byte Folded Reload
	ldp	x20, x19, [sp], #32     // 16-byte Folded Reload
	ret
.Ltmp66:
.Lfunc_end6:
	.size	hisi_blk_bio_queue_split, .Lfunc_end6-hisi_blk_bio_queue_split
	.cfi_endproc
                                        // -- End function
	.globl	hisi_blk_bio_split_pre  // -- Begin function hisi_blk_bio_split_pre
	.p2align	2
	.type	hisi_blk_bio_split_pre,@function
hisi_blk_bio_split_pre:                 // @hisi_blk_bio_split_pre
.Lfunc_begin7:
	.loc	2 352 0                 // kernel/block/hisi-blk-core.c:352:0
	.cfi_startproc
// %bb.0:
	//DEBUG_VALUE: hisi_blk_bio_split_pre:bio <- $x0
	//DEBUG_VALUE: hisi_blk_bio_split_pre:split <- $x1
	//DEBUG_VALUE: hisi_blk_lld_inline_crypto_bio_split_pre:bio <- $x0
	//DEBUG_VALUE: hisi_blk_lld_inline_crypto_bio_split_pre:split <- $x1
	.loc	2 237 21 prologue_end   // kernel/block/hisi-blk-core.c:237:21
	ldr	x8, [x0, #256]
.Ltmp67:
	.loc	2 237 6 is_stmt 0       // kernel/block/hisi-blk-core.c:237:6
	cbz	x8, .LBB7_5
.Ltmp68:
// %bb.1:
	//DEBUG_VALUE: hisi_blk_lld_inline_crypto_bio_split_pre:split <- $x1
	//DEBUG_VALUE: hisi_blk_lld_inline_crypto_bio_split_pre:bio <- $x0
	//DEBUG_VALUE: hisi_blk_bio_split_pre:split <- $x1
	//DEBUG_VALUE: hisi_blk_bio_split_pre:bio <- $x0
	stp	x20, x19, [sp, #-32]!   // 16-byte Folded Spill
	stp	x29, x30, [sp, #16]     // 16-byte Folded Spill
	add	x29, sp, #16            // =16
	.cfi_def_cfa w29, 16
	.cfi_offset w30, -8
	.cfi_offset w29, -16
	.cfi_offset w19, -24
	.cfi_offset w20, -32
.Ltmp69:
	.loc	2 240 20 is_stmt 1      // kernel/block/hisi-blk-core.c:240:20
	ldr	w9, [x0, #264]
	mov	x19, x0
.Ltmp70:
	//DEBUG_VALUE: hisi_blk_bio_split_pre:bio <- $x19
	//DEBUG_VALUE: hisi_blk_lld_inline_crypto_bio_split_pre:bio <- $x19
	.loc	2 0 20 is_stmt 0        // kernel/block/hisi-blk-core.c:0:20
	mov	x20, x1
.Ltmp71:
	//DEBUG_VALUE: hisi_blk_bio_split_pre:split <- $x20
	//DEBUG_VALUE: hisi_blk_lld_inline_crypto_bio_split_pre:split <- $x20
	.loc	2 240 54                // kernel/block/hisi-blk-core.c:240:54
	cmp	w9, #48                 // =48
	b.eq	.LBB7_4
.Ltmp72:
// %bb.2:
	//DEBUG_VALUE: hisi_blk_lld_inline_crypto_bio_split_pre:split <- $x20
	//DEBUG_VALUE: hisi_blk_bio_split_pre:split <- $x20
	//DEBUG_VALUE: hisi_blk_lld_inline_crypto_bio_split_pre:bio <- $x19
	//DEBUG_VALUE: hisi_blk_bio_split_pre:bio <- $x19
	cmp	w9, #64                 // =64
	b.eq	.LBB7_4
.Ltmp73:
// %bb.3:
	//DEBUG_VALUE: hisi_blk_lld_inline_crypto_bio_split_pre:split <- $x20
	//DEBUG_VALUE: hisi_blk_bio_split_pre:split <- $x20
	//DEBUG_VALUE: hisi_blk_lld_inline_crypto_bio_split_pre:bio <- $x19
	//DEBUG_VALUE: hisi_blk_bio_split_pre:bio <- $x19
	.loc	2 242 3 is_stmt 1       // kernel/block/hisi-blk-core.c:242:3
	adrp	x0, .L.str.4
	adrp	x1, .L__func__.hisi_blk_lld_inline_crypto_bio_split_pre
	add	x0, x0, :lo12:.L.str.4
	add	x1, x1, :lo12:.L__func__.hisi_blk_lld_inline_crypto_bio_split_pre
	bl	printk
.Ltmp74:
	.loc	2 244 41                // kernel/block/hisi-blk-core.c:244:41
	ldr	x8, [x19, #256]
.Ltmp75:
.LBB7_4:
	//DEBUG_VALUE: hisi_blk_lld_inline_crypto_bio_split_pre:split <- $x20
	//DEBUG_VALUE: hisi_blk_bio_split_pre:split <- $x20
	//DEBUG_VALUE: hisi_blk_lld_inline_crypto_bio_split_pre:bio <- $x19
	//DEBUG_VALUE: hisi_blk_bio_split_pre:bio <- $x19
	.loc	2 244 25 is_stmt 0      // kernel/block/hisi-blk-core.c:244:25
	str	x8, [x20, #256]
	.loc	2 245 45 is_stmt 1      // kernel/block/hisi-blk-core.c:245:45
	ldr	w8, [x19, #264]
	.loc	2 245 29 is_stmt 0      // kernel/block/hisi-blk-core.c:245:29
	str	w8, [x20, #264]
	.loc	2 246 47 is_stmt 1      // kernel/block/hisi-blk-core.c:246:47
	ldr	w8, [x19, #268]
	.loc	2 246 31 is_stmt 0      // kernel/block/hisi-blk-core.c:246:31
	str	w8, [x20, #268]
	.loc	2 247 40 is_stmt 1      // kernel/block/hisi-blk-core.c:247:40
	ldr	x8, [x19, #272]
	.loc	2 247 24 is_stmt 0      // kernel/block/hisi-blk-core.c:247:24
	str	x8, [x20, #272]
	ldp	x29, x30, [sp, #16]     // 16-byte Folded Reload
	ldp	x20, x19, [sp], #32     // 16-byte Folded Reload
.Ltmp76:
.LBB7_5:
	.loc	2 355 1 is_stmt 1       // kernel/block/hisi-blk-core.c:355:1
	ret
.Ltmp77:
.Lfunc_end7:
	.size	hisi_blk_bio_split_pre, .Lfunc_end7-hisi_blk_bio_split_pre
	.cfi_endproc
                                        // -- End function
	.globl	hisi_blk_bio_split_post // -- Begin function hisi_blk_bio_split_post
	.p2align	2
	.type	hisi_blk_bio_split_post,@function
hisi_blk_bio_split_post:                // @hisi_blk_bio_split_post
.Lfunc_begin8:
	.loc	2 361 0                 // kernel/block/hisi-blk-core.c:361:0
	.cfi_startproc
// %bb.0:
	//DEBUG_VALUE: hisi_blk_bio_split_post:bio <- $x0
	//DEBUG_VALUE: hisi_blk_lld_inline_crypto_bio_split_post:bio <- $x0
	.loc	2 255 21 prologue_end   // kernel/block/hisi-blk-core.c:255:21
	ldr	x8, [x0, #256]
.Ltmp78:
	.loc	2 255 6 is_stmt 0       // kernel/block/hisi-blk-core.c:255:6
	cbz	x8, .LBB8_5
.Ltmp79:
// %bb.1:
	//DEBUG_VALUE: hisi_blk_lld_inline_crypto_bio_split_post:bio <- $x0
	//DEBUG_VALUE: hisi_blk_bio_split_post:bio <- $x0
	str	x19, [sp, #-32]!        // 8-byte Folded Spill
	stp	x29, x30, [sp, #16]     // 16-byte Folded Spill
	add	x29, sp, #16            // =16
	.cfi_def_cfa w29, 16
	.cfi_offset w30, -8
	.cfi_offset w29, -16
	.cfi_offset w19, -32
.Ltmp80:
	.loc	2 258 20 is_stmt 1      // kernel/block/hisi-blk-core.c:258:20
	ldr	w8, [x0, #264]
	mov	x19, x0
.Ltmp81:
	//DEBUG_VALUE: hisi_blk_bio_split_post:bio <- $x19
	//DEBUG_VALUE: hisi_blk_lld_inline_crypto_bio_split_post:bio <- $x19
	.loc	2 258 54 is_stmt 0      // kernel/block/hisi-blk-core.c:258:54
	cmp	w8, #48                 // =48
	b.eq	.LBB8_4
.Ltmp82:
// %bb.2:
	//DEBUG_VALUE: hisi_blk_lld_inline_crypto_bio_split_post:bio <- $x19
	//DEBUG_VALUE: hisi_blk_bio_split_post:bio <- $x19
	cmp	w8, #64                 // =64
	b.eq	.LBB8_4
.Ltmp83:
// %bb.3:
	//DEBUG_VALUE: hisi_blk_lld_inline_crypto_bio_split_post:bio <- $x19
	//DEBUG_VALUE: hisi_blk_bio_split_post:bio <- $x19
	.loc	2 260 3 is_stmt 1       // kernel/block/hisi-blk-core.c:260:3
	adrp	x0, .L.str.5
	adrp	x1, .L__func__.hisi_blk_lld_inline_crypto_bio_split_post
	add	x0, x0, :lo12:.L.str.5
	add	x1, x1, :lo12:.L__func__.hisi_blk_lld_inline_crypto_bio_split_post
	bl	printk
.Ltmp84:
.LBB8_4:
	//DEBUG_VALUE: hisi_blk_lld_inline_crypto_bio_split_post:bio <- $x19
	//DEBUG_VALUE: hisi_blk_bio_split_post:bio <- $x19
	.loc	2 261 24                // kernel/block/hisi-blk-core.c:261:24
	ldr	w8, [x19, #52]
	ldr	x9, [x19, #368]
	lsl	x8, x8, #4
	ldr	x8, [x9, x8]
	.loc	2 261 39 is_stmt 0      // kernel/block/hisi-blk-core.c:261:39
	ldr	x8, [x8, #16]
	.loc	2 261 22                // kernel/block/hisi-blk-core.c:261:22
	str	x8, [x19, #272]
	ldp	x29, x30, [sp, #16]     // 16-byte Folded Reload
	ldr	x19, [sp], #32          // 8-byte Folded Reload
.Ltmp85:
.LBB8_5:
	.loc	2 363 1 is_stmt 1       // kernel/block/hisi-blk-core.c:363:1
	ret
.Ltmp86:
.Lfunc_end8:
	.size	hisi_blk_bio_split_post, .Lfunc_end8-hisi_blk_bio_split_post
	.cfi_endproc
                                        // -- End function
	.globl	hisi_blk_bio_merge_allow // -- Begin function hisi_blk_bio_merge_allow
	.p2align	2
	.type	hisi_blk_bio_merge_allow,@function
hisi_blk_bio_merge_allow:               // @hisi_blk_bio_merge_allow
.Lfunc_begin9:
	.loc	2 369 0                 // kernel/block/hisi-blk-core.c:369:0
	.cfi_startproc
// %bb.0:
	//DEBUG_VALUE: hisi_blk_bio_merge_allow:rq <- $x0
	//DEBUG_VALUE: hisi_blk_bio_merge_allow:bio <- $x1
	//DEBUG_VALUE: hisi_blk_lld_inline_crypto_bio_merge_allow:rq <- $x0
	//DEBUG_VALUE: hisi_blk_lld_inline_crypto_bio_merge_allow:bio <- $x1
	str	x21, [sp, #-48]!        // 8-byte Folded Spill
	stp	x20, x19, [sp, #16]     // 16-byte Folded Spill
	stp	x29, x30, [sp, #32]     // 16-byte Folded Spill
	add	x29, sp, #32            // =32
	.cfi_def_cfa w29, 16
	.cfi_offset w30, -8
	.cfi_offset w29, -16
	.cfi_offset w19, -24
	.cfi_offset w20, -32
	.cfi_offset w21, -48
.Ltmp87:
	.loc	2 187 36 prologue_end   // kernel/block/hisi-blk-core.c:187:36
	ldr	x8, [x0, #64]
.Ltmp88:
	//DEBUG_VALUE: hisi_blk_get_lld:q <- $x8
	//DEBUG_VALUE: blk_queue_support_crypto:q <- $x8
	.loc	2 0 36 is_stmt 0        // kernel/block/hisi-blk-core.c:0:36
	mov	x19, x0
.Ltmp89:
	//DEBUG_VALUE: hisi_blk_lld_inline_crypto_bio_merge_allow:prev <- 0
	//DEBUG_VALUE: hisi_blk_lld_inline_crypto_bio_merge_allow:rq <- $x19
	//DEBUG_VALUE: hisi_blk_bio_merge_allow:rq <- $x19
	mov	x20, x1
.Ltmp90:
	//DEBUG_VALUE: hisi_blk_lld_inline_crypto_bio_merge_allow:bio <- $x20
	//DEBUG_VALUE: hisi_blk_bio_merge_allow:bio <- $x20
	.loc	2 40 6 is_stmt 1        // kernel/block/hisi-blk-core.c:40:6
	ldr	x9, [x8, #312]
.Ltmp91:
	.loc	2 40 6 is_stmt 0        // kernel/block/hisi-blk-core.c:40:6
	cbz	x9, .LBB9_18
.Ltmp92:
// %bb.1:
	//DEBUG_VALUE: hisi_blk_bio_merge_allow:bio <- $x20
	//DEBUG_VALUE: hisi_blk_lld_inline_crypto_bio_merge_allow:bio <- $x20
	//DEBUG_VALUE: hisi_blk_bio_merge_allow:rq <- $x19
	//DEBUG_VALUE: hisi_blk_lld_inline_crypto_bio_merge_allow:rq <- $x19
	//DEBUG_VALUE: blk_queue_support_crypto:q <- $x8
	//DEBUG_VALUE: hisi_blk_get_lld:q <- $x8
	.loc	2 41 14 is_stmt 1       // kernel/block/hisi-blk-core.c:41:14
	ldr	x9, [x8, #2944]
	.loc	2 41 11 is_stmt 0       // kernel/block/hisi-blk-core.c:41:11
	add	x8, x8, #1808           // =1808
.Ltmp93:
	add	x10, x9, #16            // =16
.Ltmp94:
.LBB9_2:
	//DEBUG_VALUE: hisi_blk_bio_merge_allow:bio <- $x20
	//DEBUG_VALUE: hisi_blk_lld_inline_crypto_bio_merge_allow:bio <- $x20
	//DEBUG_VALUE: hisi_blk_bio_merge_allow:rq <- $x19
	//DEBUG_VALUE: hisi_blk_lld_inline_crypto_bio_merge_allow:rq <- $x19
	.loc	2 0 0                   // kernel/block/hisi-blk-core.c:0:0
	cmp	x9, #0                  // =0
	csel	x8, x8, x10, eq
.Ltmp95:
	//DEBUG_VALUE: blk_queue_support_crypto:blk_lld <- $x8
	.loc	2 187 6 is_stmt 1       // kernel/block/hisi-blk-core.c:187:6
	ldrb	w8, [x8, #24]
.Ltmp96:
	tbz	w8, #4, .LBB9_15
.Ltmp97:
// %bb.3:
	//DEBUG_VALUE: hisi_blk_bio_merge_allow:bio <- $x20
	//DEBUG_VALUE: hisi_blk_lld_inline_crypto_bio_merge_allow:bio <- $x20
	//DEBUG_VALUE: hisi_blk_bio_merge_allow:rq <- $x19
	//DEBUG_VALUE: hisi_blk_lld_inline_crypto_bio_merge_allow:rq <- $x19
	.loc	2 194 21                // kernel/block/hisi-blk-core.c:194:21
	ldr	x8, [x20, #256]
.Ltmp98:
	.loc	2 0 0 is_stmt 0         // kernel/block/hisi-blk-core.c:0:0
	ldr	x9, [x19, #424]
.Ltmp99:
	.loc	2 194 28                // kernel/block/hisi-blk-core.c:194:28
	cbz	x8, .LBB9_14
.Ltmp100:
// %bb.4:
	//DEBUG_VALUE: hisi_blk_bio_merge_allow:bio <- $x20
	//DEBUG_VALUE: hisi_blk_lld_inline_crypto_bio_merge_allow:bio <- $x20
	//DEBUG_VALUE: hisi_blk_bio_merge_allow:rq <- $x19
	//DEBUG_VALUE: hisi_blk_lld_inline_crypto_bio_merge_allow:rq <- $x19
	cbz	x9, .LBB9_14
.Ltmp101:
// %bb.5:
	//DEBUG_VALUE: hisi_blk_bio_merge_allow:bio <- $x20
	//DEBUG_VALUE: hisi_blk_lld_inline_crypto_bio_merge_allow:bio <- $x20
	//DEBUG_VALUE: hisi_blk_bio_merge_allow:rq <- $x19
	//DEBUG_VALUE: hisi_blk_lld_inline_crypto_bio_merge_allow:rq <- $x19
	.loc	2 205 20 is_stmt 1      // kernel/block/hisi-blk-core.c:205:20
	ldr	w10, [x20, #264]
	.loc	2 205 47 is_stmt 0      // kernel/block/hisi-blk-core.c:205:47
	ldr	w11, [x19, #432]
.Ltmp102:
	.loc	2 205 6                 // kernel/block/hisi-blk-core.c:205:6
	cmp	w10, w11
	b.ne	.LBB9_13
.Ltmp103:
// %bb.6:
	//DEBUG_VALUE: hisi_blk_bio_merge_allow:bio <- $x20
	//DEBUG_VALUE: hisi_blk_lld_inline_crypto_bio_merge_allow:bio <- $x20
	//DEBUG_VALUE: hisi_blk_bio_merge_allow:rq <- $x19
	//DEBUG_VALUE: hisi_blk_lld_inline_crypto_bio_merge_allow:rq <- $x19
	.loc	2 208 54 is_stmt 1      // kernel/block/hisi-blk-core.c:208:54
	cmp	w10, #48                // =48
	b.eq	.LBB9_9
.Ltmp104:
// %bb.7:
	//DEBUG_VALUE: hisi_blk_bio_merge_allow:bio <- $x20
	//DEBUG_VALUE: hisi_blk_lld_inline_crypto_bio_merge_allow:bio <- $x20
	//DEBUG_VALUE: hisi_blk_bio_merge_allow:rq <- $x19
	//DEBUG_VALUE: hisi_blk_lld_inline_crypto_bio_merge_allow:rq <- $x19
	cmp	w10, #64                // =64
	b.eq	.LBB9_9
.Ltmp105:
// %bb.8:
	//DEBUG_VALUE: hisi_blk_bio_merge_allow:bio <- $x20
	//DEBUG_VALUE: hisi_blk_lld_inline_crypto_bio_merge_allow:bio <- $x20
	//DEBUG_VALUE: hisi_blk_bio_merge_allow:rq <- $x19
	//DEBUG_VALUE: hisi_blk_lld_inline_crypto_bio_merge_allow:rq <- $x19
	.loc	2 210 3                 // kernel/block/hisi-blk-core.c:210:3
	adrp	x0, .L.str.6
	adrp	x1, .L__func__.hisi_blk_lld_inline_crypto_bio_merge_allow
	add	x0, x0, :lo12:.L.str.6
	add	x1, x1, :lo12:.L__func__.hisi_blk_lld_inline_crypto_bio_merge_allow
	bl	printk
.Ltmp106:
	.loc	2 212 20                // kernel/block/hisi-blk-core.c:212:20
	ldr	x8, [x20, #256]
	.loc	2 212 43 is_stmt 0      // kernel/block/hisi-blk-core.c:212:43
	ldr	x9, [x19, #424]
.Ltmp107:
.LBB9_9:
	//DEBUG_VALUE: hisi_blk_bio_merge_allow:bio <- $x20
	//DEBUG_VALUE: hisi_blk_lld_inline_crypto_bio_merge_allow:bio <- $x20
	//DEBUG_VALUE: hisi_blk_bio_merge_allow:rq <- $x19
	//DEBUG_VALUE: hisi_blk_lld_inline_crypto_bio_merge_allow:rq <- $x19
	.loc	2 212 6                 // kernel/block/hisi-blk-core.c:212:6
	cmp	x8, x9
	b.ne	.LBB9_13
.Ltmp108:
// %bb.10:
	//DEBUG_VALUE: hisi_blk_bio_merge_allow:bio <- $x20
	//DEBUG_VALUE: hisi_blk_lld_inline_crypto_bio_merge_allow:bio <- $x20
	//DEBUG_VALUE: hisi_blk_bio_merge_allow:rq <- $x19
	//DEBUG_VALUE: hisi_blk_lld_inline_crypto_bio_merge_allow:rq <- $x19
	.loc	2 215 13 is_stmt 1      // kernel/block/hisi-blk-core.c:215:13
	ldr	x21, [x19, #128]
.Ltmp109:
	//DEBUG_VALUE: hisi_blk_lld_inline_crypto_bio_merge_allow:prev <- $x21
	.loc	2 216 8                 // kernel/block/hisi-blk-core.c:216:8
	mov	x0, x19
	mov	x1, x20
	bl	blk_try_merge
.Ltmp110:
	//DEBUG_VALUE: hisi_blk_lld_inline_crypto_bio_merge_allow:ret <- $w0
	.loc	2 217 2                 // kernel/block/hisi-blk-core.c:217:2
	cmp	w0, #1                  // =1
	b.eq	.LBB9_17
.Ltmp111:
// %bb.11:
	//DEBUG_VALUE: hisi_blk_lld_inline_crypto_bio_merge_allow:ret <- $w0
	//DEBUG_VALUE: hisi_blk_lld_inline_crypto_bio_merge_allow:prev <- $x21
	//DEBUG_VALUE: hisi_blk_bio_merge_allow:bio <- $x20
	//DEBUG_VALUE: hisi_blk_lld_inline_crypto_bio_merge_allow:bio <- $x20
	//DEBUG_VALUE: hisi_blk_bio_merge_allow:rq <- $x19
	//DEBUG_VALUE: hisi_blk_lld_inline_crypto_bio_merge_allow:rq <- $x19
	cmp	w0, #2                  // =2
	b.ne	.LBB9_13
.Ltmp112:
// %bb.12:
	//DEBUG_VALUE: hisi_blk_lld_inline_crypto_bio_merge_allow:ret <- $w0
	//DEBUG_VALUE: hisi_blk_lld_inline_crypto_bio_merge_allow:prev <- $x21
	//DEBUG_VALUE: hisi_blk_bio_merge_allow:bio <- $x20
	//DEBUG_VALUE: hisi_blk_lld_inline_crypto_bio_merge_allow:bio <- $x20
	//DEBUG_VALUE: hisi_blk_bio_merge_allow:rq <- $x19
	//DEBUG_VALUE: hisi_blk_lld_inline_crypto_bio_merge_allow:rq <- $x19
	.loc	2 219 22                // kernel/block/hisi-blk-core.c:219:22
	ldr	x8, [x21, #272]
	.loc	2 219 36 is_stmt 0      // kernel/block/hisi-blk-core.c:219:36
	ldrh	w9, [x21, #360]
	.loc	2 219 61                // kernel/block/hisi-blk-core.c:219:61
	ldr	x10, [x20, #272]
	.loc	2 219 28                // kernel/block/hisi-blk-core.c:219:28
	add	x8, x8, x9
.Ltmp113:
	.loc	2 219 7                 // kernel/block/hisi-blk-core.c:219:7
	cmp	x8, x10
	b.eq	.LBB9_15
.Ltmp114:
.LBB9_13:
	//DEBUG_VALUE: hisi_blk_bio_merge_allow:bio <- $x20
	//DEBUG_VALUE: hisi_blk_lld_inline_crypto_bio_merge_allow:bio <- $x20
	//DEBUG_VALUE: hisi_blk_bio_merge_allow:rq <- $x19
	//DEBUG_VALUE: hisi_blk_lld_inline_crypto_bio_merge_allow:rq <- $x19
	.loc	2 0 0                   // kernel/block/hisi-blk-core.c:0:0
	mov	w0, wzr
	b	.LBB9_16
.Ltmp115:
.LBB9_14:
	//DEBUG_VALUE: hisi_blk_bio_merge_allow:bio <- $x20
	//DEBUG_VALUE: hisi_blk_lld_inline_crypto_bio_merge_allow:bio <- $x20
	//DEBUG_VALUE: hisi_blk_bio_merge_allow:rq <- $x19
	//DEBUG_VALUE: hisi_blk_lld_inline_crypto_bio_merge_allow:rq <- $x19
	.loc	2 194 7 is_stmt 1       // kernel/block/hisi-blk-core.c:194:7
	orr	x8, x8, x9
.Ltmp116:
	.loc	2 370 6                 // kernel/block/hisi-blk-core.c:370:6
	cbnz	x8, .LBB9_13
.Ltmp117:
.LBB9_15:
	//DEBUG_VALUE: hisi_blk_bio_merge_allow:bio <- $x20
	//DEBUG_VALUE: hisi_blk_bio_merge_allow:rq <- $x19
	.loc	2 372 8                 // kernel/block/hisi-blk-core.c:372:8
	ldr	w8, [x19, #264]
	.loc	2 372 39 is_stmt 0      // kernel/block/hisi-blk-core.c:372:39
	ldr	w9, [x20, #280]
	.loc	2 372 19                // kernel/block/hisi-blk-core.c:372:19
	eor	w8, w9, w8, lsr #3
	tst	w8, #0x1
	cset	w0, eq
.Ltmp118:
.LBB9_16:
	//DEBUG_VALUE: hisi_blk_bio_merge_allow:bio <- $x20
	//DEBUG_VALUE: hisi_blk_bio_merge_allow:rq <- $x19
	.loc	2 375 1 is_stmt 1       // kernel/block/hisi-blk-core.c:375:1
	ldp	x29, x30, [sp, #32]     // 16-byte Folded Reload
	ldp	x20, x19, [sp, #16]     // 16-byte Folded Reload
.Ltmp119:
	ldr	x21, [sp], #48          // 8-byte Folded Reload
	ret
.LBB9_17:
.Ltmp120:
	//DEBUG_VALUE: hisi_blk_lld_inline_crypto_bio_merge_allow:ret <- $w0
	//DEBUG_VALUE: hisi_blk_lld_inline_crypto_bio_merge_allow:prev <- $x21
	//DEBUG_VALUE: hisi_blk_bio_merge_allow:bio <- $x20
	//DEBUG_VALUE: hisi_blk_lld_inline_crypto_bio_merge_allow:bio <- $x20
	//DEBUG_VALUE: hisi_blk_bio_merge_allow:rq <- $x19
	//DEBUG_VALUE: hisi_blk_lld_inline_crypto_bio_merge_allow:rq <- $x19
	.loc	2 224 8                 // kernel/block/hisi-blk-core.c:224:8
	ldr	x8, [x19, #120]
	.loc	2 223 21                // kernel/block/hisi-blk-core.c:223:21
	ldr	x9, [x20, #272]
	.loc	2 223 34 is_stmt 0      // kernel/block/hisi-blk-core.c:223:34
	ldrh	w10, [x20, #360]
	.loc	2 224 22 is_stmt 1      // kernel/block/hisi-blk-core.c:224:22
	ldr	x8, [x8, #272]
	.loc	2 223 27                // kernel/block/hisi-blk-core.c:223:27
	add	x9, x9, x10
.Ltmp121:
	.loc	2 223 7 is_stmt 0       // kernel/block/hisi-blk-core.c:223:7
	cmp	x9, x8
	b.eq	.LBB9_15
	b	.LBB9_13
.Ltmp122:
.LBB9_18:
	//DEBUG_VALUE: hisi_blk_bio_merge_allow:bio <- $x20
	//DEBUG_VALUE: hisi_blk_lld_inline_crypto_bio_merge_allow:bio <- $x20
	//DEBUG_VALUE: hisi_blk_bio_merge_allow:rq <- $x19
	//DEBUG_VALUE: hisi_blk_lld_inline_crypto_bio_merge_allow:rq <- $x19
	//DEBUG_VALUE: blk_queue_support_crypto:q <- $x8
	//DEBUG_VALUE: hisi_blk_get_lld:q <- $x8
	.loc	2 43 14 is_stmt 1       // kernel/block/hisi-blk-core.c:43:14
	ldr	x9, [x8, #720]
	.loc	2 43 11 is_stmt 0       // kernel/block/hisi-blk-core.c:43:11
	add	x8, x8, #1808           // =1808
.Ltmp123:
	add	x10, x9, #120           // =120
	b	.LBB9_2
.Ltmp124:
.Lfunc_end9:
	.size	hisi_blk_bio_merge_allow, .Lfunc_end9-hisi_blk_bio_merge_allow
	.cfi_endproc
                                        // -- End function
	.globl	hisi_blk_bio_merge_done // -- Begin function hisi_blk_bio_merge_done
	.p2align	2
	.type	hisi_blk_bio_merge_done,@function
hisi_blk_bio_merge_done:                // @hisi_blk_bio_merge_done
.Lfunc_begin10:
	.loc	2 383 0 is_stmt 1       // kernel/block/hisi-blk-core.c:383:0
	.cfi_startproc
// %bb.0:
	//DEBUG_VALUE: hisi_blk_bio_merge_done:q <- $x0
	//DEBUG_VALUE: hisi_blk_bio_merge_done:req <- $x1
	//DEBUG_VALUE: hisi_blk_bio_merge_done:next <- $x2
	stp	x29, x30, [sp, #-16]!   // 16-byte Folded Spill
	mov	x29, sp
	.cfi_def_cfa w29, 16
	.cfi_offset w30, -8
	.cfi_offset w29, -16
	mov	x0, x1
.Ltmp125:
	//DEBUG_VALUE: hisi_blk_bio_merge_done:next <- $x2
	//DEBUG_VALUE: hisi_blk_bio_merge_done:req <- $x0
	//DEBUG_VALUE: hisi_blk_bio_merge_done:req <- $x0
	.loc	2 384 2 prologue_end    // kernel/block/hisi-blk-core.c:384:2
	mov	x1, x2
.Ltmp126:
	//DEBUG_VALUE: hisi_blk_bio_merge_done:next <- $x1
	bl	hisi_blk_latency_for_merge
.Ltmp127:
	.loc	2 385 1                 // kernel/block/hisi-blk-core.c:385:1
	ldp	x29, x30, [sp], #16     // 16-byte Folded Reload
	ret
.Ltmp128:
.Lfunc_end10:
	.size	hisi_blk_bio_merge_done, .Lfunc_end10-hisi_blk_bio_merge_done
	.cfi_endproc
                                        // -- End function
	.globl	hisi_blk_account_io_completion // -- Begin function hisi_blk_account_io_completion
	.p2align	2
	.type	hisi_blk_account_io_completion,@function
hisi_blk_account_io_completion:         // @hisi_blk_account_io_completion
.Lfunc_begin11:
	.loc	2 392 0                 // kernel/block/hisi-blk-core.c:392:0
	.cfi_startproc
// %bb.0:
	//DEBUG_VALUE: hisi_blk_account_io_completion:req <- $x0
	//DEBUG_VALUE: hisi_blk_account_io_completion:req <- $x0
	//DEBUG_VALUE: hisi_blk_account_io_completion:bytes <- $w1
	//DEBUG_VALUE: hisi_blk_account_io_completion:bytes <- $w1
	//DEBUG_VALUE: hisi_blk_account_io_completion:lld <- 0
	.loc	2 395 6 prologue_end    // kernel/block/hisi-blk-core.c:395:6
	cbz	x0, .LBB11_8
.Ltmp129:
// %bb.1:
	//DEBUG_VALUE: hisi_blk_account_io_completion:bytes <- $w1
	//DEBUG_VALUE: hisi_blk_account_io_completion:req <- $x0
	.loc	2 398 30                // kernel/block/hisi-blk-core.c:398:30
	ldr	x8, [x0, #64]
.Ltmp130:
	//DEBUG_VALUE: hisi_blk_get_lld:q <- $x8
	.loc	2 40 6                  // kernel/block/hisi-blk-core.c:40:6
	ldr	x9, [x8, #312]
.Ltmp131:
	.loc	2 40 6 is_stmt 0        // kernel/block/hisi-blk-core.c:40:6
	cbz	x9, .LBB11_11
.Ltmp132:
// %bb.2:
	//DEBUG_VALUE: hisi_blk_get_lld:q <- $x8
	//DEBUG_VALUE: hisi_blk_account_io_completion:bytes <- $w1
	//DEBUG_VALUE: hisi_blk_account_io_completion:req <- $x0
	.loc	2 41 14 is_stmt 1       // kernel/block/hisi-blk-core.c:41:14
	ldr	x9, [x8, #2944]
	.loc	2 41 11 is_stmt 0       // kernel/block/hisi-blk-core.c:41:11
	add	x8, x8, #1808           // =1808
.Ltmp133:
	add	x10, x9, #16            // =16
.Ltmp134:
.LBB11_3:
	//DEBUG_VALUE: hisi_blk_account_io_completion:bytes <- $w1
	//DEBUG_VALUE: hisi_blk_account_io_completion:req <- $x0
	.loc	2 0 0                   // kernel/block/hisi-blk-core.c:0:0
	cmp	x9, #0                  // =0
	csel	x8, x8, x10, eq
.Ltmp135:
	//DEBUG_VALUE: hisi_blk_account_io_completion:lld <- $x8
	.loc	2 399 6 is_stmt 1       // kernel/block/hisi-blk-core.c:399:6
	cbz	x8, .LBB11_9
.Ltmp136:
// %bb.4:
	//DEBUG_VALUE: hisi_blk_account_io_completion:lld <- $x8
	//DEBUG_VALUE: hisi_blk_account_io_completion:bytes <- $w1
	//DEBUG_VALUE: hisi_blk_account_io_completion:req <- $x0
	.loc	2 400 7                 // kernel/block/hisi-blk-core.c:400:7
	ldrb	w9, [x0, #84]
.Ltmp137:
	.loc	2 400 7 is_stmt 0       // kernel/block/hisi-blk-core.c:400:7
	cmp	w9, #3                  // =3
	b.ne	.LBB11_6
.Ltmp138:
// %bb.5:
	//DEBUG_VALUE: hisi_blk_account_io_completion:lld <- $x8
	//DEBUG_VALUE: hisi_blk_account_io_completion:bytes <- $w1
	//DEBUG_VALUE: hisi_blk_account_io_completion:req <- $x0
	.loc	2 401 21 is_stmt 1      // kernel/block/hisi-blk-core.c:401:21
	ldr	x9, [x8, #456]
	add	x9, x9, w1, uxtw
	str	x9, [x8, #456]
.Ltmp139:
	.loc	2 403 7                 // kernel/block/hisi-blk-core.c:403:7
	ldrb	w9, [x0, #84]
.Ltmp140:
.LBB11_6:
	//DEBUG_VALUE: hisi_blk_account_io_completion:lld <- $x8
	//DEBUG_VALUE: hisi_blk_account_io_completion:bytes <- $w1
	//DEBUG_VALUE: hisi_blk_account_io_completion:req <- $x0
	.loc	2 403 7 is_stmt 0       // kernel/block/hisi-blk-core.c:403:7
	cmp	w9, #1                  // =1
	b.ne	.LBB11_10
.Ltmp141:
// %bb.7:
	//DEBUG_VALUE: hisi_blk_account_io_completion:lld <- $x8
	//DEBUG_VALUE: hisi_blk_account_io_completion:bytes <- $w1
	//DEBUG_VALUE: hisi_blk_account_io_completion:req <- $x0
	.loc	2 404 19 is_stmt 1      // kernel/block/hisi-blk-core.c:404:19
	ldr	x9, [x8, #448]
.Ltmp142:
	.loc	2 0 0 is_stmt 0         // kernel/block/hisi-blk-core.c:0:0
	mov	w0, wzr
.Ltmp143:
	.loc	2 404 19                // kernel/block/hisi-blk-core.c:404:19
	add	x9, x9, w1, uxtw
	str	x9, [x8, #448]
.Ltmp144:
	.loc	2 408 1 is_stmt 1       // kernel/block/hisi-blk-core.c:408:1
	ret
.Ltmp145:
.LBB11_8:
	//DEBUG_VALUE: hisi_blk_account_io_completion:bytes <- $w1
	//DEBUG_VALUE: hisi_blk_account_io_completion:req <- $x0
	.loc	2 0 1 is_stmt 0         // kernel/block/hisi-blk-core.c:0:1
	mov	w0, #-1
.Ltmp146:
	.loc	2 408 1                 // kernel/block/hisi-blk-core.c:408:1
	ret
.LBB11_9:
.Ltmp147:
	//DEBUG_VALUE: hisi_blk_account_io_completion:lld <- $x8
	//DEBUG_VALUE: hisi_blk_account_io_completion:bytes <- $w1
	//DEBUG_VALUE: hisi_blk_account_io_completion:req <- $x0
	.loc	2 0 0                   // kernel/block/hisi-blk-core.c:0:0
	mov	w0, wzr
.Ltmp148:
	.loc	2 408 1                 // kernel/block/hisi-blk-core.c:408:1
	ret
.Ltmp149:
.LBB11_10:
	//DEBUG_VALUE: hisi_blk_account_io_completion:lld <- $x8
	//DEBUG_VALUE: hisi_blk_account_io_completion:bytes <- $w1
	//DEBUG_VALUE: hisi_blk_account_io_completion:req <- $x0
	.loc	2 0 0                   // kernel/block/hisi-blk-core.c:0:0
	mov	w0, wzr
.Ltmp150:
	.loc	2 408 1                 // kernel/block/hisi-blk-core.c:408:1
	ret
.Ltmp151:
.LBB11_11:
	//DEBUG_VALUE: hisi_blk_get_lld:q <- $x8
	//DEBUG_VALUE: hisi_blk_account_io_completion:bytes <- $w1
	//DEBUG_VALUE: hisi_blk_account_io_completion:req <- $x0
	.loc	2 43 14 is_stmt 1       // kernel/block/hisi-blk-core.c:43:14
	ldr	x9, [x8, #720]
	.loc	2 43 11 is_stmt 0       // kernel/block/hisi-blk-core.c:43:11
	add	x8, x8, #1808           // =1808
.Ltmp152:
	add	x10, x9, #120           // =120
	b	.LBB11_3
.Ltmp153:
.Lfunc_end11:
	.size	hisi_blk_account_io_completion, .Lfunc_end11-hisi_blk_account_io_completion
	.cfi_endproc
                                        // -- End function
	.globl	hisi_blk_generic_make_request_check // -- Begin function hisi_blk_generic_make_request_check
	.p2align	2
	.type	hisi_blk_generic_make_request_check,@function
hisi_blk_generic_make_request_check:    // @hisi_blk_generic_make_request_check
.Lfunc_begin12:
	.loc	2 449 0 is_stmt 1       // kernel/block/hisi-blk-core.c:449:0
	.cfi_startproc
// %bb.0:
	//DEBUG_VALUE: hisi_blk_generic_make_request_check:bio <- $x0
	stp	x20, x19, [sp, #-32]!   // 16-byte Folded Spill
	stp	x29, x30, [sp, #16]     // 16-byte Folded Spill
	add	x29, sp, #16            // =16
	.cfi_def_cfa w29, 16
	.cfi_offset w30, -8
	.cfi_offset w29, -16
	.cfi_offset w19, -24
	.cfi_offset w20, -32
.Ltmp154:
	.loc	2 450 33 prologue_end   // kernel/block/hisi-blk-core.c:450:33
	ldr	x8, [x0, #8]
	.loc	2 468 2                 // kernel/block/hisi-blk-core.c:468:2
	mov	w1, wzr
	mov	x19, x0
.Ltmp155:
	//DEBUG_VALUE: hisi_blk_generic_make_request_check:bio <- $x19
	.loc	2 450 42                // kernel/block/hisi-blk-core.c:450:42
	ldr	x20, [x8, #1112]
.Ltmp156:
	//DEBUG_VALUE: hisi_blk_generic_make_request_check:q <- $x20
	.loc	2 468 2                 // kernel/block/hisi-blk-core.c:468:2
	bl	hisi_blk_latency_bio_check
.Ltmp157:
	.loc	2 469 6                 // kernel/block/hisi-blk-core.c:469:6
	mov	x0, x20
	mov	x1, x19
	bl	hisi_blk_flush_async_dispatch
.Ltmp158:
	.loc	2 469 6 is_stmt 0       // kernel/block/hisi-blk-core.c:469:6
	tbnz	w0, #0, .LBB12_3
.Ltmp159:
// %bb.1:
	//DEBUG_VALUE: hisi_blk_generic_make_request_check:q <- $x20
	//DEBUG_VALUE: hisi_blk_generic_make_request_check:bio <- $x19
	.loc	2 474 2 is_stmt 1       // kernel/block/hisi-blk-core.c:474:2
	mov	x0, x20
	mov	x1, x19
	bl	hisi_blk_busyidle_check_bio
	.loc	2 0 0 is_stmt 0         // kernel/block/hisi-blk-core.c:0:0
	mov	w0, wzr
.Ltmp160:
.LBB12_2:
	//DEBUG_VALUE: hisi_blk_generic_make_request_check:q <- $x20
	//DEBUG_VALUE: hisi_blk_generic_make_request_check:bio <- $x19
	.loc	2 477 1 is_stmt 1       // kernel/block/hisi-blk-core.c:477:1
	ldp	x29, x30, [sp, #16]     // 16-byte Folded Reload
	ldp	x20, x19, [sp], #32     // 16-byte Folded Reload
.Ltmp161:
	ret
.LBB12_3:
.Ltmp162:
	//DEBUG_VALUE: hisi_blk_generic_make_request_check:q <- $x20
	//DEBUG_VALUE: hisi_blk_generic_make_request_check:bio <- $x19
	.loc	2 471 3                 // kernel/block/hisi-blk-core.c:471:3
	mov	x0, x19
	.loc	2 470 18                // kernel/block/hisi-blk-core.c:470:18
	strb	wzr, [x19, #26]
	.loc	2 471 3                 // kernel/block/hisi-blk-core.c:471:3
	bl	bio_endio
	orr	w0, wzr, #0x1
	b	.LBB12_2
.Ltmp163:
.Lfunc_end12:
	.size	hisi_blk_generic_make_request_check, .Lfunc_end12-hisi_blk_generic_make_request_check
	.cfi_endproc
                                        // -- End function
	.globl	hisi_blk_generic_make_request // -- Begin function hisi_blk_generic_make_request
	.p2align	2
	.type	hisi_blk_generic_make_request,@function
hisi_blk_generic_make_request:          // @hisi_blk_generic_make_request
.Lfunc_begin13:
	.loc	2 483 0                 // kernel/block/hisi-blk-core.c:483:0
	.cfi_startproc
// %bb.0:
	//DEBUG_VALUE: hisi_blk_generic_make_request:bio <- $x0
	//DEBUG_VALUE: hisi_blk_generic_make_request:bio <- $x0
	stp	x29, x30, [sp, #-16]!   // 16-byte Folded Spill
	mov	x29, sp
	.cfi_def_cfa w29, 16
	.cfi_offset w30, -8
	.cfi_offset w29, -16
.Ltmp164:
	.loc	2 484 2 prologue_end    // kernel/block/hisi-blk-core.c:484:2
	orr	w1, wzr, #0x2
	//DEBUG_VALUE: hisi_blk_generic_make_request:bio <- $x0
	bl	hisi_blk_latency_bio_check
.Ltmp165:
	.loc	2 486 1                 // kernel/block/hisi-blk-core.c:486:1
	ldp	x29, x30, [sp], #16     // 16-byte Folded Reload
	ret
.Ltmp166:
.Lfunc_end13:
	.size	hisi_blk_generic_make_request, .Lfunc_end13-hisi_blk_generic_make_request
	.cfi_endproc
                                        // -- End function
	.globl	hisi_blk_start_plug     // -- Begin function hisi_blk_start_plug
	.p2align	2
	.type	hisi_blk_start_plug,@function
hisi_blk_start_plug:                    // @hisi_blk_start_plug
.Lfunc_begin14:
	.loc	2 492 0                 // kernel/block/hisi-blk-core.c:492:0
	.cfi_startproc
// %bb.0:
	//DEBUG_VALUE: hisi_blk_start_plug:plug <- $x0
	//DEBUG_VALUE: hisi_blk_start_plug:plug <- $x0
	.loc	2 493 24 prologue_end   // kernel/block/hisi-blk-core.c:493:24
	add	x8, x0, #48             // =48
.Ltmp167:
	//DEBUG_VALUE: __write_once_size:p <- $x8
	//DEBUG_VALUE: __write_once_size:size <- 8
	//DEBUG_VALUE: __write_once_size:res <- undef
	//DEBUG_VALUE: INIT_LIST_HEAD:list <- $x8
	.file	135 "/mnt/disk/jenkins/ci/workspace/chipset_pipeline_release/opensource/component_code/vendor/huawei/extra/build/build_script/kirin_kernel_release/kernel/include/linux/compiler.h"
	.loc	135 210 31              // kernel/include/linux/compiler.h:210:31
	str	x8, [x0, #48]
.Ltmp168:
	.file	136 "/mnt/disk/jenkins/ci/workspace/chipset_pipeline_release/opensource/component_code/vendor/huawei/extra/build/build_script/kirin_kernel_release/kernel/include/linux/list.h"
	.loc	136 29 13               // kernel/include/linux/list.h:29:13
	stp	x8, xzr, [x0, #56]
.Ltmp169:
	.loc	2 495 1                 // kernel/block/hisi-blk-core.c:495:1
	ret
.Ltmp170:
.Lfunc_end14:
	.size	hisi_blk_start_plug, .Lfunc_end14-hisi_blk_start_plug
	.cfi_endproc
                                        // -- End function
	.globl	hisi_blk_flush_plug_list // -- Begin function hisi_blk_flush_plug_list
	.p2align	2
	.type	hisi_blk_flush_plug_list,@function
hisi_blk_flush_plug_list:               // @hisi_blk_flush_plug_list
.Lfunc_begin15:
	.loc	2 501 0                 // kernel/block/hisi-blk-core.c:501:0
	.cfi_startproc
// %bb.0:
	//DEBUG_VALUE: hisi_blk_flush_plug_list:plug <- $x0
	//DEBUG_VALUE: hisi_blk_flush_plug_list:plug <- $x0
	//DEBUG_VALUE: __read_once_size:res <- undef
	//DEBUG_VALUE: __read_once_size:size <- 8
	//DEBUG_VALUE: list_empty:head <- undef
	//DEBUG_VALUE: __read_once_size:p <- undef
	.loc	135 183 2 prologue_end  // kernel/include/linux/compiler.h:183:2
	mov	x8, x0
	ldr	x9, [x8, #48]!
.Ltmp171:
	.loc	2 502 6                 // kernel/block/hisi-blk-core.c:502:6
	cmp	x8, x9
	b.eq	.LBB15_3
.Ltmp172:
// %bb.1:
	//DEBUG_VALUE: hisi_blk_flush_plug_list:plug <- $x0
	ldr	x8, [x0, #64]
.Ltmp173:
	.loc	2 502 6 is_stmt 0       // kernel/block/hisi-blk-core.c:502:6
	cbz	x8, .LBB15_3
.Ltmp174:
// %bb.2:
	//DEBUG_VALUE: hisi_blk_flush_plug_list:plug <- $x0
	stp	x29, x30, [sp, #-16]!   // 16-byte Folded Spill
	mov	x29, sp
	.cfi_def_cfa w29, 16
	.cfi_offset w30, -8
	.cfi_offset w29, -16
.Ltmp175:
	.loc	2 504 3 is_stmt 1       // kernel/block/hisi-blk-core.c:504:3
	and	w1, w1, #0x1
	blr	x8
.Ltmp176:
	.loc	2 0 3 is_stmt 0         // kernel/block/hisi-blk-core.c:0:3
	ldp	x29, x30, [sp], #16     // 16-byte Folded Reload
.Ltmp177:
.LBB15_3:
	.loc	2 506 1 is_stmt 1       // kernel/block/hisi-blk-core.c:506:1
	ret
.Ltmp178:
.Lfunc_end15:
	.size	hisi_blk_flush_plug_list, .Lfunc_end15-hisi_blk_flush_plug_list
	.cfi_endproc
                                        // -- End function
	.globl	hisi_blk_bio_endio      // -- Begin function hisi_blk_bio_endio
	.p2align	2
	.type	hisi_blk_bio_endio,@function
hisi_blk_bio_endio:                     // @hisi_blk_bio_endio
.Lfunc_begin16:
	.loc	2 512 0                 // kernel/block/hisi-blk-core.c:512:0
	.cfi_startproc
// %bb.0:
	//DEBUG_VALUE: hisi_blk_bio_endio:bio <- $x0
	str	x19, [sp, #-32]!        // 8-byte Folded Spill
	stp	x29, x30, [sp, #16]     // 16-byte Folded Spill
	add	x29, sp, #16            // =16
	.cfi_def_cfa w29, 16
	.cfi_offset w30, -8
	.cfi_offset w29, -16
	.cfi_offset w19, -32
	mov	x19, x0
.Ltmp179:
	//DEBUG_VALUE: hisi_blk_bio_endio:bio <- $x19
	.loc	2 513 2 prologue_end    // kernel/block/hisi-blk-core.c:513:2
	bl	hisi_blk_busyidle_check_bio_endio
	.loc	2 514 2                 // kernel/block/hisi-blk-core.c:514:2
	orr	w1, wzr, #0x1
	mov	x0, x19
	bl	hisi_blk_latency_bio_check
	.loc	2 515 1                 // kernel/block/hisi-blk-core.c:515:1
	ldp	x29, x30, [sp, #16]     // 16-byte Folded Reload
	ldr	x19, [sp], #32          // 8-byte Folded Reload
.Ltmp180:
	ret
.Ltmp181:
.Lfunc_end16:
	.size	hisi_blk_bio_endio, .Lfunc_end16-hisi_blk_bio_endio
	.cfi_endproc
                                        // -- End function
	.globl	hisi_blk_bio_free       // -- Begin function hisi_blk_bio_free
	.p2align	2
	.type	hisi_blk_bio_free,@function
hisi_blk_bio_free:                      // @hisi_blk_bio_free
.Lfunc_begin17:
	.loc	2 521 0                 // kernel/block/hisi-blk-core.c:521:0
	.cfi_startproc
// %bb.0:
	//DEBUG_VALUE: hisi_blk_bio_free:bio <- $x0
	//DEBUG_VALUE: hisi_blk_bio_free:bio <- $x0
	.loc	2 522 6 prologue_end    // kernel/block/hisi-blk-core.c:522:6
	ldrb	w8, [x0, #136]
.Ltmp182:
	.loc	2 522 6 is_stmt 0       // kernel/block/hisi-blk-core.c:522:6
	tbnz	w8, #0, .LBB17_2
.Ltmp183:
// %bb.1:
	//DEBUG_VALUE: hisi_blk_bio_free:bio <- $x0
	.loc	2 531 1 is_stmt 1       // kernel/block/hisi-blk-core.c:531:1
	ret
.Ltmp184:
.LBB17_2:
	//DEBUG_VALUE: hisi_blk_bio_free:bio <- $x0
	stp	x29, x30, [sp, #-16]!   // 16-byte Folded Spill
	mov	x29, sp
	.cfi_def_cfa w29, 16
	.cfi_offset w30, -8
	.cfi_offset w29, -16
.Ltmp185:
	.loc	2 528 3                 // kernel/block/hisi-blk-core.c:528:3
	bl	hisi_blk_busyidle_check_bio_endio
.Ltmp186:
	.loc	2 0 3 is_stmt 0         // kernel/block/hisi-blk-core.c:0:3
	ldp	x29, x30, [sp], #16     // 16-byte Folded Reload
.Ltmp187:
	.loc	2 531 1 is_stmt 1       // kernel/block/hisi-blk-core.c:531:1
	ret
.Ltmp188:
.Lfunc_end17:
	.size	hisi_blk_bio_free, .Lfunc_end17-hisi_blk_bio_free
	.cfi_endproc
                                        // -- End function
	.globl	hisi_blk_request_init_from_bio // -- Begin function hisi_blk_request_init_from_bio
	.p2align	2
	.type	hisi_blk_request_init_from_bio,@function
hisi_blk_request_init_from_bio:         // @hisi_blk_request_init_from_bio
.Lfunc_begin18:
	.loc	2 537 0                 // kernel/block/hisi-blk-core.c:537:0
	.cfi_startproc
// %bb.0:
	//DEBUG_VALUE: hisi_blk_request_init_from_bio:req <- $x0
	//DEBUG_VALUE: hisi_blk_request_init_from_bio:bio <- $x1
	stp	x20, x19, [sp, #-32]!   // 16-byte Folded Spill
	stp	x29, x30, [sp, #16]     // 16-byte Folded Spill
	add	x29, sp, #16            // =16
	.cfi_def_cfa w29, 16
	.cfi_offset w30, -8
	.cfi_offset w29, -16
	.cfi_offset w19, -24
	.cfi_offset w20, -32
	mov	x20, x1
.Ltmp189:
	.loc	2 538 2 prologue_end    // kernel/block/hisi-blk-core.c:538:2
	mov	w1, wzr
.Ltmp190:
	.loc	2 0 2 is_stmt 0         // kernel/block/hisi-blk-core.c:0:2
	mov	x19, x0
.Ltmp191:
	//DEBUG_VALUE: hisi_blk_request_init_from_bio:bio <- $x20
	//DEBUG_VALUE: hisi_blk_request_init_from_bio:req <- $x19
	.loc	2 538 2                 // kernel/block/hisi-blk-core.c:538:2
	bl	hisi_blk_latency_req_check
	.loc	2 539 31 is_stmt 1      // kernel/block/hisi-blk-core.c:539:31
	str	wzr, [x19, #276]
	.loc	2 540 23                // kernel/block/hisi-blk-core.c:540:23
	str	x19, [x20, #96]
.Ltmp192:
	//DEBUG_VALUE: hisi_blk_lld_inline_crypto_init_request_from_bio:bio <- $x20
	//DEBUG_VALUE: hisi_blk_lld_inline_crypto_init_request_from_bio:req <- $x19
	.loc	2 161 6                 // kernel/block/hisi-blk-core.c:161:6
	ldr	x8, [x19, #64]
.Ltmp193:
	//DEBUG_VALUE: hisi_blk_get_lld:q <- $x8
	//DEBUG_VALUE: blk_queue_support_crypto:q <- $x8
	.loc	2 40 6                  // kernel/block/hisi-blk-core.c:40:6
	ldr	x9, [x8, #312]
.Ltmp194:
	.loc	2 40 6 is_stmt 0        // kernel/block/hisi-blk-core.c:40:6
	cbz	x9, .LBB18_11
.Ltmp195:
// %bb.1:
	//DEBUG_VALUE: blk_queue_support_crypto:q <- $x8
	//DEBUG_VALUE: hisi_blk_get_lld:q <- $x8
	//DEBUG_VALUE: hisi_blk_lld_inline_crypto_init_request_from_bio:req <- $x19
	//DEBUG_VALUE: hisi_blk_lld_inline_crypto_init_request_from_bio:bio <- $x20
	//DEBUG_VALUE: hisi_blk_request_init_from_bio:req <- $x19
	//DEBUG_VALUE: hisi_blk_request_init_from_bio:bio <- $x20
	.loc	2 41 14 is_stmt 1       // kernel/block/hisi-blk-core.c:41:14
	ldr	x9, [x8, #2944]
	.loc	2 41 11 is_stmt 0       // kernel/block/hisi-blk-core.c:41:11
	add	x8, x8, #1808           // =1808
.Ltmp196:
	add	x10, x9, #16            // =16
.Ltmp197:
.LBB18_2:
	//DEBUG_VALUE: hisi_blk_lld_inline_crypto_init_request_from_bio:req <- $x19
	//DEBUG_VALUE: hisi_blk_lld_inline_crypto_init_request_from_bio:bio <- $x20
	//DEBUG_VALUE: hisi_blk_request_init_from_bio:req <- $x19
	//DEBUG_VALUE: hisi_blk_request_init_from_bio:bio <- $x20
	.loc	2 0 0                   // kernel/block/hisi-blk-core.c:0:0
	cmp	x9, #0                  // =0
	csel	x8, x8, x10, eq
.Ltmp198:
	//DEBUG_VALUE: blk_queue_support_crypto:blk_lld <- $x8
	.loc	2 161 6 is_stmt 1       // kernel/block/hisi-blk-core.c:161:6
	ldrb	w8, [x8, #24]
.Ltmp199:
	tbz	w8, #4, .LBB18_8
.Ltmp200:
// %bb.3:
	//DEBUG_VALUE: hisi_blk_lld_inline_crypto_init_request_from_bio:req <- $x19
	//DEBUG_VALUE: hisi_blk_lld_inline_crypto_init_request_from_bio:bio <- $x20
	//DEBUG_VALUE: hisi_blk_request_init_from_bio:req <- $x19
	//DEBUG_VALUE: hisi_blk_request_init_from_bio:bio <- $x20
	.loc	2 164 21                // kernel/block/hisi-blk-core.c:164:21
	ldr	x8, [x20, #256]
.Ltmp201:
	.loc	2 164 6 is_stmt 0       // kernel/block/hisi-blk-core.c:164:6
	cbz	x8, .LBB18_8
.Ltmp202:
// %bb.4:
	//DEBUG_VALUE: hisi_blk_lld_inline_crypto_init_request_from_bio:req <- $x19
	//DEBUG_VALUE: hisi_blk_lld_inline_crypto_init_request_from_bio:bio <- $x20
	//DEBUG_VALUE: hisi_blk_request_init_from_bio:req <- $x19
	//DEBUG_VALUE: hisi_blk_request_init_from_bio:bio <- $x20
	.loc	2 167 6 is_stmt 1       // kernel/block/hisi-blk-core.c:167:6
	ldr	w9, [x20, #264]
.Ltmp203:
	.loc	2 167 6 is_stmt 0       // kernel/block/hisi-blk-core.c:167:6
	cmp	w9, #48                 // =48
	b.eq	.LBB18_7
.Ltmp204:
// %bb.5:
	//DEBUG_VALUE: hisi_blk_lld_inline_crypto_init_request_from_bio:req <- $x19
	//DEBUG_VALUE: hisi_blk_lld_inline_crypto_init_request_from_bio:bio <- $x20
	//DEBUG_VALUE: hisi_blk_request_init_from_bio:req <- $x19
	//DEBUG_VALUE: hisi_blk_request_init_from_bio:bio <- $x20
	cmp	w9, #64                 // =64
	b.eq	.LBB18_7
.Ltmp205:
// %bb.6:
	//DEBUG_VALUE: hisi_blk_lld_inline_crypto_init_request_from_bio:req <- $x19
	//DEBUG_VALUE: hisi_blk_lld_inline_crypto_init_request_from_bio:bio <- $x20
	//DEBUG_VALUE: hisi_blk_request_init_from_bio:req <- $x19
	//DEBUG_VALUE: hisi_blk_request_init_from_bio:bio <- $x20
	.loc	2 169 3 is_stmt 1       // kernel/block/hisi-blk-core.c:169:3
	adrp	x0, .L.str.7
	adrp	x1, .L__func__.hisi_blk_lld_inline_crypto_init_request_from_bio
	add	x0, x0, :lo12:.L.str.7
	add	x1, x1, :lo12:.L__func__.hisi_blk_lld_inline_crypto_init_request_from_bio
	orr	w2, wzr, #0x40
	orr	w3, wzr, #0x30
	bl	printk
.Ltmp206:
	.loc	2 173 39                // kernel/block/hisi-blk-core.c:173:39
	ldr	x8, [x20, #256]
.Ltmp207:
.LBB18_7:
	//DEBUG_VALUE: hisi_blk_lld_inline_crypto_init_request_from_bio:req <- $x19
	//DEBUG_VALUE: hisi_blk_lld_inline_crypto_init_request_from_bio:bio <- $x20
	//DEBUG_VALUE: hisi_blk_request_init_from_bio:req <- $x19
	//DEBUG_VALUE: hisi_blk_request_init_from_bio:bio <- $x20
	.loc	2 173 23 is_stmt 0      // kernel/block/hisi-blk-core.c:173:23
	str	x8, [x19, #424]
	.loc	2 174 43 is_stmt 1      // kernel/block/hisi-blk-core.c:174:43
	ldr	w8, [x20, #264]
	.loc	2 174 27 is_stmt 0      // kernel/block/hisi-blk-core.c:174:27
	str	w8, [x19, #432]
	.loc	2 175 45 is_stmt 1      // kernel/block/hisi-blk-core.c:175:45
	ldr	w8, [x20, #268]
	.loc	2 175 29 is_stmt 0      // kernel/block/hisi-blk-core.c:175:29
	str	w8, [x19, #436]
.Ltmp208:
.LBB18_8:
	//DEBUG_VALUE: hisi_blk_request_init_from_bio:req <- $x19
	//DEBUG_VALUE: hisi_blk_request_init_from_bio:bio <- $x20
	.loc	2 543 6 is_stmt 1       // kernel/block/hisi-blk-core.c:543:6
	ldrb	w8, [x20, #280]
	tbz	w8, #0, .LBB18_10
.Ltmp209:
// %bb.9:
	//DEBUG_VALUE: hisi_blk_request_init_from_bio:req <- $x19
	//DEBUG_VALUE: hisi_blk_request_init_from_bio:bio <- $x20
	.loc	2 544 35                // kernel/block/hisi-blk-core.c:544:35
	ldr	x8, [x19, #264]
	orr	x8, x8, #0x8
	str	x8, [x19, #264]
.Ltmp210:
.LBB18_10:
	//DEBUG_VALUE: hisi_blk_request_init_from_bio:req <- $x19
	//DEBUG_VALUE: hisi_blk_request_init_from_bio:bio <- $x20
	.loc	2 549 1                 // kernel/block/hisi-blk-core.c:549:1
	ldp	x29, x30, [sp, #16]     // 16-byte Folded Reload
	ldp	x20, x19, [sp], #32     // 16-byte Folded Reload
.Ltmp211:
	ret
.LBB18_11:
.Ltmp212:
	//DEBUG_VALUE: blk_queue_support_crypto:q <- $x8
	//DEBUG_VALUE: hisi_blk_get_lld:q <- $x8
	//DEBUG_VALUE: hisi_blk_lld_inline_crypto_init_request_from_bio:req <- $x19
	//DEBUG_VALUE: hisi_blk_lld_inline_crypto_init_request_from_bio:bio <- $x20
	//DEBUG_VALUE: hisi_blk_request_init_from_bio:req <- $x19
	//DEBUG_VALUE: hisi_blk_request_init_from_bio:bio <- $x20
	.loc	2 43 14                 // kernel/block/hisi-blk-core.c:43:14
	ldr	x9, [x8, #720]
	.loc	2 43 11 is_stmt 0       // kernel/block/hisi-blk-core.c:43:11
	add	x8, x8, #1808           // =1808
.Ltmp213:
	add	x10, x9, #120           // =120
	b	.LBB18_2
.Ltmp214:
.Lfunc_end18:
	.size	hisi_blk_request_init_from_bio, .Lfunc_end18-hisi_blk_request_init_from_bio
	.cfi_endproc
                                        // -- End function
	.globl	hisi_blk_insert_cloned_request // -- Begin function hisi_blk_insert_cloned_request
	.p2align	2
	.type	hisi_blk_insert_cloned_request,@function
hisi_blk_insert_cloned_request:         // @hisi_blk_insert_cloned_request
.Lfunc_begin19:
	.loc	2 557 0 is_stmt 1       // kernel/block/hisi-blk-core.c:557:0
	.cfi_startproc
// %bb.0:
	//DEBUG_VALUE: hisi_blk_insert_cloned_request:q <- $x0
	//DEBUG_VALUE: hisi_blk_insert_cloned_request:q <- $x0
	//DEBUG_VALUE: hisi_blk_insert_cloned_request:rq <- $x1
	//DEBUG_VALUE: hisi_blk_insert_cloned_request:rq <- $x1
	//DEBUG_VALUE: hisi_blk_insert_cloned_request:rq <- $x1
	//DEBUG_VALUE: hisi_blk_insert_cloned_request:q <- $x0
	stp	x29, x30, [sp, #-16]!   // 16-byte Folded Spill
	mov	x29, sp
	.cfi_def_cfa w29, 16
	.cfi_offset w30, -8
	.cfi_offset w29, -16
.Ltmp215:
	.loc	2 558 2 prologue_end    // kernel/block/hisi-blk-core.c:558:2
	bl	hisi_blk_busyidle_check_request_bio
.Ltmp216:
	.loc	2 559 1                 // kernel/block/hisi-blk-core.c:559:1
	ldp	x29, x30, [sp], #16     // 16-byte Folded Reload
	ret
.Ltmp217:
.Lfunc_end19:
	.size	hisi_blk_insert_cloned_request, .Lfunc_end19-hisi_blk_insert_cloned_request
	.cfi_endproc
                                        // -- End function
	.globl	hisi_blk_request_execute_nowait // -- Begin function hisi_blk_request_execute_nowait
	.p2align	2
	.type	hisi_blk_request_execute_nowait,@function
hisi_blk_request_execute_nowait:        // @hisi_blk_request_execute_nowait
.Lfunc_begin20:
	.loc	2 567 0                 // kernel/block/hisi-blk-core.c:567:0
	.cfi_startproc
// %bb.0:
	//DEBUG_VALUE: hisi_blk_request_execute_nowait:q <- $x0
	//DEBUG_VALUE: hisi_blk_request_execute_nowait:q <- $x0
	//DEBUG_VALUE: hisi_blk_request_execute_nowait:rq <- $x1
	//DEBUG_VALUE: hisi_blk_request_execute_nowait:rq <- $x1
	//DEBUG_VALUE: hisi_blk_request_execute_nowait:done <- $x2
	//DEBUG_VALUE: hisi_blk_request_execute_nowait:done <- $x2
	//DEBUG_VALUE: hisi_blk_request_execute_nowait:done <- $x2
	//DEBUG_VALUE: hisi_blk_request_execute_nowait:rq <- $x1
	//DEBUG_VALUE: hisi_blk_request_execute_nowait:q <- $x0
	stp	x29, x30, [sp, #-16]!   // 16-byte Folded Spill
	mov	x29, sp
	.cfi_def_cfa w29, 16
	.cfi_offset w30, -8
	.cfi_offset w29, -16
.Ltmp218:
	.loc	2 568 2 prologue_end    // kernel/block/hisi-blk-core.c:568:2
	bl	hisi_blk_busyidle_check_execute_request
.Ltmp219:
	.loc	2 569 1                 // kernel/block/hisi-blk-core.c:569:1
	ldp	x29, x30, [sp], #16     // 16-byte Folded Reload
	ret
.Ltmp220:
.Lfunc_end20:
	.size	hisi_blk_request_execute_nowait, .Lfunc_end20-hisi_blk_request_execute_nowait
	.cfi_endproc
                                        // -- End function
	.globl	hisi_blk_mq_rq_ctx_init // -- Begin function hisi_blk_mq_rq_ctx_init
	.p2align	2
	.type	hisi_blk_mq_rq_ctx_init,@function
hisi_blk_mq_rq_ctx_init:                // @hisi_blk_mq_rq_ctx_init
.Lfunc_begin21:
	.loc	2 576 0                 // kernel/block/hisi-blk-core.c:576:0
	.cfi_startproc
// %bb.0:
	//DEBUG_VALUE: hisi_blk_mq_rq_ctx_init:q <- $x0
	//DEBUG_VALUE: hisi_blk_mq_rq_ctx_init:ctx <- $x1
	//DEBUG_VALUE: hisi_blk_mq_rq_ctx_init:rq <- $x2
	str	x19, [sp, #-32]!        // 8-byte Folded Spill
	stp	x29, x30, [sp, #16]     // 16-byte Folded Spill
	add	x29, sp, #16            // =16
	.cfi_def_cfa w29, 16
	.cfi_offset w30, -8
	.cfi_offset w29, -16
	.cfi_offset w19, -32
.Ltmp221:
	.loc	2 577 9 prologue_end    // kernel/block/hisi-blk-core.c:577:9
	ldr	x8, [x0, #1800]
	//DEBUG_VALUE: hisi_blk_mq_rq_ctx_init:ctx <- $x1
	mov	x19, x2
.Ltmp222:
	//DEBUG_VALUE: hisi_blk_mq_rq_ctx_init:rq <- $x19
	//DEBUG_VALUE: hisi_blk_mq_rq_ctx_init:q <- $x0
	.loc	2 577 24 is_stmt 0      // kernel/block/hisi-blk-core.c:577:24
	cbz	x8, .LBB21_3
.Ltmp223:
// %bb.1:
	//DEBUG_VALUE: hisi_blk_mq_rq_ctx_init:rq <- $x19
	//DEBUG_VALUE: hisi_blk_mq_rq_ctx_init:ctx <- $x1
	//DEBUG_VALUE: hisi_blk_mq_rq_ctx_init:q <- $x0
	.loc	2 577 46                // kernel/block/hisi-blk-core.c:577:46
	ldr	x8, [x8, #32]
.Ltmp224:
	.loc	2 577 6                 // kernel/block/hisi-blk-core.c:577:6
	cbz	x8, .LBB21_3
.Ltmp225:
// %bb.2:
	//DEBUG_VALUE: hisi_blk_mq_rq_ctx_init:rq <- $x19
	//DEBUG_VALUE: hisi_blk_mq_rq_ctx_init:ctx <- $x1
	//DEBUG_VALUE: hisi_blk_mq_rq_ctx_init:q <- $x0
	.loc	2 578 3 is_stmt 1       // kernel/block/hisi-blk-core.c:578:3
	mov	x2, x19
	blr	x8
.Ltmp226:
.LBB21_3:
	//DEBUG_VALUE: hisi_blk_mq_rq_ctx_init:rq <- $x19
	.loc	2 0 3 is_stmt 0         // kernel/block/hisi-blk-core.c:0:3
	mov	x8, #-4294967296
.Ltmp227:
	//DEBUG_VALUE: hisi_blk_lld_inline_crypto_req_init:rq <- $x19
	.loc	2 266 22 is_stmt 1      // kernel/block/hisi-blk-core.c:266:22
	stp	xzr, x8, [x19, #424]
.Ltmp228:
	.loc	2 581 1                 // kernel/block/hisi-blk-core.c:581:1
	ldp	x29, x30, [sp, #16]     // 16-byte Folded Reload
	ldr	x19, [sp], #32          // 8-byte Folded Reload
.Ltmp229:
	ret
.Ltmp230:
.Lfunc_end21:
	.size	hisi_blk_mq_rq_ctx_init, .Lfunc_end21-hisi_blk_mq_rq_ctx_init
	.cfi_endproc
                                        // -- End function
	.globl	hisi_blk_mq_request_start // -- Begin function hisi_blk_mq_request_start
	.p2align	2
	.type	hisi_blk_mq_request_start,@function
hisi_blk_mq_request_start:              // @hisi_blk_mq_request_start
.Lfunc_begin22:
	.loc	2 587 0                 // kernel/block/hisi-blk-core.c:587:0
	.cfi_startproc
// %bb.0:
	//DEBUG_VALUE: hisi_blk_mq_request_start:req <- $x0
	str	x19, [sp, #-32]!        // 8-byte Folded Spill
	stp	x29, x30, [sp, #16]     // 16-byte Folded Spill
	add	x29, sp, #16            // =16
	.cfi_def_cfa w29, 16
	.cfi_offset w30, -8
	.cfi_offset w29, -16
	.cfi_offset w19, -32
.Ltmp231:
	.loc	2 588 2 prologue_end    // kernel/block/hisi-blk-core.c:588:2
	mov	w1, #5
	mov	x19, x0
.Ltmp232:
	//DEBUG_VALUE: hisi_blk_mq_request_start:req <- $x19
	bl	hisi_blk_latency_req_check
.Ltmp233:
	.loc	2 589 6                 // kernel/block/hisi-blk-core.c:589:6
	ldr	x8, [x19, #64]
	mov	w10, #28570
	movk	w10, #4, lsl #16
	ldr	x9, [x8, #1552]
.Ltmp234:
	.loc	2 589 6 is_stmt 0       // kernel/block/hisi-blk-core.c:589:6
	cmp	x9, x10
	b.eq	.LBB22_2
.Ltmp235:
.LBB22_1:
	//DEBUG_VALUE: hisi_blk_mq_request_start:req <- $x19
	.loc	2 592 1 is_stmt 1       // kernel/block/hisi-blk-core.c:592:1
	ldp	x29, x30, [sp, #16]     // 16-byte Folded Reload
	ldr	x19, [sp], #32          // 8-byte Folded Reload
.Ltmp236:
	ret
.LBB22_2:
.Ltmp237:
	//DEBUG_VALUE: hisi_blk_mq_request_start:req <- $x19
	//DEBUG_VALUE: hisi_blk_io_speed_adj_func:req <- $x19
	//DEBUG_VALUE: blk_rq_is_passthrough:rq <- $x19
	//DEBUG_VALUE: blk_rq_is_scsi:rq <- $x19
	.loc	4 389 24                // kernel/include/linux/blkdev.h:389:24
	ldrb	w9, [x19, #84]
.Ltmp238:
	.loc	4 399 28                // kernel/include/linux/blkdev.h:399:28
	orr	w10, w9, #0x3
.Ltmp239:
	.loc	2 276 51                // kernel/block/hisi-blk-core.c:276:51
	cmp	w10, #35                // =35
	b.eq	.LBB22_1
.Ltmp240:
// %bb.3:
	//DEBUG_VALUE: hisi_blk_io_speed_adj_func:req <- $x19
	//DEBUG_VALUE: hisi_blk_mq_request_start:req <- $x19
	.loc	2 276 60 is_stmt 0      // kernel/block/hisi-blk-core.c:276:60
	ldr	w10, [x19, #104]
.Ltmp241:
	.loc	2 276 6                 // kernel/block/hisi-blk-core.c:276:6
	cbz	w10, .LBB22_1
.Ltmp242:
// %bb.4:
	//DEBUG_VALUE: hisi_blk_io_speed_adj_func:req <- $x19
	//DEBUG_VALUE: hisi_blk_mq_request_start:req <- $x19
	.loc	2 279 6 is_stmt 1       // kernel/block/hisi-blk-core.c:279:6
	cmp	w9, #1                  // =1
	b.ne	.LBB22_11
.Ltmp243:
// %bb.5:
	//DEBUG_VALUE: hisi_blk_io_speed_adj_func:req <- $x19
	//DEBUG_VALUE: hisi_blk_mq_request_start:req <- $x19
	.loc	2 280 31                // kernel/block/hisi-blk-core.c:280:31
	cmp	w10, #32, lsl #12       // =131072
	b.hi	.LBB22_8
.Ltmp244:
// %bb.6:
	//DEBUG_VALUE: hisi_blk_io_speed_adj_func:req <- $x19
	//DEBUG_VALUE: hisi_blk_mq_request_start:req <- $x19
	.loc	2 0 0 is_stmt 0         // kernel/block/hisi-blk-core.c:0:0
	ldr	x0, [x8, #1736]
	.loc	2 280 31                // kernel/block/hisi-blk-core.c:280:31
	cbz	x0, .LBB22_8
.Ltmp245:
// %bb.7:
	//DEBUG_VALUE: hisi_blk_io_speed_adj_func:req <- $x19
	//DEBUG_VALUE: hisi_blk_mq_request_start:req <- $x19
	.loc	2 282 4 is_stmt 1       // kernel/block/hisi-blk-core.c:282:4
	bl	__udelay
.Ltmp246:
.LBB22_8:
	//DEBUG_VALUE: hisi_blk_io_speed_adj_func:req <- $x19
	//DEBUG_VALUE: hisi_blk_mq_request_start:req <- $x19
	.loc	2 283 12                // kernel/block/hisi-blk-core.c:283:12
	ldr	x8, [x19, #64]
	.loc	2 283 26 is_stmt 0      // kernel/block/hisi-blk-core.c:283:26
	ldr	x0, [x8, #1720]
	.loc	2 283 31                // kernel/block/hisi-blk-core.c:283:31
	cbz	x0, .LBB22_11
.Ltmp247:
// %bb.9:
	//DEBUG_VALUE: hisi_blk_io_speed_adj_func:req <- $x19
	//DEBUG_VALUE: hisi_blk_mq_request_start:req <- $x19
	.loc	2 284 10 is_stmt 1      // kernel/block/hisi-blk-core.c:284:10
	ldr	w8, [x19, #104]
.Ltmp248:
	.loc	2 283 7                 // kernel/block/hisi-blk-core.c:283:7
	cmp	w8, #32, lsl #12        // =131072
	b.ls	.LBB22_11
.Ltmp249:
// %bb.10:
	//DEBUG_VALUE: hisi_blk_io_speed_adj_func:req <- $x19
	//DEBUG_VALUE: hisi_blk_mq_request_start:req <- $x19
	.loc	2 285 4                 // kernel/block/hisi-blk-core.c:285:4
	bl	__udelay
.Ltmp250:
.LBB22_11:
	//DEBUG_VALUE: hisi_blk_io_speed_adj_func:req <- $x19
	//DEBUG_VALUE: hisi_blk_mq_request_start:req <- $x19
	.loc	2 287 6                 // kernel/block/hisi-blk-core.c:287:6
	ldrb	w8, [x19, #84]
	cbnz	w8, .LBB22_1
.Ltmp251:
// %bb.12:
	//DEBUG_VALUE: hisi_blk_io_speed_adj_func:req <- $x19
	//DEBUG_VALUE: hisi_blk_mq_request_start:req <- $x19
	.loc	2 288 12                // kernel/block/hisi-blk-core.c:288:12
	ldr	x8, [x19, #64]
	.loc	2 288 26 is_stmt 0      // kernel/block/hisi-blk-core.c:288:26
	ldr	x0, [x8, #1728]
	.loc	2 288 31                // kernel/block/hisi-blk-core.c:288:31
	cbz	x0, .LBB22_15
.Ltmp252:
// %bb.13:
	//DEBUG_VALUE: hisi_blk_io_speed_adj_func:req <- $x19
	//DEBUG_VALUE: hisi_blk_mq_request_start:req <- $x19
	.loc	2 289 10 is_stmt 1      // kernel/block/hisi-blk-core.c:289:10
	ldr	w8, [x19, #104]
.Ltmp253:
	.loc	2 288 7                 // kernel/block/hisi-blk-core.c:288:7
	cmp	w8, #32, lsl #12        // =131072
	b.hi	.LBB22_15
.Ltmp254:
// %bb.14:
	//DEBUG_VALUE: hisi_blk_io_speed_adj_func:req <- $x19
	//DEBUG_VALUE: hisi_blk_mq_request_start:req <- $x19
	.loc	2 290 4                 // kernel/block/hisi-blk-core.c:290:4
	bl	__udelay
.Ltmp255:
.LBB22_15:
	//DEBUG_VALUE: hisi_blk_io_speed_adj_func:req <- $x19
	//DEBUG_VALUE: hisi_blk_mq_request_start:req <- $x19
	.loc	2 291 12                // kernel/block/hisi-blk-core.c:291:12
	ldr	x8, [x19, #64]
	.loc	2 291 26 is_stmt 0      // kernel/block/hisi-blk-core.c:291:26
	ldr	x0, [x8, #1712]
	.loc	2 291 31                // kernel/block/hisi-blk-core.c:291:31
	cbz	x0, .LBB22_1
.Ltmp256:
// %bb.16:
	//DEBUG_VALUE: hisi_blk_io_speed_adj_func:req <- $x19
	//DEBUG_VALUE: hisi_blk_mq_request_start:req <- $x19
	.loc	2 292 10 is_stmt 1      // kernel/block/hisi-blk-core.c:292:10
	ldr	w8, [x19, #104]
.Ltmp257:
	.loc	2 291 7                 // kernel/block/hisi-blk-core.c:291:7
	cmp	w8, #32, lsl #12        // =131072
	b.ls	.LBB22_1
.Ltmp258:
// %bb.17:
	//DEBUG_VALUE: hisi_blk_io_speed_adj_func:req <- $x19
	//DEBUG_VALUE: hisi_blk_mq_request_start:req <- $x19
	.loc	2 293 4                 // kernel/block/hisi-blk-core.c:293:4
	bl	__udelay
	b	.LBB22_1
.Ltmp259:
.Lfunc_end22:
	.size	hisi_blk_mq_request_start, .Lfunc_end22-hisi_blk_mq_request_start
	.cfi_endproc
                                        // -- End function
	.globl	hisi_blk_request_start  // -- Begin function hisi_blk_request_start
	.p2align	2
	.type	hisi_blk_request_start,@function
hisi_blk_request_start:                 // @hisi_blk_request_start
.Lfunc_begin23:
	.loc	2 598 0                 // kernel/block/hisi-blk-core.c:598:0
	.cfi_startproc
// %bb.0:
	//DEBUG_VALUE: hisi_blk_request_start:req <- $x0
	//DEBUG_VALUE: hisi_blk_request_start:req <- $x0
	stp	x29, x30, [sp, #-16]!   // 16-byte Folded Spill
	mov	x29, sp
	.cfi_def_cfa w29, 16
	.cfi_offset w30, -8
	.cfi_offset w29, -16
.Ltmp260:
	.loc	2 599 2 prologue_end    // kernel/block/hisi-blk-core.c:599:2
	mov	w1, #5
	//DEBUG_VALUE: hisi_blk_request_start:req <- $x0
	bl	hisi_blk_latency_req_check
.Ltmp261:
	.loc	2 600 1                 // kernel/block/hisi-blk-core.c:600:1
	ldp	x29, x30, [sp], #16     // 16-byte Folded Reload
	ret
.Ltmp262:
.Lfunc_end23:
	.size	hisi_blk_request_start, .Lfunc_end23-hisi_blk_request_start
	.cfi_endproc
                                        // -- End function
	.globl	hisi_blk_requeue_request // -- Begin function hisi_blk_requeue_request
	.p2align	2
	.type	hisi_blk_requeue_request,@function
hisi_blk_requeue_request:               // @hisi_blk_requeue_request
.Lfunc_begin24:
	.loc	2 606 0                 // kernel/block/hisi-blk-core.c:606:0
	.cfi_startproc
// %bb.0:
	//DEBUG_VALUE: hisi_blk_requeue_request:rq <- $x0
	//DEBUG_VALUE: hisi_blk_requeue_request:rq <- $x0
	stp	x29, x30, [sp, #-16]!   // 16-byte Folded Spill
	mov	x29, sp
	.cfi_def_cfa w29, 16
	.cfi_offset w30, -8
	.cfi_offset w29, -16
.Ltmp263:
	.loc	2 607 2 prologue_end    // kernel/block/hisi-blk-core.c:607:2
	mov	w1, #11
	//DEBUG_VALUE: hisi_blk_requeue_request:rq <- $x0
	bl	hisi_blk_latency_req_check
.Ltmp264:
	.loc	2 609 1                 // kernel/block/hisi-blk-core.c:609:1
	ldp	x29, x30, [sp], #16     // 16-byte Folded Reload
	ret
.Ltmp265:
.Lfunc_end24:
	.size	hisi_blk_requeue_request, .Lfunc_end24-hisi_blk_requeue_request
	.cfi_endproc
                                        // -- End function
	.globl	hisi_blk_request_update // -- Begin function hisi_blk_request_update
	.p2align	2
	.type	hisi_blk_request_update,@function
hisi_blk_request_update:                // @hisi_blk_request_update
.Lfunc_begin25:
	.loc	2 616 0                 // kernel/block/hisi-blk-core.c:616:0
	.cfi_startproc
// %bb.0:
	//DEBUG_VALUE: hisi_blk_request_update:req <- $x0
	//DEBUG_VALUE: hisi_blk_request_update:error <- $w1
	//DEBUG_VALUE: hisi_blk_request_update:nr_bytes <- $w2
	str	x19, [sp, #-32]!        // 8-byte Folded Spill
	stp	x29, x30, [sp, #16]     // 16-byte Folded Spill
	add	x29, sp, #16            // =16
	.cfi_def_cfa w29, 16
	.cfi_offset w30, -8
	.cfi_offset w29, -16
	.cfi_offset w19, -32
.Ltmp266:
	.loc	2 617 50 prologue_end   // kernel/block/hisi-blk-core.c:617:50
	ldr	x8, [x0, #64]
.Ltmp267:
	//DEBUG_VALUE: hisi_blk_get_lld:q <- $x8
	.loc	2 0 50 is_stmt 0        // kernel/block/hisi-blk-core.c:0:50
	mov	x19, x0
	//DEBUG_VALUE: hisi_blk_request_update:nr_bytes <- $w2
.Ltmp268:
	//DEBUG_VALUE: hisi_blk_request_update:error <- undef
	//DEBUG_VALUE: hisi_blk_request_update:req <- $x19
	.loc	2 40 6 is_stmt 1        // kernel/block/hisi-blk-core.c:40:6
	ldr	x9, [x8, #312]
.Ltmp269:
	//DEBUG_VALUE: hisi_blk_request_update:error <- $w1
	.loc	2 40 6 is_stmt 0        // kernel/block/hisi-blk-core.c:40:6
	cbz	x9, .LBB25_9
.Ltmp270:
// %bb.1:
	//DEBUG_VALUE: hisi_blk_request_update:req <- $x19
	//DEBUG_VALUE: hisi_blk_get_lld:q <- $x8
	//DEBUG_VALUE: hisi_blk_request_update:nr_bytes <- $w2
	//DEBUG_VALUE: hisi_blk_request_update:error <- $w1
	.loc	2 41 14 is_stmt 1       // kernel/block/hisi-blk-core.c:41:14
	ldr	x9, [x8, #2944]
	.loc	2 41 11 is_stmt 0       // kernel/block/hisi-blk-core.c:41:11
	add	x8, x8, #1808           // =1808
.Ltmp271:
	add	x10, x9, #16            // =16
.Ltmp272:
.LBB25_2:
	//DEBUG_VALUE: hisi_blk_request_update:req <- $x19
	//DEBUG_VALUE: hisi_blk_request_update:nr_bytes <- $w2
	//DEBUG_VALUE: hisi_blk_request_update:error <- $w1
	.loc	2 0 0                   // kernel/block/hisi-blk-core.c:0:0
	cmp	x9, #0                  // =0
.Ltmp273:
	.loc	2 619 6 is_stmt 1       // kernel/block/hisi-blk-core.c:619:6
	ldrb	w9, [x19, #84]
.Ltmp274:
	.loc	2 0 0 is_stmt 0         // kernel/block/hisi-blk-core.c:0:0
	csel	x8, x8, x10, eq
.Ltmp275:
	//DEBUG_VALUE: hisi_blk_request_update:lld <- $x8
	.loc	2 619 6                 // kernel/block/hisi-blk-core.c:619:6
	cmp	w9, #3                  // =3
	b.eq	.LBB25_7
.Ltmp276:
// %bb.3:
	//DEBUG_VALUE: hisi_blk_request_update:lld <- $x8
	//DEBUG_VALUE: hisi_blk_request_update:req <- $x19
	//DEBUG_VALUE: hisi_blk_request_update:nr_bytes <- $w2
	//DEBUG_VALUE: hisi_blk_request_update:error <- $w1
	.loc	2 622 6 is_stmt 1       // kernel/block/hisi-blk-core.c:622:6
	cmp	w9, #1                  // =1
	b.eq	.LBB25_8
.Ltmp277:
.LBB25_4:
	//DEBUG_VALUE: hisi_blk_request_update:lld <- $x8
	//DEBUG_VALUE: hisi_blk_request_update:req <- $x19
	//DEBUG_VALUE: hisi_blk_request_update:nr_bytes <- $w2
	//DEBUG_VALUE: hisi_blk_request_update:error <- $w1
	.loc	2 625 6                 // kernel/block/hisi-blk-core.c:625:6
	cmp	w9, #2                  // =2
	b.ne	.LBB25_6
.Ltmp278:
.LBB25_5:
	//DEBUG_VALUE: hisi_blk_request_update:lld <- $x8
	//DEBUG_VALUE: hisi_blk_request_update:req <- $x19
	//DEBUG_VALUE: hisi_blk_request_update:nr_bytes <- $w2
	//DEBUG_VALUE: hisi_blk_request_update:error <- $w1
	.loc	2 626 30                // kernel/block/hisi-blk-core.c:626:30
	and	w1, w1, #0xff
.Ltmp279:
	.loc	2 626 3 is_stmt 0       // kernel/block/hisi-blk-core.c:626:3
	mov	x0, x19
	bl	hisi_blk_flush_update
.Ltmp280:
.LBB25_6:
	//DEBUG_VALUE: hisi_blk_request_update:req <- $x19
	.loc	2 628 2 is_stmt 1       // kernel/block/hisi-blk-core.c:628:2
	mov	w1, #13
	mov	x0, x19
	bl	hisi_blk_latency_req_check
	.loc	2 630 1                 // kernel/block/hisi-blk-core.c:630:1
	ldp	x29, x30, [sp, #16]     // 16-byte Folded Reload
	ldr	x19, [sp], #32          // 8-byte Folded Reload
.Ltmp281:
	ret
.LBB25_7:
.Ltmp282:
	//DEBUG_VALUE: hisi_blk_request_update:lld <- $x8
	//DEBUG_VALUE: hisi_blk_request_update:req <- $x19
	//DEBUG_VALUE: hisi_blk_request_update:nr_bytes <- $w2
	//DEBUG_VALUE: hisi_blk_request_update:error <- $w1
	.loc	2 620 20                // kernel/block/hisi-blk-core.c:620:20
	ldr	x9, [x8, #456]
	add	x9, x9, w2, uxtw
	str	x9, [x8, #456]
.Ltmp283:
	.loc	2 622 6                 // kernel/block/hisi-blk-core.c:622:6
	ldrb	w9, [x19, #84]
.Ltmp284:
	.loc	2 622 6 is_stmt 0       // kernel/block/hisi-blk-core.c:622:6
	cmp	w9, #1                  // =1
	b.ne	.LBB25_4
.Ltmp285:
.LBB25_8:
	//DEBUG_VALUE: hisi_blk_request_update:lld <- $x8
	//DEBUG_VALUE: hisi_blk_request_update:req <- $x19
	//DEBUG_VALUE: hisi_blk_request_update:nr_bytes <- $w2
	//DEBUG_VALUE: hisi_blk_request_update:error <- $w1
	.loc	2 623 18 is_stmt 1      // kernel/block/hisi-blk-core.c:623:18
	ldr	x9, [x8, #448]
	add	x9, x9, w2, uxtw
	str	x9, [x8, #448]
.Ltmp286:
	.loc	2 625 6                 // kernel/block/hisi-blk-core.c:625:6
	ldrb	w9, [x19, #84]
.Ltmp287:
	.loc	2 625 6 is_stmt 0       // kernel/block/hisi-blk-core.c:625:6
	cmp	w9, #2                  // =2
	b.eq	.LBB25_5
	b	.LBB25_6
.Ltmp288:
.LBB25_9:
	//DEBUG_VALUE: hisi_blk_request_update:req <- $x19
	//DEBUG_VALUE: hisi_blk_get_lld:q <- $x8
	//DEBUG_VALUE: hisi_blk_request_update:nr_bytes <- $w2
	//DEBUG_VALUE: hisi_blk_request_update:error <- $w1
	.loc	2 43 14 is_stmt 1       // kernel/block/hisi-blk-core.c:43:14
	ldr	x9, [x8, #720]
	.loc	2 43 11 is_stmt 0       // kernel/block/hisi-blk-core.c:43:11
	add	x8, x8, #1808           // =1808
.Ltmp289:
	add	x10, x9, #120           // =120
	b	.LBB25_2
.Ltmp290:
.Lfunc_end25:
	.size	hisi_blk_request_update, .Lfunc_end25-hisi_blk_request_update
	.cfi_endproc
                                        // -- End function
	.globl	hisi_blk_mq_request_free // -- Begin function hisi_blk_mq_request_free
	.p2align	2
	.type	hisi_blk_mq_request_free,@function
hisi_blk_mq_request_free:               // @hisi_blk_mq_request_free
.Lfunc_begin26:
	.loc	2 636 0 is_stmt 1       // kernel/block/hisi-blk-core.c:636:0
	.cfi_startproc
// %bb.0:
	//DEBUG_VALUE: hisi_blk_mq_request_free:rq <- $x0
	//DEBUG_VALUE: hisi_blk_mq_request_free:rq <- $x0
	stp	x29, x30, [sp, #-16]!   // 16-byte Folded Spill
	mov	x29, sp
	.cfi_def_cfa w29, 16
	.cfi_offset w30, -8
	.cfi_offset w29, -16
.Ltmp291:
	.loc	2 639 2 prologue_end    // kernel/block/hisi-blk-core.c:639:2
	orr	w1, wzr, #0xe
	.loc	2 637 27                // kernel/block/hisi-blk-core.c:637:27
	str	xzr, [x0, #416]
	.loc	2 639 2                 // kernel/block/hisi-blk-core.c:639:2
	bl	hisi_blk_latency_req_check
.Ltmp292:
	.loc	2 640 1                 // kernel/block/hisi-blk-core.c:640:1
	ldp	x29, x30, [sp], #16     // 16-byte Folded Reload
	ret
.Ltmp293:
.Lfunc_end26:
	.size	hisi_blk_mq_request_free, .Lfunc_end26-hisi_blk_mq_request_free
	.cfi_endproc
                                        // -- End function
	.globl	hisi_blk_request_put    // -- Begin function hisi_blk_request_put
	.p2align	2
	.type	hisi_blk_request_put,@function
hisi_blk_request_put:                   // @hisi_blk_request_put
.Lfunc_begin27:
	.loc	2 646 0                 // kernel/block/hisi-blk-core.c:646:0
	.cfi_startproc
// %bb.0:
	//DEBUG_VALUE: hisi_blk_request_put:req <- $x0
	//DEBUG_VALUE: hisi_blk_request_put:req <- $x0
	stp	x29, x30, [sp, #-16]!   // 16-byte Folded Spill
	mov	x29, sp
	.cfi_def_cfa w29, 16
	.cfi_offset w30, -8
	.cfi_offset w29, -16
.Ltmp294:
	.loc	2 649 2 prologue_end    // kernel/block/hisi-blk-core.c:649:2
	orr	w1, wzr, #0xe
	.loc	2 647 28                // kernel/block/hisi-blk-core.c:647:28
	str	xzr, [x0, #416]
	.loc	2 649 2                 // kernel/block/hisi-blk-core.c:649:2
	bl	hisi_blk_latency_req_check
.Ltmp295:
	.loc	2 650 1                 // kernel/block/hisi-blk-core.c:650:1
	ldp	x29, x30, [sp], #16     // 16-byte Folded Reload
	ret
.Ltmp296:
.Lfunc_end27:
	.size	hisi_blk_request_put, .Lfunc_end27-hisi_blk_request_put
	.cfi_endproc
                                        // -- End function
	.globl	hisi_blk_check_partition_done // -- Begin function hisi_blk_check_partition_done
	.p2align	2
	.type	hisi_blk_check_partition_done,@function
hisi_blk_check_partition_done:          // @hisi_blk_check_partition_done
.Lfunc_begin28:
	.loc	2 687 0                 // kernel/block/hisi-blk-core.c:687:0
	.cfi_startproc
// %bb.0:
	//DEBUG_VALUE: hisi_blk_check_partition_done:disk <- $x0
	//DEBUG_VALUE: hisi_blk_check_partition_done:disk <- $x0
	.loc	2 688 8 prologue_end    // kernel/block/hisi-blk-core.c:688:8
	ldr	x8, [x0, #1112]
	and	w9, w1, #0x1
.Ltmp297:
	//DEBUG_VALUE: hisi_blk_check_partition_done:has_part_tbl <- $w9
	.loc	2 688 45 is_stmt 0      // kernel/block/hisi-blk-core.c:688:45
	strb	w9, [x8, #1544]
	.loc	2 689 1 is_stmt 1       // kernel/block/hisi-blk-core.c:689:1
	ret
.Ltmp298:
.Lfunc_end28:
	.size	hisi_blk_check_partition_done, .Lfunc_end28-hisi_blk_check_partition_done
	.cfi_endproc
                                        // -- End function
	.globl	hisi_blk_allocated_queue_init // -- Begin function hisi_blk_allocated_queue_init
	.p2align	2
	.type	hisi_blk_allocated_queue_init,@function
hisi_blk_allocated_queue_init:          // @hisi_blk_allocated_queue_init
.Lfunc_begin29:
	.loc	2 695 0                 // kernel/block/hisi-blk-core.c:695:0
	.cfi_startproc
// %bb.0:
	//DEBUG_VALUE: hisi_blk_allocated_queue_init:q <- $x0
	stp	x20, x19, [sp, #-32]!   // 16-byte Folded Spill
	stp	x29, x30, [sp, #16]     // 16-byte Folded Spill
	add	x29, sp, #16            // =16
	.cfi_def_cfa w29, 16
	.cfi_offset w30, -8
	.cfi_offset w29, -16
	.cfi_offset w19, -24
	.cfi_offset w20, -32
.Ltmp299:
	.loc	2 696 32 prologue_end   // kernel/block/hisi-blk-core.c:696:32
	add	x8, x0, #1696           // =1696
.Ltmp300:
	//DEBUG_VALUE: __write_once_size:res <- undef
	.loc	2 0 32 is_stmt 0        // kernel/block/hisi-blk-core.c:0:32
	mov	w9, #122
.Ltmp301:
	//DEBUG_VALUE: __write_once_size:p <- $x8
	//DEBUG_VALUE: __write_once_size:size <- 8
	//DEBUG_VALUE: INIT_LIST_HEAD:list <- $x8
	.loc	2 661 2 is_stmt 1       // kernel/block/hisi-blk-core.c:661:2
	adrp	x1, .L.str.9
	adrp	x2, hisi_blk_dev_lld_init.__key
	mov	x19, x0
.Ltmp302:
	//DEBUG_VALUE: hisi_blk_allocated_queue_init:q <- $x19
	.loc	135 210 31              // kernel/include/linux/compiler.h:210:31
	str	x8, [x0, #1696]
.Ltmp303:
	.loc	136 29 13               // kernel/include/linux/list.h:29:13
	str	x8, [x0, #1704]
.Ltmp304:
	.loc	2 697 35                // kernel/block/hisi-blk-core.c:697:35
	strb	wzr, [x0, #1544]
.Ltmp305:
	//DEBUG_VALUE: hisi_blk_dev_lld_init:data <- $x19
	//DEBUG_VALUE: hisi_blk_dev_lld_init:type <- 0
	//DEBUG_VALUE: hisi_blk_dev_lld_init:blk_lld <- [DW_OP_plus_uconst 1808, DW_OP_stack_value] $x19
	.loc	2 659 22                // kernel/block/hisi-blk-core.c:659:22
	str	w9, [x0, #1808]
	.loc	2 660 21                // kernel/block/hisi-blk-core.c:660:21
	str	wzr, [x0, #2276]
.Ltmp306:
	.loc	2 661 2                 // kernel/block/hisi-blk-core.c:661:2
	add	x0, x0, #2280           // =2280
	add	x1, x1, :lo12:.L.str.9
	add	x2, x2, :lo12:hisi_blk_dev_lld_init.__key
	bl	__raw_spin_lock_init
.Ltmp307:
	.loc	2 663 2                 // kernel/block/hisi-blk-core.c:663:2
	adrp	x1, .L.str.11
	adrp	x2, hisi_blk_dev_lld_init.__key.10
	orr	w8, wzr, #0x1
	add	x0, x19, #2312          // =2312
	add	x1, x1, :lo12:.L.str.11
	add	x2, x2, :lo12:hisi_blk_dev_lld_init.__key.10
.Ltmp308:
	.loc	2 662 23                // kernel/block/hisi-blk-core.c:662:23
	str	w8, [x19, #2304]
.Ltmp309:
	.loc	2 663 2                 // kernel/block/hisi-blk-core.c:663:2
	bl	__raw_spin_lock_init
.Ltmp310:
	.loc	2 667 45                // kernel/block/hisi-blk-core.c:667:45
	add	x20, x19, #1896         // =1896
.Ltmp311:
	.loc	2 664 27                // kernel/block/hisi-blk-core.c:664:27
	add	x8, x19, #2336          // =2336
.Ltmp312:
	//DEBUG_VALUE: __write_once_size:p <- $x8
	//DEBUG_VALUE: __write_once_size:size <- 8
	//DEBUG_VALUE: __write_once_size:res <- undef
	//DEBUG_VALUE: INIT_LIST_HEAD:list <- $x8
	.loc	2 667 6                 // kernel/block/hisi-blk-core.c:667:6
	mov	x0, x20
.Ltmp313:
	.loc	135 210 31              // kernel/include/linux/compiler.h:210:31
	str	x8, [x19, #2336]
.Ltmp314:
	.loc	136 29 13               // kernel/include/linux/list.h:29:13
	str	x8, [x19, #2344]
.Ltmp315:
	.loc	2 665 16                // kernel/block/hisi-blk-core.c:665:16
	str	wzr, [x19, #1812]
	.loc	2 666 16                // kernel/block/hisi-blk-core.c:666:16
	str	x19, [x19, #1816]
.Ltmp316:
	.loc	2 667 6                 // kernel/block/hisi-blk-core.c:667:6
	bl	hisi_blk_busyidle_state_init
.Ltmp317:
	.loc	2 0 0 is_stmt 0         // kernel/block/hisi-blk-core.c:0:0
	ldr	x8, [x19, #1832]
	.loc	2 667 6                 // kernel/block/hisi-blk-core.c:667:6
	cbz	w0, .LBB29_2
.Ltmp318:
// %bb.1:
	//DEBUG_VALUE: hisi_blk_dev_lld_init:blk_lld <- [DW_OP_plus_uconst 1808, DW_OP_stack_value] $x19
	//DEBUG_VALUE: hisi_blk_dev_lld_init:data <- $x19
	//DEBUG_VALUE: hisi_blk_allocated_queue_init:q <- $x19
	.loc	2 668 21 is_stmt 1      // kernel/block/hisi-blk-core.c:668:21
	and	x8, x8, #0xfffffffffffffff7
	str	x8, [x19, #1832]
.Ltmp319:
.LBB29_2:
	//DEBUG_VALUE: hisi_blk_dev_lld_init:blk_lld <- [DW_OP_plus_uconst 1808, DW_OP_stack_value] $x19
	//DEBUG_VALUE: hisi_blk_dev_lld_init:data <- $x19
	//DEBUG_VALUE: hisi_blk_allocated_queue_init:q <- $x19
	.loc	2 669 6                 // kernel/block/hisi-blk-core.c:669:6
	tbz	w8, #6, .LBB29_4
.Ltmp320:
// %bb.3:
	//DEBUG_VALUE: hisi_blk_dev_lld_init:blk_lld <- [DW_OP_plus_uconst 1808, DW_OP_stack_value] $x19
	//DEBUG_VALUE: hisi_blk_dev_lld_init:data <- $x19
	//DEBUG_VALUE: hisi_blk_allocated_queue_init:q <- $x19
	.loc	2 0 6 is_stmt 0         // kernel/block/hisi-blk-core.c:0:6
	orr	w9, wzr, #0x1
.Ltmp321:
	.loc	2 670 39 is_stmt 1      // kernel/block/hisi-blk-core.c:670:39
	strb	w9, [x20]
.Ltmp322:
.LBB29_4:
	//DEBUG_VALUE: hisi_blk_dev_lld_init:blk_lld <- [DW_OP_plus_uconst 1808, DW_OP_stack_value] $x19
	//DEBUG_VALUE: hisi_blk_dev_lld_init:data <- $x19
	//DEBUG_VALUE: hisi_blk_allocated_queue_init:q <- $x19
	.loc	2 675 20                // kernel/block/hisi-blk-core.c:675:20
	and	x8, x8, #0xfffffffffffffe7f
	orr	x8, x8, #0x80
	.loc	2 676 24                // kernel/block/hisi-blk-core.c:676:24
	strb	wzr, [x19, #2272]
	.loc	2 675 20                // kernel/block/hisi-blk-core.c:675:20
	str	x8, [x19, #1832]
	.loc	2 679 17                // kernel/block/hisi-blk-core.c:679:17
	str	xzr, [x19, #2368]
.Ltmp323:
	.loc	2 699 1                 // kernel/block/hisi-blk-core.c:699:1
	ldp	x29, x30, [sp, #16]     // 16-byte Folded Reload
	ldp	x20, x19, [sp], #32     // 16-byte Folded Reload
.Ltmp324:
	ret
.Ltmp325:
.Lfunc_end29:
	.size	hisi_blk_allocated_queue_init, .Lfunc_end29-hisi_blk_allocated_queue_init
	.cfi_endproc
                                        // -- End function
	.globl	hisi_blk_sq_init_allocated_queue // -- Begin function hisi_blk_sq_init_allocated_queue
	.p2align	2
	.type	hisi_blk_sq_init_allocated_queue,@function
hisi_blk_sq_init_allocated_queue:       // @hisi_blk_sq_init_allocated_queue
.Lfunc_begin30:
	.loc	2 713 0                 // kernel/block/hisi-blk-core.c:713:0
	.cfi_startproc
// %bb.0:
	//DEBUG_VALUE: hisi_blk_sq_init_allocated_queue:q <- $x0
	//DEBUG_VALUE: hisi_blk_queue_init_common:q <- $x0
	str	x19, [sp, #-32]!        // 8-byte Folded Spill
	stp	x29, x30, [sp, #16]     // 16-byte Folded Spill
	add	x29, sp, #16            // =16
	.cfi_def_cfa w29, 16
	.cfi_offset w30, -8
	.cfi_offset w29, -16
	.cfi_offset w19, -32
	mov	x19, x0
.Ltmp326:
	//DEBUG_VALUE: hisi_blk_queue_init_common:q <- $x19
	//DEBUG_VALUE: hisi_blk_sq_init_allocated_queue:q <- $x19
	.loc	2 703 2 prologue_end    // kernel/block/hisi-blk-core.c:703:2
	bl	hisi_blk_dump_register_queue
	.loc	2 704 2                 // kernel/block/hisi-blk-core.c:704:2
	mov	x0, x19
	bl	hisi_blk_queue_latency_init
	.loc	2 705 2                 // kernel/block/hisi-blk-core.c:705:2
	mov	x0, x19
	bl	hisi_blk_queue_async_flush_init
.Ltmp327:
	//DEBUG_VALUE: hisi_blk_io_speed_adj_init:q <- $x19
	.loc	2 332 2                 // kernel/block/hisi-blk-core.c:332:2
	add	x0, x19, #1744          // =1744
	mov	w1, wzr
	mov	x2, xzr
	mov	x3, xzr
	.loc	2 329 21                // kernel/block/hisi-blk-core.c:329:21
	str	xzr, [x19, #1736]
	str	xzr, [x19, #1728]
	str	xzr, [x19, #1720]
	str	xzr, [x19, #1712]
	.loc	2 332 2                 // kernel/block/hisi-blk-core.c:332:2
	bl	init_timer_key
	.loc	2 333 53                // kernel/block/hisi-blk-core.c:333:53
	adrp	x8, _cfi_hisi_blk_queue_usr_ctrl_recovery_timer_expire
	add	x8, x8, :lo12:_cfi_hisi_blk_queue_usr_ctrl_recovery_timer_expire
	str	x8, [x19, #1768]
	.loc	2 335 49                // kernel/block/hisi-blk-core.c:335:49
	str	x19, [x19, #1776]
.Ltmp328:
	.loc	2 715 1                 // kernel/block/hisi-blk-core.c:715:1
	ldp	x29, x30, [sp, #16]     // 16-byte Folded Reload
	ldr	x19, [sp], #32          // 8-byte Folded Reload
.Ltmp329:
	ret
.Ltmp330:
.Lfunc_end30:
	.size	hisi_blk_sq_init_allocated_queue, .Lfunc_end30-hisi_blk_sq_init_allocated_queue
	.cfi_endproc
                                        // -- End function
	.globl	hisi_blk_mq_init_allocated_queue // -- Begin function hisi_blk_mq_init_allocated_queue
	.p2align	2
	.type	hisi_blk_mq_init_allocated_queue,@function
hisi_blk_mq_init_allocated_queue:       // @hisi_blk_mq_init_allocated_queue
.Lfunc_begin31:
	.loc	2 721 0                 // kernel/block/hisi-blk-core.c:721:0
	.cfi_startproc
// %bb.0:
	//DEBUG_VALUE: hisi_blk_mq_init_allocated_queue:q <- $x0
	stp	x20, x19, [sp, #-32]!   // 16-byte Folded Spill
	stp	x29, x30, [sp, #16]     // 16-byte Folded Spill
	add	x29, sp, #16            // =16
	.cfi_def_cfa w29, 16
	.cfi_offset w30, -8
	.cfi_offset w29, -16
	.cfi_offset w19, -24
	.cfi_offset w20, -32
.Ltmp331:
	.loc	2 723 34 prologue_end   // kernel/block/hisi-blk-core.c:723:34
	ldr	x20, [x0, #2944]
.Ltmp332:
	//DEBUG_VALUE: hisi_blk_mq_init_allocated_queue:i <- 0
	//DEBUG_VALUE: hisi_blk_mq_init_allocated_queue:set <- $x20
	.loc	2 0 34 is_stmt 0        // kernel/block/hisi-blk-core.c:0:34
	mov	x19, x0
.Ltmp333:
	//DEBUG_VALUE: hisi_blk_mq_init_allocated_queue:q <- $x19
	.loc	2 725 23 is_stmt 1      // kernel/block/hisi-blk-core.c:725:23
	ldr	w8, [x20, #596]
.Ltmp334:
	.loc	2 725 2 is_stmt 0       // kernel/block/hisi-blk-core.c:725:2
	cbz	w8, .LBB31_5
.Ltmp335:
// %bb.1:
	//DEBUG_VALUE: hisi_blk_mq_init_allocated_queue:q <- $x19
	//DEBUG_VALUE: hisi_blk_mq_init_allocated_queue:set <- $x20
	.loc	2 0 2                   // kernel/block/hisi-blk-core.c:0:2
	mov	x9, xzr
.Ltmp336:
.LBB31_2:                               // =>This Inner Loop Header: Depth=1
	//DEBUG_VALUE: hisi_blk_mq_init_allocated_queue:q <- $x19
	//DEBUG_VALUE: hisi_blk_mq_init_allocated_queue:set <- $x20
	//DEBUG_VALUE: hisi_blk_mq_init_allocated_queue:i <- $x9
	.loc	2 726 13 is_stmt 1      // kernel/block/hisi-blk-core.c:726:13
	ldr	x10, [x20, #632]
	.loc	2 726 8 is_stmt 0       // kernel/block/hisi-blk-core.c:726:8
	ldr	x10, [x10, x9, lsl #3]
.Ltmp337:
	.loc	2 726 7                 // kernel/block/hisi-blk-core.c:726:7
	cbz	x10, .LBB31_4
.Ltmp338:
// %bb.3:                               //   in Loop: Header=BB31_2 Depth=1
	//DEBUG_VALUE: hisi_blk_mq_init_allocated_queue:i <- $x9
	//DEBUG_VALUE: hisi_blk_mq_init_allocated_queue:q <- $x19
	//DEBUG_VALUE: hisi_blk_mq_init_allocated_queue:set <- $x20
	.loc	2 728 21 is_stmt 1      // kernel/block/hisi-blk-core.c:728:21
	str	x20, [x10, #24]
.Ltmp339:
	.loc	2 725 23                // kernel/block/hisi-blk-core.c:725:23
	ldr	w8, [x20, #596]
.Ltmp340:
.LBB31_4:                               //   in Loop: Header=BB31_2 Depth=1
	//DEBUG_VALUE: hisi_blk_mq_init_allocated_queue:i <- $x9
	//DEBUG_VALUE: hisi_blk_mq_init_allocated_queue:q <- $x19
	//DEBUG_VALUE: hisi_blk_mq_init_allocated_queue:set <- $x20
	.loc	2 725 38 is_stmt 0      // kernel/block/hisi-blk-core.c:725:38
	add	x9, x9, #1              // =1
.Ltmp341:
	//DEBUG_VALUE: hisi_blk_mq_init_allocated_queue:i <- [DW_OP_plus_uconst 1, DW_OP_stack_value] undef
	.loc	2 725 2                 // kernel/block/hisi-blk-core.c:725:2
	cmp	x9, w8, uxtw
	b.lo	.LBB31_2
.Ltmp342:
.LBB31_5:
	//DEBUG_VALUE: hisi_blk_mq_init_allocated_queue:q <- $x19
	//DEBUG_VALUE: hisi_blk_mq_init_allocated_queue:set <- $x20
	//DEBUG_VALUE: hisi_blk_queue_init_common:q <- $x19
	.loc	2 703 2 is_stmt 1       // kernel/block/hisi-blk-core.c:703:2
	mov	x0, x19
	bl	hisi_blk_dump_register_queue
	.loc	2 704 2                 // kernel/block/hisi-blk-core.c:704:2
	mov	x0, x19
	bl	hisi_blk_queue_latency_init
	.loc	2 705 2                 // kernel/block/hisi-blk-core.c:705:2
	mov	x0, x19
	bl	hisi_blk_queue_async_flush_init
.Ltmp343:
	//DEBUG_VALUE: hisi_blk_io_speed_adj_init:q <- $x19
	.loc	2 332 2                 // kernel/block/hisi-blk-core.c:332:2
	add	x0, x19, #1744          // =1744
	mov	w1, wzr
	mov	x2, xzr
	mov	x3, xzr
	.loc	2 329 21                // kernel/block/hisi-blk-core.c:329:21
	str	xzr, [x19, #1736]
	str	xzr, [x19, #1728]
	str	xzr, [x19, #1720]
	str	xzr, [x19, #1712]
	.loc	2 332 2                 // kernel/block/hisi-blk-core.c:332:2
	bl	init_timer_key
	.loc	2 333 53                // kernel/block/hisi-blk-core.c:333:53
	adrp	x8, _cfi_hisi_blk_queue_usr_ctrl_recovery_timer_expire
	add	x8, x8, :lo12:_cfi_hisi_blk_queue_usr_ctrl_recovery_timer_expire
	str	x8, [x19, #1768]
	.loc	2 335 49                // kernel/block/hisi-blk-core.c:335:49
	str	x19, [x19, #1776]
.Ltmp344:
	.loc	2 734 8                 // kernel/block/hisi-blk-core.c:734:8
	ldr	x8, [x20, #584]
	.loc	2 734 3 is_stmt 0       // kernel/block/hisi-blk-core.c:734:3
	cbz	x8, .LBB31_10
.Ltmp345:
// %bb.6:
	//DEBUG_VALUE: hisi_blk_mq_init_allocated_queue:q <- $x19
	//DEBUG_VALUE: hisi_blk_mq_init_allocated_queue:set <- $x20
	.loc	2 734 48                // kernel/block/hisi-blk-core.c:734:48
	ldr	x8, [x8, #32]
	.loc	2 733 20 is_stmt 1      // kernel/block/hisi-blk-core.c:733:20
	str	x8, [x19, #1800]
.Ltmp346:
	.loc	2 735 24                // kernel/block/hisi-blk-core.c:735:24
	cbz	x8, .LBB31_11
.Ltmp347:
// %bb.7:
	//DEBUG_VALUE: hisi_blk_mq_init_allocated_queue:q <- $x19
	//DEBUG_VALUE: hisi_blk_mq_init_allocated_queue:set <- $x20
	.loc	2 735 46 is_stmt 0      // kernel/block/hisi-blk-core.c:735:46
	ldr	x8, [x8, #8]
.Ltmp348:
	.loc	2 735 6                 // kernel/block/hisi-blk-core.c:735:6
	cbz	x8, .LBB31_11
.Ltmp349:
// %bb.8:
	//DEBUG_VALUE: hisi_blk_mq_init_allocated_queue:q <- $x19
	//DEBUG_VALUE: hisi_blk_mq_init_allocated_queue:set <- $x20
	.loc	2 736 13 is_stmt 1      // kernel/block/hisi-blk-core.c:736:13
	mov	x0, x19
	blr	x8
	.loc	2 738 7                 // kernel/block/hisi-blk-core.c:738:7
	cbz	w0, .LBB31_11
.Ltmp350:
// %bb.9:
	//DEBUG_VALUE: hisi_blk_mq_init_allocated_queue:q <- $x19
	//DEBUG_VALUE: hisi_blk_mq_init_allocated_queue:set <- $x20
	.loc	2 0 0 is_stmt 0         // kernel/block/hisi-blk-core.c:0:0
	mov	w2, w0
.Ltmp351:
	//DEBUG_VALUE: ret <- $w2
	.loc	2 739 4 is_stmt 1       // kernel/block/hisi-blk-core.c:739:4
	adrp	x0, .L.str
	adrp	x1, .L__func__.hisi_blk_mq_init_allocated_queue
	add	x0, x0, :lo12:.L.str
	add	x1, x1, :lo12:.L__func__.hisi_blk_mq_init_allocated_queue
	bl	printk
.Ltmp352:
	.loc	2 0 4 is_stmt 0         // kernel/block/hisi-blk-core.c:0:4
	b	.LBB31_11
.Ltmp353:
.LBB31_10:
	//DEBUG_VALUE: hisi_blk_mq_init_allocated_queue:q <- $x19
	//DEBUG_VALUE: hisi_blk_mq_init_allocated_queue:set <- $x20
	.loc	2 733 20 is_stmt 1      // kernel/block/hisi-blk-core.c:733:20
	str	xzr, [x19, #1800]
.Ltmp354:
.LBB31_11:
	//DEBUG_VALUE: hisi_blk_mq_init_allocated_queue:q <- $x19
	//DEBUG_VALUE: hisi_blk_mq_init_allocated_queue:set <- $x20
	.loc	2 744 1                 // kernel/block/hisi-blk-core.c:744:1
	ldp	x29, x30, [sp, #16]     // 16-byte Folded Reload
	ldp	x20, x19, [sp], #32     // 16-byte Folded Reload
.Ltmp355:
	ret
.Ltmp356:
.Lfunc_end31:
	.size	hisi_blk_mq_init_allocated_queue, .Lfunc_end31-hisi_blk_mq_init_allocated_queue
	.cfi_endproc
                                        // -- End function
	.globl	hisi_blk_mq_free_queue  // -- Begin function hisi_blk_mq_free_queue
	.p2align	2
	.type	hisi_blk_mq_free_queue,@function
hisi_blk_mq_free_queue:                 // @hisi_blk_mq_free_queue
.Lfunc_begin32:
	.loc	2 750 0                 // kernel/block/hisi-blk-core.c:750:0
	.cfi_startproc
// %bb.0:
	//DEBUG_VALUE: hisi_blk_mq_free_queue:q <- $x0
	//DEBUG_VALUE: hisi_blk_mq_free_queue:q <- $x0
	.loc	2 751 9 prologue_end    // kernel/block/hisi-blk-core.c:751:9
	ldr	x8, [x0, #1800]
	.loc	2 751 24 is_stmt 0      // kernel/block/hisi-blk-core.c:751:24
	cbz	x8, .LBB32_3
.Ltmp357:
// %bb.1:
	//DEBUG_VALUE: hisi_blk_mq_free_queue:q <- $x0
	.loc	2 751 46                // kernel/block/hisi-blk-core.c:751:46
	ldr	x8, [x8, #16]
.Ltmp358:
	.loc	2 751 6                 // kernel/block/hisi-blk-core.c:751:6
	cbz	x8, .LBB32_3
.Ltmp359:
// %bb.2:
	//DEBUG_VALUE: hisi_blk_mq_free_queue:q <- $x0
	stp	x29, x30, [sp, #-16]!   // 16-byte Folded Spill
	mov	x29, sp
	.cfi_def_cfa w29, 16
	.cfi_offset w30, -8
	.cfi_offset w29, -16
.Ltmp360:
	.loc	2 752 3 is_stmt 1       // kernel/block/hisi-blk-core.c:752:3
	blr	x8
.Ltmp361:
	.loc	2 0 3 is_stmt 0         // kernel/block/hisi-blk-core.c:0:3
	ldp	x29, x30, [sp], #16     // 16-byte Folded Reload
.Ltmp362:
.LBB32_3:
	.loc	2 754 1 is_stmt 1       // kernel/block/hisi-blk-core.c:754:1
	ret
.Ltmp363:
.Lfunc_end32:
	.size	hisi_blk_mq_free_queue, .Lfunc_end32-hisi_blk_mq_free_queue
	.cfi_endproc
                                        // -- End function
	.globl	hisi_blk_cleanup_queue  // -- Begin function hisi_blk_cleanup_queue
	.p2align	2
	.type	hisi_blk_cleanup_queue,@function
hisi_blk_cleanup_queue:                 // @hisi_blk_cleanup_queue
.Lfunc_begin33:
	.loc	2 760 0                 // kernel/block/hisi-blk-core.c:760:0
	.cfi_startproc
// %bb.0:
	//DEBUG_VALUE: hisi_blk_cleanup_queue:q <- $x0
	str	x19, [sp, #-32]!        // 8-byte Folded Spill
	stp	x29, x30, [sp, #16]     // 16-byte Folded Spill
	add	x29, sp, #16            // =16
	.cfi_def_cfa w29, 16
	.cfi_offset w30, -8
	.cfi_offset w29, -16
	.cfi_offset w19, -32
	mov	x19, x0
.Ltmp364:
	//DEBUG_VALUE: hisi_blk_cleanup_queue:q <- $x19
	.loc	2 761 2 prologue_end    // kernel/block/hisi-blk-core.c:761:2
	bl	hisi_blk_dump_unregister_queue
.Ltmp365:
	//DEBUG_VALUE: hisi_blk_io_speed_adj_deinit:q <- $x19
	.loc	2 323 32                // kernel/block/hisi-blk-core.c:323:32
	add	x0, x19, #1744          // =1744
	.loc	2 323 2 is_stmt 0       // kernel/block/hisi-blk-core.c:323:2
	bl	del_timer_sync
.Ltmp366:
	.loc	2 763 2 is_stmt 1       // kernel/block/hisi-blk-core.c:763:2
	mov	x0, x19
	bl	hisi_blk_flush_reduced_queue_unregister
	.loc	2 764 1                 // kernel/block/hisi-blk-core.c:764:1
	ldp	x29, x30, [sp, #16]     // 16-byte Folded Reload
	ldr	x19, [sp], #32          // 8-byte Folded Reload
.Ltmp367:
	ret
.Ltmp368:
.Lfunc_end33:
	.size	hisi_blk_cleanup_queue, .Lfunc_end33-hisi_blk_cleanup_queue
	.cfi_endproc
                                        // -- End function
	.globl	hisi_blk_allocated_tags_init // -- Begin function hisi_blk_allocated_tags_init
	.p2align	2
	.type	hisi_blk_allocated_tags_init,@function
hisi_blk_allocated_tags_init:           // @hisi_blk_allocated_tags_init
.Lfunc_begin34:
	.loc	2 770 0                 // kernel/block/hisi-blk-core.c:770:0
	.cfi_startproc
// %bb.0:
	//DEBUG_VALUE: hisi_blk_allocated_tags_init:tags <- $x0
	stp	x20, x19, [sp, #-32]!   // 16-byte Folded Spill
	stp	x29, x30, [sp, #16]     // 16-byte Folded Spill
	add	x29, sp, #16            // =16
	.cfi_def_cfa w29, 16
	.cfi_offset w30, -8
	.cfi_offset w29, -16
	.cfi_offset w19, -24
	.cfi_offset w20, -32
.Ltmp369:
	.loc	2 771 2 prologue_end    // kernel/block/hisi-blk-core.c:771:2
	adrp	x1, .L.str.1
	adrp	x2, hisi_blk_allocated_tags_init.__key
	mov	x19, x0
.Ltmp370:
	//DEBUG_VALUE: hisi_blk_allocated_tags_init:tags <- $x19
	add	x0, x0, #40             // =40
	add	x1, x1, :lo12:.L.str.1
	add	x2, x2, :lo12:hisi_blk_allocated_tags_init.__key
	bl	__mutex_init
.Ltmp371:
	.loc	2 772 24                // kernel/block/hisi-blk-core.c:772:24
	add	x8, x19, #104           // =104
.Ltmp372:
	//DEBUG_VALUE: __write_once_size:p <- $x8
	//DEBUG_VALUE: __write_once_size:size <- 8
	//DEBUG_VALUE: __write_once_size:res <- undef
	//DEBUG_VALUE: INIT_LIST_HEAD:list <- $x8
	.loc	2 773 16                // kernel/block/hisi-blk-core.c:773:16
	add	x0, x19, #120           // =120
.Ltmp373:
	//DEBUG_VALUE: hisi_blk_dev_lld_init:blk_lld <- $x0
	.loc	2 773 2 is_stmt 0       // kernel/block/hisi-blk-core.c:773:2
	mov	w2, #568
	mov	w1, wzr
.Ltmp374:
	.loc	135 210 31 is_stmt 1    // kernel/include/linux/compiler.h:210:31
	str	x8, [x19, #104]
.Ltmp375:
	.loc	136 29 13               // kernel/include/linux/list.h:29:13
	str	x8, [x19, #112]
.Ltmp376:
	.loc	2 773 2                 // kernel/block/hisi-blk-core.c:773:2
	bl	memset
.Ltmp377:
	.loc	2 661 2                 // kernel/block/hisi-blk-core.c:661:2
	adrp	x1, .L.str.9
	adrp	x2, hisi_blk_dev_lld_init.__key
	mov	w8, #122
.Ltmp378:
	//DEBUG_VALUE: hisi_blk_dev_lld_init:data <- $x19
	//DEBUG_VALUE: hisi_blk_dev_lld_init:type <- 1
	add	x0, x19, #592           // =592
	add	x1, x1, :lo12:.L.str.9
	add	x2, x2, :lo12:hisi_blk_dev_lld_init.__key
.Ltmp379:
	.loc	2 660 21                // kernel/block/hisi-blk-core.c:660:21
	str	wzr, [x19, #588]
	.loc	2 659 22                // kernel/block/hisi-blk-core.c:659:22
	str	w8, [x19, #120]
.Ltmp380:
	.loc	2 661 2                 // kernel/block/hisi-blk-core.c:661:2
	bl	__raw_spin_lock_init
.Ltmp381:
	.loc	2 663 2                 // kernel/block/hisi-blk-core.c:663:2
	adrp	x1, .L.str.11
	adrp	x2, hisi_blk_dev_lld_init.__key.10
	orr	w20, wzr, #0x1
	add	x0, x19, #624           // =624
	add	x1, x1, :lo12:.L.str.11
	add	x2, x2, :lo12:hisi_blk_dev_lld_init.__key.10
.Ltmp382:
	.loc	2 662 23                // kernel/block/hisi-blk-core.c:662:23
	str	w20, [x19, #616]
.Ltmp383:
	.loc	2 663 2                 // kernel/block/hisi-blk-core.c:663:2
	bl	__raw_spin_lock_init
.Ltmp384:
	.loc	2 664 27                // kernel/block/hisi-blk-core.c:664:27
	add	x8, x19, #648           // =648
.Ltmp385:
	//DEBUG_VALUE: __write_once_size:p <- $x8
	//DEBUG_VALUE: __write_once_size:size <- 8
	//DEBUG_VALUE: __write_once_size:res <- undef
	//DEBUG_VALUE: INIT_LIST_HEAD:list <- $x8
	.loc	135 210 31              // kernel/include/linux/compiler.h:210:31
	str	x8, [x19, #648]
.Ltmp386:
	.loc	2 665 16                // kernel/block/hisi-blk-core.c:665:16
	str	w20, [x19, #124]
.Ltmp387:
	.loc	2 667 45                // kernel/block/hisi-blk-core.c:667:45
	add	x20, x19, #208          // =208
	.loc	2 667 6 is_stmt 0       // kernel/block/hisi-blk-core.c:667:6
	mov	x0, x20
.Ltmp388:
	.loc	136 29 13 is_stmt 1     // kernel/include/linux/list.h:29:13
	str	x8, [x19, #656]
.Ltmp389:
	.loc	2 666 16                // kernel/block/hisi-blk-core.c:666:16
	str	x19, [x19, #128]
.Ltmp390:
	.loc	2 667 6                 // kernel/block/hisi-blk-core.c:667:6
	bl	hisi_blk_busyidle_state_init
.Ltmp391:
	.loc	2 0 0 is_stmt 0         // kernel/block/hisi-blk-core.c:0:0
	ldr	x8, [x19, #144]
	.loc	2 667 6                 // kernel/block/hisi-blk-core.c:667:6
	cbz	w0, .LBB34_2
.Ltmp392:
// %bb.1:
	//DEBUG_VALUE: hisi_blk_dev_lld_init:data <- $x19
	//DEBUG_VALUE: hisi_blk_allocated_tags_init:tags <- $x19
	.loc	2 668 21 is_stmt 1      // kernel/block/hisi-blk-core.c:668:21
	and	x8, x8, #0xfffffffffffffff7
	str	x8, [x19, #144]
.Ltmp393:
.LBB34_2:
	//DEBUG_VALUE: hisi_blk_dev_lld_init:data <- $x19
	//DEBUG_VALUE: hisi_blk_allocated_tags_init:tags <- $x19
	.loc	2 669 6                 // kernel/block/hisi-blk-core.c:669:6
	tbz	w8, #6, .LBB34_4
.Ltmp394:
// %bb.3:
	//DEBUG_VALUE: hisi_blk_dev_lld_init:data <- $x19
	//DEBUG_VALUE: hisi_blk_allocated_tags_init:tags <- $x19
	.loc	2 0 6 is_stmt 0         // kernel/block/hisi-blk-core.c:0:6
	orr	w9, wzr, #0x1
.Ltmp395:
	.loc	2 670 39 is_stmt 1      // kernel/block/hisi-blk-core.c:670:39
	strb	w9, [x20]
.Ltmp396:
.LBB34_4:
	//DEBUG_VALUE: hisi_blk_dev_lld_init:data <- $x19
	//DEBUG_VALUE: hisi_blk_allocated_tags_init:tags <- $x19
	.loc	2 675 20                // kernel/block/hisi-blk-core.c:675:20
	and	x8, x8, #0xfffffffffffffe7f
	orr	x8, x8, #0x80
	.loc	2 676 24                // kernel/block/hisi-blk-core.c:676:24
	strb	wzr, [x19, #584]
	.loc	2 675 20                // kernel/block/hisi-blk-core.c:675:20
	str	x8, [x19, #144]
	.loc	2 679 17                // kernel/block/hisi-blk-core.c:679:17
	str	xzr, [x19, #680]
.Ltmp397:
	.loc	2 776 1                 // kernel/block/hisi-blk-core.c:776:1
	ldp	x29, x30, [sp, #16]     // 16-byte Folded Reload
	ldp	x20, x19, [sp], #32     // 16-byte Folded Reload
.Ltmp398:
	ret
.Ltmp399:
.Lfunc_end34:
	.size	hisi_blk_allocated_tags_init, .Lfunc_end34-hisi_blk_allocated_tags_init
	.cfi_endproc
                                        // -- End function
	.globl	blk_add_queue_tags      // -- Begin function blk_add_queue_tags
	.p2align	2
	.type	blk_add_queue_tags,@function
blk_add_queue_tags:                     // @blk_add_queue_tags
.Lfunc_begin35:
	.loc	2 782 0                 // kernel/block/hisi-blk-core.c:782:0
	.cfi_startproc
// %bb.0:
	//DEBUG_VALUE: blk_add_queue_tags:tags <- $x0
	//DEBUG_VALUE: blk_add_queue_tags:q <- $x1
	str	x21, [sp, #-48]!        // 8-byte Folded Spill
	stp	x20, x19, [sp, #16]     // 16-byte Folded Spill
	stp	x29, x30, [sp, #32]     // 16-byte Folded Spill
	add	x29, sp, #32            // =32
	.cfi_def_cfa w29, 16
	.cfi_offset w30, -8
	.cfi_offset w29, -16
	.cfi_offset w19, -24
	.cfi_offset w20, -32
	.cfi_offset w21, -48
.Ltmp400:
	.loc	2 783 20 prologue_end   // kernel/block/hisi-blk-core.c:783:20
	add	x21, x0, #40            // =40
	mov	x20, x0
.Ltmp401:
	//DEBUG_VALUE: blk_add_queue_tags:q <- $x19
	//DEBUG_VALUE: blk_add_queue_tags:tags <- $x20
	.loc	2 783 2 is_stmt 0       // kernel/block/hisi-blk-core.c:783:2
	mov	x0, x21
	mov	x19, x1
.Ltmp402:
	bl	mutex_lock
.Ltmp403:
	.loc	136 93 24 is_stmt 1     // kernel/include/linux/list.h:93:24
	ldr	x9, [x20, #112]
.Ltmp404:
	.loc	2 784 20                // kernel/block/hisi-blk-core.c:784:20
	add	x8, x19, #2952          // =2952
.Ltmp405:
	//DEBUG_VALUE: list_add_tail:new <- $x8
	.loc	2 784 41 is_stmt 0      // kernel/block/hisi-blk-core.c:784:41
	add	x10, x20, #104          // =104
.Ltmp406:
	//DEBUG_VALUE: list_add_tail:head <- $x10
	//DEBUG_VALUE: __list_add:next <- $x10
	//DEBUG_VALUE: __list_add:prev <- $x9
	//DEBUG_VALUE: __list_add:new <- $x8
	.loc	2 785 2 is_stmt 1       // kernel/block/hisi-blk-core.c:785:2
	mov	x0, x21
.Ltmp407:
	.loc	136 63 13               // kernel/include/linux/list.h:63:13
	str	x8, [x20, #112]
	//DEBUG_VALUE: list_add_tail:new <- $x8
	.loc	136 64 12               // kernel/include/linux/list.h:64:12
	str	x10, [x19, #2952]
	.loc	136 65 12               // kernel/include/linux/list.h:65:12
	str	x9, [x19, #2960]
.Ltmp408:
	//DEBUG_VALUE: __write_once_size:p <- $x9
	//DEBUG_VALUE: __write_once_size:size <- 8
	//DEBUG_VALUE: __write_once_size:res <- undef
	.loc	135 210 31              // kernel/include/linux/compiler.h:210:31
	str	x8, [x9]
.Ltmp409:
	.loc	2 785 2                 // kernel/block/hisi-blk-core.c:785:2
	bl	mutex_unlock
.Ltmp410:
	.loc	2 786 1                 // kernel/block/hisi-blk-core.c:786:1
	ldp	x29, x30, [sp, #32]     // 16-byte Folded Reload
	ldp	x20, x19, [sp, #16]     // 16-byte Folded Reload
.Ltmp411:
	ldr	x21, [sp], #48          // 8-byte Folded Reload
	ret
.Ltmp412:
.Lfunc_end35:
	.size	blk_add_queue_tags, .Lfunc_end35-blk_add_queue_tags
	.cfi_endproc
                                        // -- End function
	.globl	hisi_blk_mq_allocated_tagset_init // -- Begin function hisi_blk_mq_allocated_tagset_init
	.p2align	2
	.type	hisi_blk_mq_allocated_tagset_init,@function
hisi_blk_mq_allocated_tagset_init:      // @hisi_blk_mq_allocated_tagset_init
.Lfunc_begin36:
	.loc	2 792 0                 // kernel/block/hisi-blk-core.c:792:0
	.cfi_startproc
// %bb.0:
	//DEBUG_VALUE: hisi_blk_mq_allocated_tagset_init:set <- $x0
	//DEBUG_VALUE: hisi_blk_dev_lld_init:blk_lld <- [DW_OP_plus_uconst 16, DW_OP_stack_value] $x0
	//DEBUG_VALUE: hisi_blk_dev_lld_init:data <- $x0
	stp	x20, x19, [sp, #-32]!   // 16-byte Folded Spill
	stp	x29, x30, [sp, #16]     // 16-byte Folded Spill
	add	x29, sp, #16            // =16
	.cfi_def_cfa w29, 16
	.cfi_offset w30, -8
	.cfi_offset w29, -16
	.cfi_offset w19, -24
	.cfi_offset w20, -32
	mov	w8, #122
.Ltmp413:
	//DEBUG_VALUE: hisi_blk_dev_lld_init:type <- 2
	//DEBUG_VALUE: hisi_blk_dev_lld_init:data <- $x19
	//DEBUG_VALUE: hisi_blk_dev_lld_init:blk_lld <- [DW_OP_plus_uconst 16, DW_OP_stack_value] $x19
	//DEBUG_VALUE: hisi_blk_mq_allocated_tagset_init:set <- $x19
	.loc	2 661 2 prologue_end    // kernel/block/hisi-blk-core.c:661:2
	adrp	x1, .L.str.9
	adrp	x2, hisi_blk_dev_lld_init.__key
	mov	x19, x0
.Ltmp414:
	.loc	2 660 21                // kernel/block/hisi-blk-core.c:660:21
	str	wzr, [x0, #484]
	.loc	2 659 22                // kernel/block/hisi-blk-core.c:659:22
	str	w8, [x0, #16]
.Ltmp415:
	.loc	2 661 2                 // kernel/block/hisi-blk-core.c:661:2
	add	x0, x0, #488            // =488
	add	x1, x1, :lo12:.L.str.9
	add	x2, x2, :lo12:hisi_blk_dev_lld_init.__key
	bl	__raw_spin_lock_init
.Ltmp416:
	.loc	2 663 2                 // kernel/block/hisi-blk-core.c:663:2
	adrp	x1, .L.str.11
	adrp	x2, hisi_blk_dev_lld_init.__key.10
	orr	w8, wzr, #0x1
	add	x0, x19, #520           // =520
	add	x1, x1, :lo12:.L.str.11
	add	x2, x2, :lo12:hisi_blk_dev_lld_init.__key.10
.Ltmp417:
	.loc	2 662 23                // kernel/block/hisi-blk-core.c:662:23
	str	w8, [x19, #512]
.Ltmp418:
	.loc	2 663 2                 // kernel/block/hisi-blk-core.c:663:2
	bl	__raw_spin_lock_init
.Ltmp419:
	.loc	2 667 45                // kernel/block/hisi-blk-core.c:667:45
	add	x20, x19, #104          // =104
.Ltmp420:
	.loc	2 664 27                // kernel/block/hisi-blk-core.c:664:27
	add	x8, x19, #544           // =544
.Ltmp421:
	//DEBUG_VALUE: __write_once_size:res <- undef
	.loc	2 0 27 is_stmt 0        // kernel/block/hisi-blk-core.c:0:27
	orr	w9, wzr, #0x2
.Ltmp422:
	//DEBUG_VALUE: __write_once_size:p <- $x8
	//DEBUG_VALUE: __write_once_size:size <- 8
	//DEBUG_VALUE: INIT_LIST_HEAD:list <- $x8
	.loc	2 667 6 is_stmt 1       // kernel/block/hisi-blk-core.c:667:6
	mov	x0, x20
.Ltmp423:
	.loc	135 210 31              // kernel/include/linux/compiler.h:210:31
	str	x8, [x19, #544]
.Ltmp424:
	.loc	136 29 13               // kernel/include/linux/list.h:29:13
	str	x8, [x19, #552]
.Ltmp425:
	.loc	2 665 16                // kernel/block/hisi-blk-core.c:665:16
	str	w9, [x19, #20]
	.loc	2 666 16                // kernel/block/hisi-blk-core.c:666:16
	str	x19, [x19, #24]
.Ltmp426:
	.loc	2 667 6                 // kernel/block/hisi-blk-core.c:667:6
	bl	hisi_blk_busyidle_state_init
.Ltmp427:
	.loc	2 0 0 is_stmt 0         // kernel/block/hisi-blk-core.c:0:0
	ldr	x8, [x19, #40]
	.loc	2 667 6                 // kernel/block/hisi-blk-core.c:667:6
	cbz	w0, .LBB36_2
// %bb.1:
.Ltmp428:
	.loc	2 668 21 is_stmt 1      // kernel/block/hisi-blk-core.c:668:21
	and	x8, x8, #0xfffffffffffffff7
	str	x8, [x19, #40]
.Ltmp429:
.LBB36_2:
	.loc	2 669 6                 // kernel/block/hisi-blk-core.c:669:6
	tbz	w8, #6, .LBB36_4
// %bb.3:
	.loc	2 0 6 is_stmt 0         // kernel/block/hisi-blk-core.c:0:6
	orr	w9, wzr, #0x1
.Ltmp430:
	.loc	2 670 39 is_stmt 1      // kernel/block/hisi-blk-core.c:670:39
	strb	w9, [x20]
.Ltmp431:
.LBB36_4:
	.loc	2 0 39 is_stmt 0        // kernel/block/hisi-blk-core.c:0:39
	adrp	x10, hisi_ufs_blk_tagset_ops
	.loc	2 675 20 is_stmt 1      // kernel/block/hisi-blk-core.c:675:20
	and	x9, x8, #0xfffffffffffffe7f
.Ltmp432:
	.loc	2 798 29                // kernel/block/hisi-blk-core.c:798:29
	lsl	x8, x8, #58
	add	x10, x10, :lo12:hisi_ufs_blk_tagset_ops
.Ltmp433:
	.loc	2 675 20                // kernel/block/hisi-blk-core.c:675:20
	orr	x9, x9, #0x80
	and	x8, x10, x8, asr #63
	.loc	2 676 24                // kernel/block/hisi-blk-core.c:676:24
	strb	wzr, [x19, #480]
	.loc	2 679 17                // kernel/block/hisi-blk-core.c:679:17
	str	xzr, [x19, #576]
	.loc	2 675 20                // kernel/block/hisi-blk-core.c:675:20
	str	x9, [x19, #40]
.Ltmp434:
	.loc	2 0 0 is_stmt 0         // kernel/block/hisi-blk-core.c:0:0
	str	x8, [x19, #584]
.Ltmp435:
	.loc	2 802 1 is_stmt 1       // kernel/block/hisi-blk-core.c:802:1
	ldp	x29, x30, [sp, #16]     // 16-byte Folded Reload
	ldp	x20, x19, [sp], #32     // 16-byte Folded Reload
	ret
.Ltmp436:
.Lfunc_end36:
	.size	hisi_blk_mq_allocated_tagset_init, .Lfunc_end36-hisi_blk_mq_allocated_tagset_init
	.cfi_endproc
                                        // -- End function
	.globl	hisi_blk_queue_register // -- Begin function hisi_blk_queue_register
	.p2align	2
	.type	hisi_blk_queue_register,@function
hisi_blk_queue_register:                // @hisi_blk_queue_register
.Lfunc_begin37:
	.loc	2 809 0                 // kernel/block/hisi-blk-core.c:809:0
	.cfi_startproc
// %bb.0:
	//DEBUG_VALUE: hisi_blk_queue_register:q <- $x0
	//DEBUG_VALUE: hisi_blk_queue_register:q <- $x0
	//DEBUG_VALUE: hisi_blk_queue_register:disk <- $x1
	//DEBUG_VALUE: hisi_blk_queue_register:disk <- $x1
	.loc	2 810 27 prologue_end   // kernel/block/hisi-blk-core.c:810:27
	str	x1, [x0, #1536]
	.loc	2 811 1                 // kernel/block/hisi-blk-core.c:811:1
	ret
.Ltmp437:
.Lfunc_end37:
	.size	hisi_blk_queue_register, .Lfunc_end37-hisi_blk_queue_register
	.cfi_endproc
                                        // -- End function
	.section	.init.text,"ax",@progbits
	.globl	hisi_blk_dev_init       // -- Begin function hisi_blk_dev_init
	.p2align	2
	.type	hisi_blk_dev_init,@function
hisi_blk_dev_init:                      // @hisi_blk_dev_init
.Lfunc_begin38:
	.loc	2 817 0                 // kernel/block/hisi-blk-core.c:817:0
	.cfi_startproc
// %bb.0:
	stp	x29, x30, [sp, #-16]!   // 16-byte Folded Spill
	mov	x29, sp
	.cfi_def_cfa w29, 16
	.cfi_offset w30, -8
	.cfi_offset w29, -16
.Ltmp438:
	.loc	2 818 2 prologue_end    // kernel/block/hisi-blk-core.c:818:2
	bl	hisi_blk_dump_init
	.loc	2 819 2                 // kernel/block/hisi-blk-core.c:819:2
	bl	hisi_blk_latency_init
	.loc	2 820 2                 // kernel/block/hisi-blk-core.c:820:2
	bl	hisi_blk_dsm_init
	.loc	2 821 2                 // kernel/block/hisi-blk-core.c:821:2
	mov	w0, wzr
	ldp	x29, x30, [sp], #16     // 16-byte Folded Reload
	ret
.Ltmp439:
.Lfunc_end38:
	.size	hisi_blk_dev_init, .Lfunc_end38-hisi_blk_dev_init
	.cfi_endproc
                                        // -- End function
	.text
	.globl	blk_write_throttle      // -- Begin function blk_write_throttle
	.p2align	2
	.type	blk_write_throttle,@function
blk_write_throttle:                     // @blk_write_throttle
.Lfunc_begin39:
	.loc	2 825 0                 // kernel/block/hisi-blk-core.c:825:0
	.cfi_startproc
// %bb.0:
	//DEBUG_VALUE: blk_write_throttle:queue <- $x0
	//DEBUG_VALUE: blk_write_throttle:queue <- $x0
	//DEBUG_VALUE: blk_write_throttle:level <- $w1
	//DEBUG_VALUE: blk_write_throttle:level <- $w1
	.loc	2 826 12 prologue_end   // kernel/block/hisi-blk-core.c:826:12
	cbz	x0, .LBB39_4
.Ltmp440:
// %bb.1:
	//DEBUG_VALUE: blk_write_throttle:level <- $w1
	//DEBUG_VALUE: blk_write_throttle:queue <- $x0
	.loc	2 826 22 is_stmt 0      // kernel/block/hisi-blk-core.c:826:22
	ldr	x8, [x0, #1800]
	.loc	2 826 37                // kernel/block/hisi-blk-core.c:826:37
	cbz	x8, .LBB39_4
.Ltmp441:
// %bb.2:
	//DEBUG_VALUE: blk_write_throttle:level <- $w1
	//DEBUG_VALUE: blk_write_throttle:queue <- $x0
	.loc	2 827 29 is_stmt 1      // kernel/block/hisi-blk-core.c:827:29
	ldr	x8, [x8, #152]
.Ltmp442:
	.loc	2 826 6                 // kernel/block/hisi-blk-core.c:826:6
	cbz	x8, .LBB39_4
.Ltmp443:
// %bb.3:
	//DEBUG_VALUE: blk_write_throttle:level <- $w1
	//DEBUG_VALUE: blk_write_throttle:queue <- $x0
	stp	x29, x30, [sp, #-16]!   // 16-byte Folded Spill
	mov	x29, sp
	.cfi_def_cfa w29, 16
	.cfi_offset w30, -8
	.cfi_offset w29, -16
.Ltmp444:
	.loc	2 828 55                // kernel/block/hisi-blk-core.c:828:55
	cmp	w1, #0                  // =0
	cset	w1, ne
.Ltmp445:
	.loc	2 828 3 is_stmt 0       // kernel/block/hisi-blk-core.c:828:3
	blr	x8
.Ltmp446:
	.loc	2 0 3                   // kernel/block/hisi-blk-core.c:0:3
	ldp	x29, x30, [sp], #16     // 16-byte Folded Reload
.Ltmp447:
.LBB39_4:
	.loc	2 829 1 is_stmt 1       // kernel/block/hisi-blk-core.c:829:1
	ret
.Ltmp448:
.Lfunc_end39:
	.size	blk_write_throttle, .Lfunc_end39-blk_write_throttle
	.cfi_endproc
                                        // -- End function
	.globl	blk_generic_freeze      // -- Begin function blk_generic_freeze
	.p2align	2
	.type	blk_generic_freeze,@function
blk_generic_freeze:                     // @blk_generic_freeze
.Lfunc_begin40:
	.loc	2 837 0                 // kernel/block/hisi-blk-core.c:837:0
	.cfi_startproc
// %bb.0:
	//DEBUG_VALUE: blk_generic_freeze:freeze_obj <- $x0
	//DEBUG_VALUE: blk_generic_freeze:type <- $w1
	//DEBUG_VALUE: blk_generic_freeze:type <- $w1
	//DEBUG_VALUE: blk_generic_freeze:freeze_obj <- $x0
	str	x21, [sp, #-48]!        // 8-byte Folded Spill
	stp	x20, x19, [sp, #16]     // 16-byte Folded Spill
	stp	x29, x30, [sp, #32]     // 16-byte Folded Spill
	add	x29, sp, #32            // =32
	.cfi_def_cfa w29, 16
	.cfi_offset w30, -8
	.cfi_offset w29, -16
	.cfi_offset w19, -24
	.cfi_offset w20, -32
	.cfi_offset w21, -48
.Ltmp449:
	//DEBUG_VALUE: blk_generic_freeze:lld <- 0
	//DEBUG_VALUE: blk_generic_freeze:q <- 0
	.loc	2 841 6 prologue_end    // kernel/block/hisi-blk-core.c:841:6
	cbz	x0, .LBB40_18
.Ltmp450:
// %bb.1:
	//DEBUG_VALUE: blk_generic_freeze:type <- $w1
	//DEBUG_VALUE: blk_generic_freeze:freeze_obj <- $x0
	.loc	2 0 6 is_stmt 0         // kernel/block/hisi-blk-core.c:0:6
	mov	w19, w2
	.loc	2 846 2 is_stmt 1       // kernel/block/hisi-blk-core.c:846:2
	cmp	w1, #1                  // =1
	b.eq	.LBB40_8
.Ltmp451:
// %bb.2:
	//DEBUG_VALUE: blk_generic_freeze:type <- $w1
	//DEBUG_VALUE: blk_generic_freeze:freeze_obj <- $x0
	cbnz	w1, .LBB40_18
.Ltmp452:
// %bb.3:
	//DEBUG_VALUE: blk_generic_freeze:type <- $w1
	//DEBUG_VALUE: blk_generic_freeze:freeze_obj <- $x0
	//DEBUG_VALUE: blk_generic_freeze:lld <- $x0
	//DEBUG_VALUE: hisi_blk_freeze_lld:lld <- $x0
	//DEBUG_VALUE: hisi_blk_freeze_lld:q <- 0
	//DEBUG_VALUE: hisi_blk_freeze_lld:tag_set <- 0
	.loc	2 54 15                 // kernel/block/hisi-blk-core.c:54:15
	ldr	w8, [x0, #4]
	.loc	2 54 2 is_stmt 0        // kernel/block/hisi-blk-core.c:54:2
	cmp	w8, #2                  // =2
	b.eq	.LBB40_11
.Ltmp453:
// %bb.4:
	//DEBUG_VALUE: hisi_blk_freeze_lld:lld <- $x0
	//DEBUG_VALUE: blk_generic_freeze:lld <- $x0
	//DEBUG_VALUE: blk_generic_freeze:type <- $w1
	//DEBUG_VALUE: blk_generic_freeze:freeze_obj <- $x0
	cbnz	w8, .LBB40_18
.Ltmp454:
// %bb.5:
	//DEBUG_VALUE: hisi_blk_freeze_lld:lld <- $x0
	//DEBUG_VALUE: blk_generic_freeze:lld <- $x0
	//DEBUG_VALUE: blk_generic_freeze:type <- $w1
	//DEBUG_VALUE: blk_generic_freeze:freeze_obj <- $x0
	//DEBUG_VALUE: blk_generic_freeze:lld <- $x0
	//DEBUG_VALUE: hisi_blk_freeze_lld:lld <- $x0
	.loc	2 56 37 is_stmt 1       // kernel/block/hisi-blk-core.c:56:37
	ldr	x0, [x0, #8]
.Ltmp455:
	//DEBUG_VALUE: hisi_blk_freeze_lld:q <- $x0
	.loc	2 57 11                 // kernel/block/hisi-blk-core.c:57:11
	ldr	x8, [x0, #312]
.Ltmp456:
	.loc	2 57 7 is_stmt 0        // kernel/block/hisi-blk-core.c:57:7
	cbz	x8, .LBB40_18
.Ltmp457:
// %bb.6:
	//DEBUG_VALUE: hisi_blk_freeze_lld:q <- $x0
	//DEBUG_VALUE: blk_generic_freeze:type <- $w1
	.loc	2 60 7 is_stmt 1        // kernel/block/hisi-blk-core.c:60:7
	tbnz	w19, #0, .LBB40_10
.Ltmp458:
.LBB40_7:
	//DEBUG_VALUE: blk_generic_freeze:type <- $w1
	.loc	2 0 0 is_stmt 0         // kernel/block/hisi-blk-core.c:0:0
	bl	blk_mq_unfreeze_queue
.Ltmp459:
	b	.LBB40_18
.LBB40_8:
.Ltmp460:
	//DEBUG_VALUE: blk_generic_freeze:type <- $w1
	//DEBUG_VALUE: blk_generic_freeze:freeze_obj <- $x0
	//DEBUG_VALUE: blk_generic_freeze:q <- $x0
	.loc	2 853 10 is_stmt 1      // kernel/block/hisi-blk-core.c:853:10
	ldr	x8, [x0, #312]
.Ltmp461:
	.loc	2 853 7 is_stmt 0       // kernel/block/hisi-blk-core.c:853:7
	cbz	x8, .LBB40_18
.Ltmp462:
// %bb.9:
	//DEBUG_VALUE: blk_generic_freeze:q <- $x0
	//DEBUG_VALUE: blk_generic_freeze:type <- $w1
	//DEBUG_VALUE: blk_generic_freeze:freeze_obj <- $x0
	.loc	2 854 8 is_stmt 1       // kernel/block/hisi-blk-core.c:854:8
	tbz	w19, #0, .LBB40_7
.Ltmp463:
.LBB40_10:
	//DEBUG_VALUE: blk_generic_freeze:type <- $w1
	.loc	2 0 0 is_stmt 0         // kernel/block/hisi-blk-core.c:0:0
	bl	blk_mq_freeze_queue
.Ltmp464:
	b	.LBB40_18
.LBB40_11:
.Ltmp465:
	//DEBUG_VALUE: hisi_blk_freeze_lld:lld <- $x0
	//DEBUG_VALUE: blk_generic_freeze:lld <- $x0
	//DEBUG_VALUE: blk_generic_freeze:type <- $w1
	//DEBUG_VALUE: blk_generic_freeze:freeze_obj <- $x0
	.loc	2 68 44 is_stmt 1       // kernel/block/hisi-blk-core.c:68:44
	ldr	x8, [x0, #8]
.Ltmp466:
	//DEBUG_VALUE: hisi_blk_freeze_lld:tag_set <- $x8
	.loc	2 0 0 is_stmt 0         // kernel/block/hisi-blk-core.c:0:0
	ldr	x20, [x8, #704]
.Ltmp467:
	//DEBUG_VALUE: hisi_blk_freeze_lld:q <- [DW_OP_constu 2952, DW_OP_minus, DW_OP_stack_value] $x20
	.loc	2 69 3 is_stmt 1        // kernel/block/hisi-blk-core.c:69:3
	add	x21, x8, #704           // =704
.Ltmp468:
	//DEBUG_VALUE: __mptr <- undef
	.loc	2 69 3 is_stmt 0        // kernel/block/hisi-blk-core.c:69:3
	cmp	x21, x20
	b.eq	.LBB40_18
.Ltmp469:
.LBB40_12:                              // =>This Inner Loop Header: Depth=1
	//DEBUG_VALUE: hisi_blk_freeze_lld:q <- [DW_OP_constu 2952, DW_OP_minus, DW_OP_stack_value] $x20
	//DEBUG_VALUE: hisi_blk_freeze_lld:tag_set <- $x8
	//DEBUG_VALUE: hisi_blk_freeze_lld:lld <- $x0
	//DEBUG_VALUE: blk_generic_freeze:lld <- $x0
	//DEBUG_VALUE: blk_generic_freeze:type <- $w1
	//DEBUG_VALUE: blk_generic_freeze:freeze_obj <- $x0
	.loc	2 0 0                   // kernel/block/hisi-blk-core.c:0:0
	subs	x0, x20, #2952          // =2952
.Ltmp470:
	//DEBUG_VALUE: blk_generic_freeze:lld <- 0
	//DEBUG_VALUE: blk_generic_freeze:type <- 1
	//DEBUG_VALUE: blk_generic_freeze:freeze_obj <- $x0
	//DEBUG_VALUE: blk_generic_freeze:q <- 0
	//DEBUG_VALUE: hisi_blk_freeze_lld:q <- $x0
	.loc	2 841 6 is_stmt 1       // kernel/block/hisi-blk-core.c:841:6
	b.eq	.LBB40_17
.Ltmp471:
// %bb.13:                              //   in Loop: Header=BB40_12 Depth=1
	//DEBUG_VALUE: blk_generic_freeze:freeze_obj <- $x0
	//DEBUG_VALUE: hisi_blk_freeze_lld:tag_set <- $x8
	//DEBUG_VALUE: hisi_blk_freeze_lld:q <- $x0
	//DEBUG_VALUE: blk_generic_freeze:type <- $w1
	.loc	2 853 10                // kernel/block/hisi-blk-core.c:853:10
	sub	x8, x20, #2640          // =2640
.Ltmp472:
	ldr	x8, [x8]
.Ltmp473:
	.loc	2 853 7 is_stmt 0       // kernel/block/hisi-blk-core.c:853:7
	cbz	x8, .LBB40_17
.Ltmp474:
// %bb.14:                              //   in Loop: Header=BB40_12 Depth=1
	//DEBUG_VALUE: blk_generic_freeze:freeze_obj <- $x0
	//DEBUG_VALUE: hisi_blk_freeze_lld:q <- $x0
	//DEBUG_VALUE: blk_generic_freeze:type <- $w1
	.loc	2 854 8 is_stmt 1       // kernel/block/hisi-blk-core.c:854:8
	tbz	w19, #0, .LBB40_16
.Ltmp475:
// %bb.15:                              //   in Loop: Header=BB40_12 Depth=1
	//DEBUG_VALUE: blk_generic_freeze:freeze_obj <- $x0
	//DEBUG_VALUE: hisi_blk_freeze_lld:q <- $x0
	//DEBUG_VALUE: blk_generic_freeze:type <- $w1
	.loc	2 855 5                 // kernel/block/hisi-blk-core.c:855:5
	bl	blk_mq_freeze_queue
.Ltmp476:
	//DEBUG_VALUE: __mptr <- undef
	.loc	2 0 0 is_stmt 0         // kernel/block/hisi-blk-core.c:0:0
	ldr	x20, [x20]
	//DEBUG_VALUE: __mptr <- undef
	.loc	2 69 3 is_stmt 1        // kernel/block/hisi-blk-core.c:69:3
	cmp	x21, x20
	b.ne	.LBB40_12
	b	.LBB40_18
.LBB40_16:                              //   in Loop: Header=BB40_12 Depth=1
.Ltmp477:
	//DEBUG_VALUE: blk_generic_freeze:freeze_obj <- $x0
	//DEBUG_VALUE: hisi_blk_freeze_lld:q <- $x0
	//DEBUG_VALUE: blk_generic_freeze:type <- $w1
	.loc	2 857 5                 // kernel/block/hisi-blk-core.c:857:5
	bl	blk_mq_unfreeze_queue
.Ltmp478:
.LBB40_17:                              //   in Loop: Header=BB40_12 Depth=1
	//DEBUG_VALUE: __mptr <- undef
	.loc	2 0 0 is_stmt 0         // kernel/block/hisi-blk-core.c:0:0
	ldr	x20, [x20]
	//DEBUG_VALUE: __mptr <- undef
	.loc	2 69 3 is_stmt 1        // kernel/block/hisi-blk-core.c:69:3
	cmp	x21, x20
	b.ne	.LBB40_12
.Ltmp479:
.LBB40_18:
	.loc	2 864 1                 // kernel/block/hisi-blk-core.c:864:1
	ldp	x29, x30, [sp, #32]     // 16-byte Folded Reload
	ldp	x20, x19, [sp, #16]     // 16-byte Folded Reload
	ldr	x21, [sp], #48          // 8-byte Folded Reload
	ret
.Ltmp480:
.Lfunc_end40:
	.size	blk_generic_freeze, .Lfunc_end40-blk_generic_freeze
	.cfi_endproc
                                        // -- End function
	.globl	blk_dev_write_order_preserved // -- Begin function blk_dev_write_order_preserved
	.p2align	2
	.type	blk_dev_write_order_preserved,@function
blk_dev_write_order_preserved:          // @blk_dev_write_order_preserved
.Lfunc_begin41:
	.loc	2 867 0                 // kernel/block/hisi-blk-core.c:867:0
	.cfi_startproc
// %bb.0:
	//DEBUG_VALUE: blk_dev_write_order_preserved:bdev <- $x0
	//DEBUG_VALUE: blk_dev_write_order_preserved:bdev <- $x0
	//DEBUG_VALUE: blk_dev_write_order_preserved:q <- 0
	//DEBUG_VALUE: blk_dev_write_order_preserved:lld <- 0
	.loc	2 871 6 prologue_end    // kernel/block/hisi-blk-core.c:871:6
	cbz	x0, .LBB41_6
.Ltmp481:
// %bb.1:
	//DEBUG_VALUE: blk_dev_write_order_preserved:bdev <- $x0
	ldr	x8, [x0, #160]
	cbz	x8, .LBB41_7
.Ltmp482:
// %bb.2:
	//DEBUG_VALUE: blk_dev_write_order_preserved:bdev <- $x0
	ldr	x8, [x8, #1112]
.Ltmp483:
	//DEBUG_VALUE: hisi_blk_get_lld:q <- $x8
	//DEBUG_VALUE: blk_dev_write_order_preserved:q <- $x8
	.loc	2 871 6 is_stmt 0       // kernel/block/hisi-blk-core.c:871:6
	cbz	x8, .LBB41_8
.Ltmp484:
// %bb.3:
	//DEBUG_VALUE: blk_dev_write_order_preserved:q <- $x8
	//DEBUG_VALUE: hisi_blk_get_lld:q <- $x8
	//DEBUG_VALUE: blk_dev_write_order_preserved:bdev <- $x0
	.loc	2 40 6 is_stmt 1        // kernel/block/hisi-blk-core.c:40:6
	ldr	x9, [x8, #312]
.Ltmp485:
	.loc	2 40 6 is_stmt 0        // kernel/block/hisi-blk-core.c:40:6
	cbz	x9, .LBB41_9
.Ltmp486:
// %bb.4:
	//DEBUG_VALUE: blk_dev_write_order_preserved:q <- $x8
	//DEBUG_VALUE: hisi_blk_get_lld:q <- $x8
	//DEBUG_VALUE: blk_dev_write_order_preserved:bdev <- $x0
	.loc	2 41 14 is_stmt 1       // kernel/block/hisi-blk-core.c:41:14
	ldr	x9, [x8, #2944]
	.loc	2 41 11 is_stmt 0       // kernel/block/hisi-blk-core.c:41:11
	add	x8, x8, #1808           // =1808
.Ltmp487:
	add	x10, x9, #16            // =16
.Ltmp488:
.LBB41_5:
	//DEBUG_VALUE: blk_dev_write_order_preserved:bdev <- $x0
	.loc	2 0 0                   // kernel/block/hisi-blk-core.c:0:0
	cmp	x9, #0                  // =0
	csel	x8, x8, x10, eq
.Ltmp489:
	//DEBUG_VALUE: blk_dev_write_order_preserved:lld <- $x8
	.loc	2 877 9 is_stmt 1       // kernel/block/hisi-blk-core.c:877:9
	ldrb	w8, [x8, #25]
.Ltmp490:
	and	w0, w8, #0x1
.Ltmp491:
.LBB41_6:
	.loc	2 878 1                 // kernel/block/hisi-blk-core.c:878:1
	ret
.LBB41_7:
.Ltmp492:
	//DEBUG_VALUE: blk_dev_write_order_preserved:bdev <- $x0
	.loc	2 0 0 is_stmt 0         // kernel/block/hisi-blk-core.c:0:0
	mov	w0, wzr
.Ltmp493:
	.loc	2 878 1                 // kernel/block/hisi-blk-core.c:878:1
	ret
.LBB41_8:
.Ltmp494:
	//DEBUG_VALUE: blk_dev_write_order_preserved:q <- $x8
	//DEBUG_VALUE: blk_dev_write_order_preserved:bdev <- $x0
	.loc	2 0 0                   // kernel/block/hisi-blk-core.c:0:0
	mov	w0, wzr
.Ltmp495:
	.loc	2 878 1                 // kernel/block/hisi-blk-core.c:878:1
	ret
.Ltmp496:
.LBB41_9:
	//DEBUG_VALUE: blk_dev_write_order_preserved:q <- $x8
	//DEBUG_VALUE: hisi_blk_get_lld:q <- $x8
	//DEBUG_VALUE: blk_dev_write_order_preserved:bdev <- $x0
	.loc	2 43 14 is_stmt 1       // kernel/block/hisi-blk-core.c:43:14
	ldr	x9, [x8, #720]
	.loc	2 43 11 is_stmt 0       // kernel/block/hisi-blk-core.c:43:11
	add	x8, x8, #1808           // =1808
.Ltmp497:
	add	x10, x9, #120           // =120
	b	.LBB41_5
.Ltmp498:
.Lfunc_end41:
	.size	blk_dev_write_order_preserved, .Lfunc_end41-blk_dev_write_order_preserved
	.cfi_endproc
                                        // -- End function
	.globl	blk_req_set_make_req_nr // -- Begin function blk_req_set_make_req_nr
	.p2align	2
	.type	blk_req_set_make_req_nr,@function
blk_req_set_make_req_nr:                // @blk_req_set_make_req_nr
.Lfunc_begin42:
	.loc	2 882 0 is_stmt 1       // kernel/block/hisi-blk-core.c:882:0
	.cfi_startproc
// %bb.0:
	//DEBUG_VALUE: blk_req_set_make_req_nr:req <- $x0
	str	x21, [sp, #-48]!        // 8-byte Folded Spill
	stp	x20, x19, [sp, #16]     // 16-byte Folded Spill
	stp	x29, x30, [sp, #32]     // 16-byte Folded Spill
	add	x29, sp, #32            // =32
	.cfi_def_cfa w29, 16
	.cfi_offset w30, -8
	.cfi_offset w29, -16
	.cfi_offset w19, -24
	.cfi_offset w20, -32
	.cfi_offset w21, -48
.Ltmp499:
	.loc	2 884 50 prologue_end   // kernel/block/hisi-blk-core.c:884:50
	ldr	x8, [x0, #64]
.Ltmp500:
	//DEBUG_VALUE: hisi_blk_get_lld:q <- $x8
	.loc	2 0 50 is_stmt 0        // kernel/block/hisi-blk-core.c:0:50
	mov	x19, x0
.Ltmp501:
	//DEBUG_VALUE: blk_req_set_make_req_nr:flags <- 0
	//DEBUG_VALUE: blk_req_set_make_req_nr:req <- $x19
	.loc	2 40 6 is_stmt 1        // kernel/block/hisi-blk-core.c:40:6
	ldr	x9, [x8, #312]
.Ltmp502:
	.loc	2 40 6 is_stmt 0        // kernel/block/hisi-blk-core.c:40:6
	cbz	x9, .LBB42_6
.Ltmp503:
// %bb.1:
	//DEBUG_VALUE: blk_req_set_make_req_nr:req <- $x19
	//DEBUG_VALUE: hisi_blk_get_lld:q <- $x8
	.loc	2 41 14 is_stmt 1       // kernel/block/hisi-blk-core.c:41:14
	ldr	x9, [x8, #2944]
	.loc	2 41 11 is_stmt 0       // kernel/block/hisi-blk-core.c:41:11
	add	x8, x8, #1808           // =1808
.Ltmp504:
	add	x10, x9, #16            // =16
.Ltmp505:
.LBB42_2:
	//DEBUG_VALUE: blk_req_set_make_req_nr:req <- $x19
	.loc	2 0 0                   // kernel/block/hisi-blk-core.c:0:0
	cmp	x9, #0                  // =0
	csel	x21, x8, x10, eq
.Ltmp506:
	//DEBUG_VALUE: spin_unlock_irqrestore:lock <- [DW_OP_plus_uconst 504, DW_OP_stack_value] $x21
	//DEBUG_VALUE: spinlock_check:lock <- [DW_OP_plus_uconst 504, DW_OP_stack_value] $x21
	//DEBUG_VALUE: blk_req_set_make_req_nr:lld <- $x21
	.loc	2 886 6 is_stmt 1       // kernel/block/hisi-blk-core.c:886:6
	ldrb	w8, [x21, #25]
	tbz	w8, #0, .LBB42_5
.Ltmp507:
// %bb.3:
	//DEBUG_VALUE: blk_req_set_make_req_nr:lld <- $x21
	//DEBUG_VALUE: spinlock_check:lock <- [DW_OP_plus_uconst 504, DW_OP_stack_value] $x21
	//DEBUG_VALUE: spin_unlock_irqrestore:lock <- [DW_OP_plus_uconst 504, DW_OP_stack_value] $x21
	//DEBUG_VALUE: blk_req_set_make_req_nr:req <- $x19
	.loc	2 887 35                // kernel/block/hisi-blk-core.c:887:35
	ldr	x8, [x19, #264]
.Ltmp508:
	.file	137 "/mnt/disk/jenkins/ci/workspace/chipset_pipeline_release/opensource/component_code/vendor/huawei/extra/build/build_script/kirin_kernel_release/kernel/include/linux/spinlock.h"
	.loc	137 306 16              // kernel/include/linux/spinlock.h:306:16
	add	x20, x21, #504          // =504
.Ltmp509:
	.loc	2 888 3                 // kernel/block/hisi-blk-core.c:888:3
	mov	x0, x20
.Ltmp510:
	.loc	2 887 35                // kernel/block/hisi-blk-core.c:887:35
	orr	x8, x8, #0x4
	str	x8, [x19, #264]
.Ltmp511:
	.loc	2 888 3                 // kernel/block/hisi-blk-core.c:888:3
	bl	_raw_spin_lock_irqsave
.Ltmp512:
	.loc	2 889 7                 // kernel/block/hisi-blk-core.c:889:7
	ldr	w8, [x21, #496]
.Ltmp513:
	.loc	2 888 3                 // kernel/block/hisi-blk-core.c:888:3
	mov	x1, x0
.Ltmp514:
	//DEBUG_VALUE: spin_unlock_irqrestore:flags <- $x1
	//DEBUG_VALUE: blk_req_set_make_req_nr:flags <- $x1
	.loc	2 889 7                 // kernel/block/hisi-blk-core.c:889:7
	cbz	w8, .LBB42_7
.Ltmp515:
.LBB42_4:
	//DEBUG_VALUE: blk_req_set_make_req_nr:flags <- $x1
	//DEBUG_VALUE: blk_req_set_make_req_nr:lld <- $x21
	//DEBUG_VALUE: blk_req_set_make_req_nr:req <- $x19
	.loc	2 891 47                // kernel/block/hisi-blk-core.c:891:47
	add	w9, w8, #1              // =1
.Ltmp516:
	.loc	137 372 2               // kernel/include/linux/spinlock.h:372:2
	mov	x0, x20
.Ltmp517:
	.loc	2 891 47                // kernel/block/hisi-blk-core.c:891:47
	str	w9, [x21, #496]
	.loc	2 891 29 is_stmt 0      // kernel/block/hisi-blk-core.c:891:29
	str	w8, [x19, #416]
.Ltmp518:
	.loc	137 372 2 is_stmt 1     // kernel/include/linux/spinlock.h:372:2
	bl	_raw_spin_unlock_irqrestore
.Ltmp519:
.LBB42_5:
	//DEBUG_VALUE: blk_req_set_make_req_nr:lld <- $x21
	//DEBUG_VALUE: blk_req_set_make_req_nr:req <- $x19
	.loc	2 894 1                 // kernel/block/hisi-blk-core.c:894:1
	ldp	x29, x30, [sp, #32]     // 16-byte Folded Reload
	ldp	x20, x19, [sp, #16]     // 16-byte Folded Reload
.Ltmp520:
	ldr	x21, [sp], #48          // 8-byte Folded Reload
.Ltmp521:
	ret
.LBB42_6:
.Ltmp522:
	//DEBUG_VALUE: blk_req_set_make_req_nr:req <- $x19
	//DEBUG_VALUE: hisi_blk_get_lld:q <- $x8
	.loc	2 43 14                 // kernel/block/hisi-blk-core.c:43:14
	ldr	x9, [x8, #720]
	.loc	2 43 11 is_stmt 0       // kernel/block/hisi-blk-core.c:43:11
	add	x8, x8, #1808           // =1808
.Ltmp523:
	add	x10, x9, #120           // =120
	b	.LBB42_2
.Ltmp524:
.LBB42_7:
	//DEBUG_VALUE: blk_req_set_make_req_nr:flags <- $x1
	//DEBUG_VALUE: blk_req_set_make_req_nr:lld <- $x21
	//DEBUG_VALUE: blk_req_set_make_req_nr:req <- $x19
	.loc	2 0 11                  // kernel/block/hisi-blk-core.c:0:11
	orr	w8, wzr, #0x1
.Ltmp525:
	.loc	2 890 20 is_stmt 1      // kernel/block/hisi-blk-core.c:890:20
	str	w8, [x21, #496]
	b	.LBB42_4
.Ltmp526:
.Lfunc_end42:
	.size	blk_req_set_make_req_nr, .Lfunc_end42-blk_req_set_make_req_nr
	.cfi_endproc
                                        // -- End function
	.globl	blk_req_get_order_nr    // -- Begin function blk_req_get_order_nr
	.p2align	2
	.type	blk_req_get_order_nr,@function
blk_req_get_order_nr:                   // @blk_req_get_order_nr
.Lfunc_begin43:
	.loc	2 968 0                 // kernel/block/hisi-blk-core.c:968:0
	.cfi_startproc
// %bb.0:
	//DEBUG_VALUE: blk_req_get_order_nr:req <- $x0
	stp	x22, x21, [sp, #-48]!   // 16-byte Folded Spill
	stp	x20, x19, [sp, #16]     // 16-byte Folded Spill
	stp	x29, x30, [sp, #32]     // 16-byte Folded Spill
	add	x29, sp, #32            // =32
	.cfi_def_cfa w29, 16
	.cfi_offset w30, -8
	.cfi_offset w29, -16
	.cfi_offset w19, -24
	.cfi_offset w20, -32
	.cfi_offset w21, -40
	.cfi_offset w22, -48
.Ltmp527:
	.loc	2 972 6 prologue_end    // kernel/block/hisi-blk-core.c:972:6
	ldrb	w8, [x0, #264]
	mov	x19, x0
.Ltmp528:
	//DEBUG_VALUE: blk_req_get_order_nr:flags <- 0
	//DEBUG_VALUE: blk_req_get_order_nr:order <- 0
	//DEBUG_VALUE: blk_req_get_order_nr:req <- $x19
	tbnz	w8, #1, .LBB43_6
.Ltmp529:
// %bb.1:
	//DEBUG_VALUE: blk_req_get_order_nr:req <- $x19
	.loc	2 973 51                // kernel/block/hisi-blk-core.c:973:51
	ldr	x8, [x19, #64]
.Ltmp530:
	//DEBUG_VALUE: hisi_blk_get_lld:q <- $x8
	.loc	2 0 51 is_stmt 0        // kernel/block/hisi-blk-core.c:0:51
	mov	w20, w1
.Ltmp531:
	.loc	2 40 6 is_stmt 1        // kernel/block/hisi-blk-core.c:40:6
	ldr	x9, [x8, #312]
.Ltmp532:
	.loc	2 40 6 is_stmt 0        // kernel/block/hisi-blk-core.c:40:6
	cbz	x9, .LBB43_14
.Ltmp533:
// %bb.2:
	//DEBUG_VALUE: hisi_blk_get_lld:q <- $x8
	//DEBUG_VALUE: blk_req_get_order_nr:req <- $x19
	.loc	2 41 14 is_stmt 1       // kernel/block/hisi-blk-core.c:41:14
	ldr	x9, [x8, #2944]
	.loc	2 41 11 is_stmt 0       // kernel/block/hisi-blk-core.c:41:11
	add	x8, x8, #1808           // =1808
.Ltmp534:
	add	x10, x9, #16            // =16
.Ltmp535:
.LBB43_3:
	//DEBUG_VALUE: blk_req_get_order_nr:req <- $x19
	.loc	2 974 21 is_stmt 1      // kernel/block/hisi-blk-core.c:974:21
	ldr	w1, [x19, #420]
.Ltmp536:
	.loc	2 0 0 is_stmt 0         // kernel/block/hisi-blk-core.c:0:0
	cmp	x9, #0                  // =0
	csel	x22, x8, x10, eq
.Ltmp537:
	//DEBUG_VALUE: spin_unlock_irqrestore:lock <- [DW_OP_plus_uconst 472, DW_OP_stack_value] $x22
	//DEBUG_VALUE: spinlock_check:lock <- [DW_OP_plus_uconst 472, DW_OP_stack_value] $x22
	//DEBUG_VALUE: lld <- $x22
	.loc	2 974 7                 // kernel/block/hisi-blk-core.c:974:7
	cbz	w1, .LBB43_5
.Ltmp538:
// %bb.4:
	//DEBUG_VALUE: lld <- $x22
	//DEBUG_VALUE: blk_req_get_order_nr:req <- $x19
	.loc	2 975 4 is_stmt 1       // kernel/block/hisi-blk-core.c:975:4
	adrp	x0, .L.str.3
	add	x0, x0, :lo12:.L.str.3
	bl	printk
	.loc	2 977 25                // kernel/block/hisi-blk-core.c:977:25
	ldr	w21, [x19, #420]
	//DEBUG_VALUE: blk_req_get_order_nr:order <- 0
	b	.LBB43_8
.Ltmp539:
.LBB43_5:
	//DEBUG_VALUE: lld <- $x22
	//DEBUG_VALUE: blk_req_get_order_nr:req <- $x19
	.loc	2 979 7                 // kernel/block/hisi-blk-core.c:979:7
	ldrb	w8, [x22, #25]
	tbnz	w8, #0, .LBB43_9
.Ltmp540:
.LBB43_6:
	//DEBUG_VALUE: blk_req_get_order_nr:req <- $x19
	.loc	2 969 15                // kernel/block/hisi-blk-core.c:969:15
	mov	w21, wzr
.Ltmp541:
.LBB43_7:
	//DEBUG_VALUE: blk_req_get_order_nr:req <- $x19
	//DEBUG_VALUE: blk_req_get_order_nr:order <- $w21
	.loc	2 990 28                // kernel/block/hisi-blk-core.c:990:28
	str	w21, [x19, #420]
.Ltmp542:
.LBB43_8:
	//DEBUG_VALUE: blk_req_get_order_nr:req <- $x19
	.loc	2 992 1                 // kernel/block/hisi-blk-core.c:992:1
	ldp	x29, x30, [sp, #32]     // 16-byte Folded Reload
	ldp	x20, x19, [sp, #16]     // 16-byte Folded Reload
.Ltmp543:
	mov	w0, w21
	ldp	x22, x21, [sp], #48     // 16-byte Folded Reload
	ret
.LBB43_9:
.Ltmp544:
	//DEBUG_VALUE: lld <- $x22
	//DEBUG_VALUE: blk_req_get_order_nr:req <- $x19
	.loc	2 980 8                 // kernel/block/hisi-blk-core.c:980:8
	tbz	w20, #0, .LBB43_11
.Ltmp545:
// %bb.10:
	//DEBUG_VALUE: lld <- $x22
	//DEBUG_VALUE: blk_req_get_order_nr:req <- $x19
	.loc	2 0 0 is_stmt 0         // kernel/block/hisi-blk-core.c:0:0
	mov	x1, xzr
	b	.LBB43_12
.Ltmp546:
.LBB43_11:
	//DEBUG_VALUE: lld <- $x22
	//DEBUG_VALUE: blk_req_get_order_nr:req <- $x19
	.loc	137 306 16 is_stmt 1    // kernel/include/linux/spinlock.h:306:16
	add	x0, x22, #472           // =472
.Ltmp547:
	.loc	2 981 5                 // kernel/block/hisi-blk-core.c:981:5
	bl	_raw_spin_lock_irqsave
	mov	x1, x0
.Ltmp548:
	//DEBUG_VALUE: blk_req_get_order_nr:flags <- $x1
.LBB43_12:
	//DEBUG_VALUE: lld <- $x22
	//DEBUG_VALUE: blk_req_get_order_nr:req <- $x19
	//DEBUG_VALUE: blk_req_get_order_nr:flags <- $x1
	//DEBUG_VALUE: spin_unlock_irqrestore:flags <- $x1
	.loc	2 982 18                // kernel/block/hisi-blk-core.c:982:18
	ldr	w8, [x22, #468]
	adds	w9, w8, #1              // =1
.Ltmp549:
	.loc	2 984 19                // kernel/block/hisi-blk-core.c:984:19
	add	w8, w8, #2              // =2
.Ltmp550:
	.loc	2 983 8                 // kernel/block/hisi-blk-core.c:983:8
	csel	w21, w8, w9, hs
.Ltmp551:
	//DEBUG_VALUE: blk_req_get_order_nr:order <- $w21
	.loc	2 0 0 is_stmt 0         // kernel/block/hisi-blk-core.c:0:0
	str	w21, [x22, #468]
	.loc	2 986 8 is_stmt 1       // kernel/block/hisi-blk-core.c:986:8
	tbnz	w20, #0, .LBB43_7
.Ltmp552:
// %bb.13:
	//DEBUG_VALUE: spin_unlock_irqrestore:flags <- $x1
	//DEBUG_VALUE: blk_req_get_order_nr:flags <- $x1
	//DEBUG_VALUE: blk_req_get_order_nr:order <- $w21
	//DEBUG_VALUE: lld <- $x22
	//DEBUG_VALUE: blk_req_get_order_nr:req <- $x19
	.loc	137 372 2               // kernel/include/linux/spinlock.h:372:2
	add	x0, x22, #472           // =472
	bl	_raw_spin_unlock_irqrestore
.Ltmp553:
	.loc	137 0 2 is_stmt 0       // kernel/include/linux/spinlock.h:0:2
	b	.LBB43_7
.Ltmp554:
.LBB43_14:
	//DEBUG_VALUE: hisi_blk_get_lld:q <- $x8
	//DEBUG_VALUE: blk_req_get_order_nr:req <- $x19
	.loc	2 43 14 is_stmt 1       // kernel/block/hisi-blk-core.c:43:14
	ldr	x9, [x8, #720]
	.loc	2 43 11 is_stmt 0       // kernel/block/hisi-blk-core.c:43:11
	add	x8, x8, #1808           // =1808
.Ltmp555:
	add	x10, x9, #120           // =120
	b	.LBB43_3
.Ltmp556:
.Lfunc_end43:
	.size	blk_req_get_order_nr, .Lfunc_end43-blk_req_get_order_nr
	.cfi_endproc
                                        // -- End function
	.globl	blk_queue_order_enable  // -- Begin function blk_queue_order_enable
	.p2align	2
	.type	blk_queue_order_enable,@function
blk_queue_order_enable:                 // @blk_queue_order_enable
.Lfunc_begin44:
	.loc	2 996 0 is_stmt 1       // kernel/block/hisi-blk-core.c:996:0
	.cfi_startproc
// %bb.0:
	//DEBUG_VALUE: blk_queue_order_enable:q <- $x0
	//DEBUG_VALUE: blk_queue_order_enable:q <- $x0
	//DEBUG_VALUE: hisi_blk_get_lld:q <- $x0
	//DEBUG_VALUE: hisi_blk_get_lld:q <- $x0
	.loc	2 40 6 prologue_end     // kernel/block/hisi-blk-core.c:40:6
	ldr	x8, [x0, #312]
.Ltmp557:
	.loc	2 40 6 is_stmt 0        // kernel/block/hisi-blk-core.c:40:6
	cbz	x8, .LBB44_3
// %bb.1:
	//DEBUG_VALUE: hisi_blk_get_lld:q <- $x0
	//DEBUG_VALUE: blk_queue_order_enable:q <- $x0
.Ltmp558:
	.loc	2 41 14 is_stmt 1       // kernel/block/hisi-blk-core.c:41:14
	ldr	x8, [x0, #2944]
	.loc	2 41 11 is_stmt 0       // kernel/block/hisi-blk-core.c:41:11
	add	x9, x0, #1808           // =1808
	add	x10, x8, #16            // =16
.LBB44_2:
	//DEBUG_VALUE: hisi_blk_get_lld:q <- $x0
	//DEBUG_VALUE: blk_queue_order_enable:q <- $x0
	.loc	2 0 0                   // kernel/block/hisi-blk-core.c:0:0
	cmp	x8, #0                  // =0
	csel	x8, x9, x10, eq
.Ltmp559:
	//DEBUG_VALUE: blk_queue_order_enable:lld <- $x8
	ldr	x9, [x8, #24]
.Ltmp560:
	.loc	2 998 6 is_stmt 1       // kernel/block/hisi-blk-core.c:998:6
	tst	w1, #0x1
	and	w10, w1, #0x1
.Ltmp561:
	.loc	2 1003 21               // kernel/block/hisi-blk-core.c:1003:21
	strb	w10, [x8, #464]
.Ltmp562:
	.loc	2 998 6                 // kernel/block/hisi-blk-core.c:998:6
	and	x11, x9, #0xfffffffffffffeff
	orr	x9, x9, #0x100
	csel	x9, x9, x11, ne
.Ltmp563:
	.loc	2 0 0 is_stmt 0         // kernel/block/hisi-blk-core.c:0:0
	str	x9, [x8, #24]
.Ltmp564:
	.loc	2 1005 1 is_stmt 1      // kernel/block/hisi-blk-core.c:1005:1
	ret
.Ltmp565:
.LBB44_3:
	//DEBUG_VALUE: hisi_blk_get_lld:q <- $x0
	//DEBUG_VALUE: blk_queue_order_enable:q <- $x0
	.loc	2 43 14                 // kernel/block/hisi-blk-core.c:43:14
	ldr	x8, [x0, #720]
	.loc	2 43 11 is_stmt 0       // kernel/block/hisi-blk-core.c:43:11
	add	x9, x0, #1808           // =1808
	add	x10, x8, #120           // =120
	b	.LBB44_2
.Ltmp566:
.Lfunc_end44:
	.size	blk_queue_order_enable, .Lfunc_end44-blk_queue_order_enable
	.cfi_endproc
                                        // -- End function
	.globl	blk_queue_query_order_enable // -- Begin function blk_queue_query_order_enable
	.p2align	2
	.type	blk_queue_query_order_enable,@function
blk_queue_query_order_enable:           // @blk_queue_query_order_enable
.Lfunc_begin45:
	.loc	2 1009 0 is_stmt 1      // kernel/block/hisi-blk-core.c:1009:0
	.cfi_startproc
// %bb.0:
	//DEBUG_VALUE: blk_queue_query_order_enable:q <- $x0
	//DEBUG_VALUE: blk_queue_query_order_enable:q <- $x0
	//DEBUG_VALUE: hisi_blk_get_lld:q <- $x0
	//DEBUG_VALUE: hisi_blk_get_lld:q <- $x0
	.loc	2 40 6 prologue_end     // kernel/block/hisi-blk-core.c:40:6
	ldr	x8, [x0, #312]
.Ltmp567:
	.loc	2 40 6 is_stmt 0        // kernel/block/hisi-blk-core.c:40:6
	cbz	x8, .LBB45_3
// %bb.1:
	//DEBUG_VALUE: hisi_blk_get_lld:q <- $x0
	//DEBUG_VALUE: blk_queue_query_order_enable:q <- $x0
.Ltmp568:
	.loc	2 41 14 is_stmt 1       // kernel/block/hisi-blk-core.c:41:14
	ldr	x8, [x0, #2944]
	.loc	2 41 11 is_stmt 0       // kernel/block/hisi-blk-core.c:41:11
	add	x9, x0, #1808           // =1808
	add	x10, x8, #16            // =16
.LBB45_2:
	//DEBUG_VALUE: hisi_blk_get_lld:q <- $x0
	//DEBUG_VALUE: blk_queue_query_order_enable:q <- $x0
	.loc	2 0 0                   // kernel/block/hisi-blk-core.c:0:0
	cmp	x8, #0                  // =0
	csel	x8, x9, x10, eq
.Ltmp569:
	//DEBUG_VALUE: blk_queue_query_order_enable:lld <- $x8
	.loc	2 1011 10 is_stmt 1     // kernel/block/hisi-blk-core.c:1011:10
	ldrb	w8, [x8, #25]
.Ltmp570:
	.loc	2 1011 2 is_stmt 0      // kernel/block/hisi-blk-core.c:1011:2
	and	w0, w8, #0x1
	ret
.LBB45_3:
	//DEBUG_VALUE: hisi_blk_get_lld:q <- $x0
	//DEBUG_VALUE: blk_queue_query_order_enable:q <- $x0
.Ltmp571:
	.loc	2 43 14 is_stmt 1       // kernel/block/hisi-blk-core.c:43:14
	ldr	x8, [x0, #720]
	.loc	2 43 11 is_stmt 0       // kernel/block/hisi-blk-core.c:43:11
	add	x9, x0, #1808           // =1808
	add	x10, x8, #120           // =120
	b	.LBB45_2
.Ltmp572:
.Lfunc_end45:
	.size	blk_queue_query_order_enable, .Lfunc_end45-blk_queue_query_order_enable
	.cfi_endproc
                                        // -- End function
	.globl	blk_order_nr_reset      // -- Begin function blk_order_nr_reset
	.p2align	2
	.type	blk_order_nr_reset,@function
blk_order_nr_reset:                     // @blk_order_nr_reset
.Lfunc_begin46:
	.loc	2 1016 0 is_stmt 1      // kernel/block/hisi-blk-core.c:1016:0
	.cfi_startproc
// %bb.0:
	//DEBUG_VALUE: blk_order_nr_reset:tag_set <- $x0
	//DEBUG_VALUE: blk_order_nr_reset:tag_set <- $x0
	//DEBUG_VALUE: blk_order_nr_reset:blk_lld <- 0
	.loc	2 1018 6 prologue_end   // kernel/block/hisi-blk-core.c:1018:6
	cbz	x0, .LBB46_2
// %bb.1:
	//DEBUG_VALUE: blk_order_nr_reset:tag_set <- $x0
.Ltmp573:
	//DEBUG_VALUE: blk_order_nr_reset:blk_lld <- [DW_OP_plus_uconst 16, DW_OP_stack_value] $x0
	.loc	2 1021 21               // kernel/block/hisi-blk-core.c:1021:21
	str	wzr, [x0, #484]
.LBB46_2:
	//DEBUG_VALUE: blk_order_nr_reset:tag_set <- $x0
	.loc	2 1022 1                // kernel/block/hisi-blk-core.c:1022:1
	ret
.Ltmp574:
.Lfunc_end46:
	.size	blk_order_nr_reset, .Lfunc_end46-blk_order_nr_reset
	.cfi_endproc
                                        // -- End function
	.globl	hisi_queue_status_show  // -- Begin function hisi_queue_status_show
	.p2align	2
	.type	hisi_queue_status_show,@function
hisi_queue_status_show:                 // @hisi_queue_status_show
.Lfunc_begin47:
	.loc	2 1027 0                // kernel/block/hisi-blk-core.c:1027:0
	.cfi_startproc
// %bb.0:
	//DEBUG_VALUE: hisi_queue_status_show:q <- $x0
	//DEBUG_VALUE: hisi_queue_status_show:page <- $x1
	//DEBUG_VALUE: hisi_queue_status_show:len <- $x2
	//DEBUG_VALUE: hisi_blk_get_lld:q <- $x0
	stp	x22, x21, [sp, #-48]!   // 16-byte Folded Spill
	stp	x20, x19, [sp, #16]     // 16-byte Folded Spill
	stp	x29, x30, [sp, #32]     // 16-byte Folded Spill
	add	x29, sp, #32            // =32
	.cfi_def_cfa w29, 16
	.cfi_offset w30, -8
	.cfi_offset w29, -16
	.cfi_offset w19, -24
	.cfi_offset w20, -32
	.cfi_offset w21, -40
	.cfi_offset w22, -48
.Ltmp575:
	.loc	2 40 6 prologue_end     // kernel/block/hisi-blk-core.c:40:6
	ldr	x8, [x0, #312]
	mov	x20, x2
	mov	x19, x0
.Ltmp576:
	//DEBUG_VALUE: hisi_blk_get_lld:q <- $x19
	//DEBUG_VALUE: hisi_queue_status_show:len <- $x20
	//DEBUG_VALUE: hisi_queue_status_show:q <- $x19
	.loc	2 0 6 is_stmt 0         // kernel/block/hisi-blk-core.c:0:6
	mov	x21, x1
.Ltmp577:
	//DEBUG_VALUE: hisi_queue_status_show:page <- $x21
	.loc	2 40 6                  // kernel/block/hisi-blk-core.c:40:6
	cbz	x8, .LBB47_3
.Ltmp578:
// %bb.1:
	//DEBUG_VALUE: hisi_queue_status_show:page <- $x21
	//DEBUG_VALUE: hisi_queue_status_show:q <- $x19
	//DEBUG_VALUE: hisi_queue_status_show:len <- $x20
	//DEBUG_VALUE: hisi_blk_get_lld:q <- $x19
	.loc	2 41 14 is_stmt 1       // kernel/block/hisi-blk-core.c:41:14
	ldr	x8, [x19, #2944]
	.loc	2 41 11 is_stmt 0       // kernel/block/hisi-blk-core.c:41:11
	add	x9, x19, #1808          // =1808
	add	x10, x8, #16            // =16
.Ltmp579:
.LBB47_2:
	//DEBUG_VALUE: hisi_queue_status_show:page <- $x21
	//DEBUG_VALUE: hisi_queue_status_show:q <- $x19
	//DEBUG_VALUE: hisi_queue_status_show:len <- $x20
	//DEBUG_VALUE: hisi_blk_get_lld:q <- $x19
	.loc	2 0 0                   // kernel/block/hisi-blk-core.c:0:0
	cmp	x8, #0                  // =0
	csel	x0, x9, x10, eq
.Ltmp580:
	//DEBUG_VALUE: hisi_queue_status_show:lld <- $x0
	.loc	2 1029 15 is_stmt 1     // kernel/block/hisi-blk-core.c:1029:15
	mov	x1, x21
	mov	w2, w20
	bl	hisi_blk_dump_lld_status
.Ltmp581:
	mov	w22, w0
.Ltmp582:
	//DEBUG_VALUE: hisi_queue_status_show:offset <- $w22
	.loc	2 1032 35               // kernel/block/hisi-blk-core.c:1032:35
	add	x1, x21, w0, sxtw
	.loc	2 1032 45 is_stmt 0     // kernel/block/hisi-blk-core.c:1032:45
	sub	w2, w20, w0
	.loc	2 1031 12 is_stmt 1     // kernel/block/hisi-blk-core.c:1031:12
	mov	x0, x19
	bl	hisi_blk_dump_queue_status2
	.loc	2 1033 2                // kernel/block/hisi-blk-core.c:1033:2
	ldp	x29, x30, [sp, #32]     // 16-byte Folded Reload
	ldp	x20, x19, [sp, #16]     // 16-byte Folded Reload
.Ltmp583:
	.loc	2 1031 9                // kernel/block/hisi-blk-core.c:1031:9
	add	w8, w0, w22
.Ltmp584:
	//DEBUG_VALUE: hisi_queue_status_show:offset <- $w8
	.loc	2 1033 9                // kernel/block/hisi-blk-core.c:1033:9
	sxtw	x0, w8
	.loc	2 1033 2 is_stmt 0      // kernel/block/hisi-blk-core.c:1033:2
	ldp	x22, x21, [sp], #48     // 16-byte Folded Reload
.Ltmp585:
	ret
.Ltmp586:
.LBB47_3:
	//DEBUG_VALUE: hisi_queue_status_show:page <- $x21
	//DEBUG_VALUE: hisi_queue_status_show:q <- $x19
	//DEBUG_VALUE: hisi_queue_status_show:len <- $x20
	//DEBUG_VALUE: hisi_blk_get_lld:q <- $x19
	.loc	2 43 14 is_stmt 1       // kernel/block/hisi-blk-core.c:43:14
	ldr	x8, [x19, #720]
	.loc	2 43 11 is_stmt 0       // kernel/block/hisi-blk-core.c:43:11
	add	x9, x19, #1808          // =1808
	add	x10, x8, #120           // =120
	b	.LBB47_2
.Ltmp587:
.Lfunc_end47:
	.size	hisi_queue_status_show, .Lfunc_end47-hisi_queue_status_show
	.cfi_endproc
                                        // -- End function
	.type	.L.str,@object          // @.str
	.section	.rodata.str1.1,"aMS",@progbits,1
.L.str:
	.asciz	"\0013[BLK-IO]%s: mq_iosched_init_fn failed. err = %d\n"
	.size	.L.str, 51

	.type	.L__func__.hisi_blk_mq_init_allocated_queue,@object // @__func__.hisi_blk_mq_init_allocated_queue
.L__func__.hisi_blk_mq_init_allocated_queue:
	.asciz	"hisi_blk_mq_init_allocated_queue"
	.size	.L__func__.hisi_blk_mq_init_allocated_queue, 33

	.type	hisi_blk_allocated_tags_init.__key,@object // @hisi_blk_allocated_tags_init.__key
	.local	hisi_blk_allocated_tags_init.__key
	.comm	hisi_blk_allocated_tags_init.__key,1,1
	.type	.L.str.1,@object        // @.str.1
.L.str.1:
	.asciz	"&tags->tag_list_lock"
	.size	.L.str.1, 21

	.type	__kstrtab_blk_dev_write_order_preserved,@object // @__kstrtab_blk_dev_write_order_preserved
	.section	__ksymtab_strings,"a",@progbits
__kstrtab_blk_dev_write_order_preserved:
	.asciz	"blk_dev_write_order_preserved"
	.size	__kstrtab_blk_dev_write_order_preserved, 30

	.type	__ksymtab_blk_dev_write_order_preserved,@object // @__ksymtab_blk_dev_write_order_preserved
	.section	"___ksymtab+blk_dev_write_order_preserved","a",@progbits
	.p2align	3
__ksymtab_blk_dev_write_order_preserved:
	.xword	blk_dev_write_order_preserved
	.xword	__kstrtab_blk_dev_write_order_preserved
	.size	__ksymtab_blk_dev_write_order_preserved, 16

	.type	.L.str.3,@object        // @.str.3
	.section	.rodata.str1.1,"aMS",@progbits,1
.L.str.3:
	.asciz	"\0013[BLK-IO]old protocol_nr exist! %u \r\n"
	.size	.L.str.3, 39

	.type	__kstrtab_blk_req_get_order_nr,@object // @__kstrtab_blk_req_get_order_nr
	.section	__ksymtab_strings,"a",@progbits
__kstrtab_blk_req_get_order_nr:
	.asciz	"blk_req_get_order_nr"
	.size	__kstrtab_blk_req_get_order_nr, 21

	.type	__ksymtab_blk_req_get_order_nr,@object // @__ksymtab_blk_req_get_order_nr
	.section	"___ksymtab+blk_req_get_order_nr","a",@progbits
	.p2align	3
__ksymtab_blk_req_get_order_nr:
	.xword	blk_req_get_order_nr
	.xword	__kstrtab_blk_req_get_order_nr
	.size	__ksymtab_blk_req_get_order_nr, 16

	.type	__kstrtab_blk_queue_order_enable,@object // @__kstrtab_blk_queue_order_enable
	.section	__ksymtab_strings,"a",@progbits
__kstrtab_blk_queue_order_enable:
	.asciz	"blk_queue_order_enable"
	.size	__kstrtab_blk_queue_order_enable, 23

	.type	__ksymtab_blk_queue_order_enable,@object // @__ksymtab_blk_queue_order_enable
	.section	"___ksymtab+blk_queue_order_enable","a",@progbits
	.p2align	3
__ksymtab_blk_queue_order_enable:
	.xword	blk_queue_order_enable
	.xword	__kstrtab_blk_queue_order_enable
	.size	__ksymtab_blk_queue_order_enable, 16

	.type	__kstrtab_blk_queue_query_order_enable,@object // @__kstrtab_blk_queue_query_order_enable
	.section	__ksymtab_strings,"a",@progbits
__kstrtab_blk_queue_query_order_enable:
	.asciz	"blk_queue_query_order_enable"
	.size	__kstrtab_blk_queue_query_order_enable, 29

	.type	__ksymtab_blk_queue_query_order_enable,@object // @__ksymtab_blk_queue_query_order_enable
	.section	"___ksymtab+blk_queue_query_order_enable","a",@progbits
	.p2align	3
__ksymtab_blk_queue_query_order_enable:
	.xword	blk_queue_query_order_enable
	.xword	__kstrtab_blk_queue_query_order_enable
	.size	__ksymtab_blk_queue_query_order_enable, 16

	.type	__kstrtab_blk_order_nr_reset,@object // @__kstrtab_blk_order_nr_reset
	.section	__ksymtab_strings,"a",@progbits
__kstrtab_blk_order_nr_reset:
	.asciz	"blk_order_nr_reset"
	.size	__kstrtab_blk_order_nr_reset, 19

	.type	__ksymtab_blk_order_nr_reset,@object // @__ksymtab_blk_order_nr_reset
	.section	"___ksymtab+blk_order_nr_reset","a",@progbits
	.p2align	3
__ksymtab_blk_order_nr_reset:
	.xword	blk_order_nr_reset
	.xword	__kstrtab_blk_order_nr_reset
	.size	__ksymtab_blk_order_nr_reset, 16

	.type	.L.str.4,@object        // @.str.4
	.section	.rodata.str1.1,"aMS",@progbits,1
.L.str.4:
	.asciz	"\0013[BLK-IO]%s: Invalid ci_key_len!\n"
	.size	.L.str.4, 35

	.type	.L__func__.hisi_blk_lld_inline_crypto_bio_split_pre,@object // @__func__.hisi_blk_lld_inline_crypto_bio_split_pre
.L__func__.hisi_blk_lld_inline_crypto_bio_split_pre:
	.asciz	"hisi_blk_lld_inline_crypto_bio_split_pre"
	.size	.L__func__.hisi_blk_lld_inline_crypto_bio_split_pre, 41

	.type	.L.str.5,@object        // @.str.5
.L.str.5:
	.asciz	"\0013[BLK-IO]%s: init key len invalid!\n"
	.size	.L.str.5, 37

	.type	.L__func__.hisi_blk_lld_inline_crypto_bio_split_post,@object // @__func__.hisi_blk_lld_inline_crypto_bio_split_post
.L__func__.hisi_blk_lld_inline_crypto_bio_split_post:
	.asciz	"hisi_blk_lld_inline_crypto_bio_split_post"
	.size	.L__func__.hisi_blk_lld_inline_crypto_bio_split_post, 42

	.type	.L.str.6,@object        // @.str.6
.L.str.6:
	.asciz	"\0013[BLK-IO]%s: key len invalid!\n"
	.size	.L.str.6, 32

	.type	.L__func__.hisi_blk_lld_inline_crypto_bio_merge_allow,@object // @__func__.hisi_blk_lld_inline_crypto_bio_merge_allow
.L__func__.hisi_blk_lld_inline_crypto_bio_merge_allow:
	.asciz	"hisi_blk_lld_inline_crypto_bio_merge_allow"
	.size	.L__func__.hisi_blk_lld_inline_crypto_bio_merge_allow, 43

	.type	.L.str.7,@object        // @.str.7
.L.str.7:
	.asciz	"\0013[BLK-IO]%s: init rq key len not %d or %d\n"
	.size	.L.str.7, 44

	.type	.L__func__.hisi_blk_lld_inline_crypto_init_request_from_bio,@object // @__func__.hisi_blk_lld_inline_crypto_init_request_from_bio
.L__func__.hisi_blk_lld_inline_crypto_init_request_from_bio:
	.asciz	"hisi_blk_lld_inline_crypto_init_request_from_bio"
	.size	.L__func__.hisi_blk_lld_inline_crypto_init_request_from_bio, 49

	.type	hisi_blk_dev_lld_init.__key,@object // @hisi_blk_dev_lld_init.__key
	.local	hisi_blk_dev_lld_init.__key
	.comm	hisi_blk_dev_lld_init.__key,1,1
	.type	.L.str.9,@object        // @.str.9
.L.str.9:
	.asciz	"&(&blk_lld->write_num_lock)->rlock"
	.size	.L.str.9, 35

	.type	hisi_blk_dev_lld_init.__key.10,@object // @hisi_blk_dev_lld_init.__key.10
	.local	hisi_blk_dev_lld_init.__key.10
	.comm	hisi_blk_dev_lld_init.__key.10,1,1
	.type	.L.str.11,@object       // @.str.11
.L.str.11:
	.asciz	"&(&blk_lld->make_req_nr_lock)->rlock"
	.size	.L.str.11, 37
