	.text
	.file	"hisi-blk-busy-idle-notify.c"
	.file	1 "/mnt/disk/jenkins/ci/workspace/chipset_pipeline_release/opensource/component_code/vendor/huawei/extra/build/build_script/kirin_kernel_release/kernel/include/linux/lockdep.h"
	.file	2 "/mnt/disk/jenkins/ci/workspace/chipset_pipeline_release/opensource/component_code/vendor/huawei/extra/build/build_script/kirin_kernel_release/kernel/block/hisi-blk-busy-idle-notify.c"
	.file	3 "/mnt/disk/jenkins/ci/workspace/chipset_pipeline_release/opensource/component_code/vendor/huawei/extra/build/build_script/kirin_kernel_release/kernel/include/linux/blkdev.h"
	.file	4 "/mnt/disk/jenkins/ci/workspace/chipset_pipeline_release/opensource/component_code/vendor/huawei/extra/build/build_script/kirin_kernel_release/kernel/include/linux/kobject_ns.h"
	.file	5 "/mnt/disk/jenkins/ci/workspace/chipset_pipeline_release/opensource/component_code/vendor/huawei/extra/build/build_script/kirin_kernel_release/kernel/include/linux/hrtimer.h"
	.file	6 "/mnt/disk/jenkins/ci/workspace/chipset_pipeline_release/opensource/component_code/vendor/huawei/extra/build/build_script/kirin_kernel_release/kernel/include/linux/module.h"
	.file	7 "/mnt/disk/jenkins/ci/workspace/chipset_pipeline_release/opensource/component_code/vendor/huawei/extra/build/build_script/kirin_kernel_release/kernel/include/linux/quota.h"
	.file	8 "/mnt/disk/jenkins/ci/workspace/chipset_pipeline_release/opensource/component_code/vendor/huawei/extra/build/build_script/kirin_kernel_release/kernel/include/linux/fs.h"
	.file	9 "/mnt/disk/jenkins/ci/workspace/chipset_pipeline_release/opensource/component_code/vendor/huawei/extra/build/build_script/kirin_kernel_release/kernel/include/linux/pid.h"
	.file	10 "/mnt/disk/jenkins/ci/workspace/chipset_pipeline_release/opensource/component_code/vendor/huawei/extra/build/build_script/kirin_kernel_release/kernel/include/linux/device.h"
	.file	11 "/mnt/disk/jenkins/ci/workspace/chipset_pipeline_release/opensource/component_code/vendor/huawei/extra/build/build_script/kirin_kernel_release/kernel/include/linux/pm.h"
	.file	12 "/mnt/disk/jenkins/ci/workspace/chipset_pipeline_release/opensource/component_code/vendor/huawei/extra/build/build_script/kirin_kernel_release/kernel/include/linux/rcu_sync.h"
	.file	13 "/mnt/disk/jenkins/ci/workspace/chipset_pipeline_release/opensource/component_code/vendor/huawei/extra/build/build_script/kirin_kernel_release/kernel/include/linux/migrate_mode.h"
	.file	14 "/mnt/disk/jenkins/ci/workspace/chipset_pipeline_release/opensource/component_code/vendor/huawei/extra/build/build_script/kirin_kernel_release/kernel/include/linux/memremap.h"
	.file	15 "/mnt/disk/jenkins/ci/workspace/chipset_pipeline_release/opensource/component_code/vendor/huawei/extra/build/build_script/kirin_kernel_release/kernel/include/linux/mm.h"
	.file	16 "/mnt/disk/jenkins/ci/workspace/chipset_pipeline_release/opensource/component_code/vendor/huawei/extra/build/build_script/kirin_kernel_release/kernel/include/linux/restart_block.h"
	.file	17 "/mnt/disk/jenkins/ci/workspace/chipset_pipeline_release/opensource/component_code/vendor/huawei/extra/build/build_script/kirin_kernel_release/kernel/include/linux/elevator.h"
	.file	18 "/mnt/disk/jenkins/ci/workspace/chipset_pipeline_release/opensource/component_code/vendor/huawei/extra/build/build_script/kirin_kernel_release/kernel/block/hisi-blk.h"
	.file	19 "/mnt/disk/jenkins/ci/workspace/chipset_pipeline_release/opensource/component_code/vendor/huawei/extra/build/build_script/kirin_kernel_release/kernel/include/linux/stddef.h"
	.file	20 "/mnt/disk/jenkins/ci/workspace/chipset_pipeline_release/opensource/component_code/vendor/huawei/extra/build/build_script/kirin_kernel_release/kernel/include/linux/workqueue.h"
	.file	21 "/mnt/disk/jenkins/ci/workspace/chipset_pipeline_release/opensource/component_code/vendor/huawei/extra/build/build_script/kirin_kernel_release/kernel/include/linux/slab.h"
	.file	22 "/mnt/disk/jenkins/ci/workspace/chipset_pipeline_release/opensource/component_code/vendor/huawei/extra/build/build_script/kirin_kernel_release/kernel/include/linux/types.h"
	.file	23 "/mnt/disk/jenkins/ci/workspace/chipset_pipeline_release/opensource/component_code/vendor/huawei/extra/build/build_script/kirin_kernel_release/kernel/block/hisi-blk-busy-idle-notify.h"
	.file	24 "/mnt/disk/jenkins/ci/workspace/chipset_pipeline_release/opensource/component_code/vendor/huawei/extra/build/build_script/kirin_kernel_release/kernel/include/linux/timer.h"
	.file	25 "/mnt/disk/jenkins/ci/workspace/chipset_pipeline_release/opensource/component_code/vendor/huawei/extra/build/build_script/kirin_kernel_release/kernel/include/asm-generic/int-ll64.h"
	.file	26 "/mnt/disk/jenkins/ci/workspace/chipset_pipeline_release/opensource/component_code/vendor/huawei/extra/build/build_script/kirin_kernel_release/kernel/include/linux/notifier.h"
	.file	27 "/mnt/disk/jenkins/ci/workspace/chipset_pipeline_release/opensource/component_code/vendor/huawei/extra/build/build_script/kirin_kernel_release/kernel/include/linux/llist.h"
	.file	28 "/mnt/disk/jenkins/ci/workspace/chipset_pipeline_release/opensource/component_code/vendor/huawei/extra/build/build_script/kirin_kernel_release/kernel/include/linux/smp.h"
	.file	29 "/mnt/disk/jenkins/ci/workspace/chipset_pipeline_release/opensource/component_code/vendor/huawei/extra/build/build_script/kirin_kernel_release/kernel/arch/arm64/include/asm/spinlock_types.h"
	.file	30 "/mnt/disk/jenkins/ci/workspace/chipset_pipeline_release/opensource/component_code/vendor/huawei/extra/build/build_script/kirin_kernel_release/kernel/include/linux/spinlock_types.h"
	.file	31 "/mnt/disk/jenkins/ci/workspace/chipset_pipeline_release/opensource/component_code/vendor/huawei/extra/build/build_script/kirin_kernel_release/kernel/block/blk-mq.h"
	.file	32 "/mnt/disk/jenkins/ci/workspace/chipset_pipeline_release/opensource/component_code/vendor/huawei/extra/build/build_script/kirin_kernel_release/kernel/include/linux/kobject.h"
	.file	33 "/mnt/disk/jenkins/ci/workspace/chipset_pipeline_release/opensource/component_code/vendor/huawei/extra/build/build_script/kirin_kernel_release/kernel/include/uapi/asm-generic/posix_types.h"
	.file	34 "/mnt/disk/jenkins/ci/workspace/chipset_pipeline_release/opensource/component_code/vendor/huawei/extra/build/build_script/kirin_kernel_release/kernel/include/linux/sysfs.h"
	.file	35 "/mnt/disk/jenkins/ci/workspace/chipset_pipeline_release/opensource/component_code/vendor/huawei/extra/build/build_script/kirin_kernel_release/kernel/include/linux/kernfs.h"
	.file	36 "/mnt/disk/jenkins/ci/workspace/chipset_pipeline_release/opensource/component_code/vendor/huawei/extra/build/build_script/kirin_kernel_release/kernel/include/linux/rbtree.h"
	.file	37 "/mnt/disk/jenkins/ci/workspace/chipset_pipeline_release/opensource/component_code/vendor/huawei/extra/build/build_script/kirin_kernel_release/kernel/include/linux/radix-tree.h"
	.file	38 "/mnt/disk/jenkins/ci/workspace/chipset_pipeline_release/opensource/component_code/vendor/huawei/extra/build/build_script/kirin_kernel_release/kernel/include/linux/idr.h"
	.file	39 "/mnt/disk/jenkins/ci/workspace/chipset_pipeline_release/opensource/component_code/vendor/huawei/extra/build/build_script/kirin_kernel_release/kernel/include/linux/seq_file.h"
	.file	40 "/mnt/disk/jenkins/ci/workspace/chipset_pipeline_release/opensource/component_code/vendor/huawei/extra/build/build_script/kirin_kernel_release/kernel/include/asm-generic/atomic-long.h"
	.file	41 "/mnt/disk/jenkins/ci/workspace/chipset_pipeline_release/opensource/component_code/vendor/huawei/extra/build/build_script/kirin_kernel_release/kernel/include/linux/mutex.h"
	.file	42 "/mnt/disk/jenkins/ci/workspace/chipset_pipeline_release/opensource/component_code/vendor/huawei/extra/build/build_script/kirin_kernel_release/kernel/include/linux/osq_lock.h"
	.file	43 "/mnt/disk/jenkins/ci/workspace/chipset_pipeline_release/opensource/component_code/vendor/huawei/extra/build/build_script/kirin_kernel_release/kernel/arch/arm64/include/asm/thread_info.h"
	.file	44 "/mnt/disk/jenkins/ci/workspace/chipset_pipeline_release/opensource/component_code/vendor/huawei/extra/build/build_script/kirin_kernel_release/kernel/include/linux/sched.h"
	.file	45 "/mnt/disk/jenkins/ci/workspace/chipset_pipeline_release/opensource/component_code/vendor/huawei/extra/build/build_script/kirin_kernel_release/kernel/include/linux/cpumask.h"
	.file	46 "/mnt/disk/jenkins/ci/workspace/chipset_pipeline_release/opensource/component_code/vendor/huawei/extra/build/build_script/kirin_kernel_release/kernel/include/linux/timerqueue.h"
	.file	47 "/mnt/disk/jenkins/ci/workspace/chipset_pipeline_release/opensource/component_code/vendor/huawei/extra/build/build_script/kirin_kernel_release/kernel/include/linux/ktime.h"
	.file	48 "/mnt/disk/jenkins/ci/workspace/chipset_pipeline_release/opensource/component_code/vendor/huawei/extra/build/build_script/kirin_kernel_release/kernel/include/linux/seqlock.h"
	.file	49 "/mnt/disk/jenkins/ci/workspace/chipset_pipeline_release/opensource/component_code/vendor/huawei/extra/build/build_script/kirin_kernel_release/kernel/include/linux/plist.h"
	.file	50 "/mnt/disk/jenkins/ci/workspace/chipset_pipeline_release/opensource/component_code/vendor/huawei/extra/build/build_script/kirin_kernel_release/kernel/include/linux/mm_types.h"
	.file	51 "/mnt/disk/jenkins/ci/workspace/chipset_pipeline_release/opensource/component_code/vendor/huawei/extra/build/build_script/kirin_kernel_release/kernel/arch/arm64/include/asm/pgtable-types.h"
	.file	52 "/mnt/disk/jenkins/ci/workspace/chipset_pipeline_release/opensource/component_code/vendor/huawei/extra/build/build_script/kirin_kernel_release/kernel/include/asm-generic/pgtable-nop4d-hack.h"
	.file	53 "/mnt/disk/jenkins/ci/workspace/chipset_pipeline_release/opensource/component_code/vendor/huawei/extra/build/build_script/kirin_kernel_release/kernel/include/linux/uidgid.h"
	.file	54 "/mnt/disk/jenkins/ci/workspace/chipset_pipeline_release/opensource/component_code/vendor/huawei/extra/build/build_script/kirin_kernel_release/kernel/include/linux/dcache.h"
	.file	55 "/mnt/disk/jenkins/ci/workspace/chipset_pipeline_release/opensource/component_code/vendor/huawei/extra/build/build_script/kirin_kernel_release/kernel/include/linux/list_bl.h"
	.file	56 "/mnt/disk/jenkins/ci/workspace/chipset_pipeline_release/opensource/component_code/vendor/huawei/extra/build/build_script/kirin_kernel_release/kernel/include/linux/lockref.h"
	.file	57 "/mnt/disk/jenkins/ci/workspace/chipset_pipeline_release/opensource/component_code/vendor/huawei/extra/build/build_script/kirin_kernel_release/kernel/include/linux/path.h"
	.file	58 "/mnt/disk/jenkins/ci/workspace/chipset_pipeline_release/opensource/component_code/vendor/huawei/extra/build/build_script/kirin_kernel_release/kernel/include/uapi/asm-generic/int-ll64.h"
	.file	59 "/mnt/disk/jenkins/ci/workspace/chipset_pipeline_release/opensource/component_code/vendor/huawei/extra/build/build_script/kirin_kernel_release/kernel/include/linux/completion.h"
	.file	60 "/mnt/disk/jenkins/ci/workspace/chipset_pipeline_release/opensource/component_code/vendor/huawei/extra/build/build_script/kirin_kernel_release/kernel/include/linux/wait.h"
	.file	61 "/mnt/disk/jenkins/ci/workspace/chipset_pipeline_release/opensource/component_code/vendor/huawei/extra/build/build_script/kirin_kernel_release/kernel/include/linux/export.h"
	.file	62 "/mnt/disk/jenkins/ci/workspace/chipset_pipeline_release/opensource/component_code/vendor/huawei/extra/build/build_script/kirin_kernel_release/kernel/include/linux/moduleparam.h"
	.file	63 "/mnt/disk/jenkins/ci/workspace/chipset_pipeline_release/opensource/component_code/vendor/huawei/extra/build/build_script/kirin_kernel_release/kernel/arch/arm64/include/asm/extable.h"
	.file	64 "/mnt/disk/jenkins/ci/workspace/chipset_pipeline_release/opensource/component_code/vendor/huawei/extra/build/build_script/kirin_kernel_release/kernel/include/linux/rbtree_latch.h"
	.file	65 "/mnt/disk/jenkins/ci/workspace/chipset_pipeline_release/opensource/component_code/vendor/huawei/extra/build/build_script/kirin_kernel_release/kernel/include/uapi/linux/elf.h"
	.file	66 "/mnt/disk/jenkins/ci/workspace/chipset_pipeline_release/opensource/component_code/vendor/huawei/extra/build/build_script/kirin_kernel_release/kernel/arch/arm64/include/asm/module.h"
	.file	67 "/mnt/disk/jenkins/ci/workspace/chipset_pipeline_release/opensource/component_code/vendor/huawei/extra/build/build_script/kirin_kernel_release/kernel/include/uapi/linux/types.h"
	.file	68 "/mnt/disk/jenkins/ci/workspace/chipset_pipeline_release/opensource/component_code/vendor/huawei/extra/build/build_script/kirin_kernel_release/kernel/include/asm-generic/bug.h"
	.file	69 "/mnt/disk/jenkins/ci/workspace/chipset_pipeline_release/opensource/component_code/vendor/huawei/extra/build/build_script/kirin_kernel_release/kernel/include/linux/tracepoint-defs.h"
	.file	70 "/mnt/disk/jenkins/ci/workspace/chipset_pipeline_release/opensource/component_code/vendor/huawei/extra/build/build_script/kirin_kernel_release/kernel/include/linux/jump_label.h"
	.file	71 "/mnt/disk/jenkins/ci/workspace/chipset_pipeline_release/opensource/component_code/vendor/huawei/extra/build/build_script/kirin_kernel_release/kernel/include/linux/tracepoint.h"
	.file	72 "/mnt/disk/jenkins/ci/workspace/chipset_pipeline_release/opensource/component_code/vendor/huawei/extra/build/build_script/kirin_kernel_release/kernel/include/linux/projid.h"
	.file	73 "/mnt/disk/jenkins/ci/workspace/chipset_pipeline_release/opensource/component_code/vendor/huawei/extra/build/build_script/kirin_kernel_release/kernel/include/linux/time64.h"
	.file	74 "/mnt/disk/jenkins/ci/workspace/chipset_pipeline_release/opensource/component_code/vendor/huawei/extra/build/build_script/kirin_kernel_release/kernel/include/linux/shrinker.h"
	.file	75 "/mnt/disk/jenkins/ci/workspace/chipset_pipeline_release/opensource/component_code/vendor/huawei/extra/build/build_script/kirin_kernel_release/kernel/include/linux/rwsem.h"
	.file	76 "/mnt/disk/jenkins/ci/workspace/chipset_pipeline_release/opensource/component_code/vendor/huawei/extra/build/build_script/kirin_kernel_release/kernel/include/linux/genhd.h"
	.file	77 "/mnt/disk/jenkins/ci/workspace/chipset_pipeline_release/opensource/component_code/vendor/huawei/extra/build/build_script/kirin_kernel_release/kernel/include/linux/uio.h"
	.file	78 "/mnt/disk/jenkins/ci/workspace/chipset_pipeline_release/opensource/component_code/vendor/huawei/extra/build/build_script/kirin_kernel_release/kernel/include/uapi/linux/uio.h"
	.file	79 "/mnt/disk/jenkins/ci/workspace/chipset_pipeline_release/opensource/component_code/vendor/huawei/extra/build/build_script/kirin_kernel_release/kernel/include/linux/bvec.h"
	.file	80 "/mnt/disk/jenkins/ci/workspace/chipset_pipeline_release/opensource/component_code/vendor/huawei/extra/build/build_script/kirin_kernel_release/kernel/include/linux/poll.h"
	.file	81 "/mnt/disk/jenkins/ci/workspace/chipset_pipeline_release/opensource/component_code/vendor/huawei/extra/build/build_script/kirin_kernel_release/kernel/include/linux/nfs_fs_i.h"
	.file	82 "/mnt/disk/jenkins/ci/workspace/chipset_pipeline_release/opensource/component_code/vendor/huawei/extra/build/build_script/kirin_kernel_release/kernel/include/linux/rwlock_types.h"
	.file	83 "/mnt/disk/jenkins/ci/workspace/chipset_pipeline_release/opensource/component_code/vendor/huawei/extra/build/build_script/kirin_kernel_release/kernel/include/linux/cred.h"
	.file	84 "/mnt/disk/jenkins/ci/workspace/chipset_pipeline_release/opensource/component_code/vendor/huawei/extra/build/build_script/kirin_kernel_release/kernel/include/linux/capability.h"
	.file	85 "/mnt/disk/jenkins/ci/workspace/chipset_pipeline_release/opensource/component_code/vendor/huawei/extra/build/build_script/kirin_kernel_release/kernel/include/linux/refcount.h"
	.file	86 "/mnt/disk/jenkins/ci/workspace/chipset_pipeline_release/opensource/component_code/vendor/huawei/extra/build/build_script/kirin_kernel_release/kernel/include/linux/key.h"
	.file	87 "/mnt/disk/jenkins/ci/workspace/chipset_pipeline_release/opensource/component_code/vendor/huawei/extra/build/build_script/kirin_kernel_release/kernel/include/linux/assoc_array.h"
	.file	88 "/mnt/disk/jenkins/ci/workspace/chipset_pipeline_release/opensource/component_code/vendor/huawei/extra/build/build_script/kirin_kernel_release/kernel/include/linux/sched/user.h"
	.file	89 "/mnt/disk/jenkins/ci/workspace/chipset_pipeline_release/opensource/component_code/vendor/huawei/extra/build/build_script/kirin_kernel_release/kernel/include/linux/errseq.h"
	.file	90 "/mnt/disk/jenkins/ci/workspace/chipset_pipeline_release/opensource/component_code/vendor/huawei/extra/build/build_script/kirin_kernel_release/kernel/include/linux/pm_wakeup.h"
	.file	91 "/mnt/disk/jenkins/ci/workspace/chipset_pipeline_release/opensource/component_code/vendor/huawei/extra/build/build_script/kirin_kernel_release/kernel/include/linux/pinctrl/devinfo.h"
	.file	92 "/mnt/disk/jenkins/ci/workspace/chipset_pipeline_release/opensource/component_code/vendor/huawei/extra/build/build_script/kirin_kernel_release/kernel/arch/arm64/include/asm/device.h"
	.file	93 "/mnt/disk/jenkins/ci/workspace/chipset_pipeline_release/opensource/component_code/vendor/huawei/extra/build/build_script/kirin_kernel_release/kernel/include/linux/klist.h"
	.file	94 "/mnt/disk/jenkins/ci/workspace/chipset_pipeline_release/opensource/component_code/vendor/huawei/extra/build/build_script/kirin_kernel_release/kernel/include/linux/kref.h"
	.file	95 "/mnt/disk/jenkins/ci/workspace/chipset_pipeline_release/opensource/component_code/vendor/huawei/extra/build/build_script/kirin_kernel_release/kernel/include/linux/percpu-refcount.h"
	.file	96 "/mnt/disk/jenkins/ci/workspace/chipset_pipeline_release/opensource/component_code/vendor/huawei/extra/build/build_script/kirin_kernel_release/kernel/include/linux/backing-dev-defs.h"
	.file	97 "/mnt/disk/jenkins/ci/workspace/chipset_pipeline_release/opensource/component_code/vendor/huawei/extra/build/build_script/kirin_kernel_release/kernel/include/linux/percpu_counter.h"
	.file	98 "/mnt/disk/jenkins/ci/workspace/chipset_pipeline_release/opensource/component_code/vendor/huawei/extra/build/build_script/kirin_kernel_release/kernel/include/linux/flex_proportions.h"
	.file	99 "/mnt/disk/jenkins/ci/workspace/chipset_pipeline_release/opensource/component_code/vendor/huawei/extra/build/build_script/kirin_kernel_release/kernel/include/linux/percpu-rwsem.h"
	.file	100 "/mnt/disk/jenkins/ci/workspace/chipset_pipeline_release/opensource/component_code/vendor/huawei/extra/build/build_script/kirin_kernel_release/kernel/include/linux/rcuwait.h"
	.file	101 "/mnt/disk/jenkins/ci/workspace/chipset_pipeline_release/opensource/component_code/vendor/huawei/extra/build/build_script/kirin_kernel_release/kernel/include/linux/uuid.h"
	.file	102 "/mnt/disk/jenkins/ci/workspace/chipset_pipeline_release/opensource/component_code/vendor/huawei/extra/build/build_script/kirin_kernel_release/kernel/include/linux/list_lru.h"
	.file	103 "/mnt/disk/jenkins/ci/workspace/chipset_pipeline_release/opensource/component_code/vendor/huawei/extra/build/build_script/kirin_kernel_release/kernel/include/linux/delayed_call.h"
	.file	104 "/mnt/disk/jenkins/ci/workspace/chipset_pipeline_release/opensource/component_code/vendor/huawei/extra/build/build_script/kirin_kernel_release/kernel/include/uapi/linux/time.h"
	.file	105 "/mnt/disk/jenkins/ci/workspace/chipset_pipeline_release/opensource/component_code/vendor/huawei/extra/build/build_script/kirin_kernel_release/kernel/include/linux/stat.h"
	.file	106 "/mnt/disk/jenkins/ci/workspace/chipset_pipeline_release/opensource/component_code/vendor/huawei/extra/build/build_script/kirin_kernel_release/kernel/include/uapi/linux/fiemap.h"
	.file	107 "/mnt/disk/jenkins/ci/workspace/chipset_pipeline_release/opensource/component_code/vendor/huawei/extra/build/build_script/kirin_kernel_release/kernel/include/linux/mmzone.h"
	.file	108 "/mnt/disk/jenkins/ci/workspace/chipset_pipeline_release/opensource/component_code/vendor/huawei/extra/build/build_script/kirin_kernel_release/kernel/include/linux/ioport.h"
	.file	109 "/mnt/disk/jenkins/ci/workspace/chipset_pipeline_release/opensource/component_code/vendor/huawei/extra/build/build_script/kirin_kernel_release/kernel/arch/arm64/include/asm/page.h"
	.file	110 "/mnt/disk/jenkins/ci/workspace/chipset_pipeline_release/opensource/component_code/vendor/huawei/extra/build/build_script/kirin_kernel_release/kernel/include/linux/mm_types_task.h"
	.file	111 "/mnt/disk/jenkins/ci/workspace/chipset_pipeline_release/opensource/component_code/vendor/huawei/extra/build/build_script/kirin_kernel_release/kernel/arch/arm64/include/asm/mmu.h"
	.file	112 "/mnt/disk/jenkins/ci/workspace/chipset_pipeline_release/opensource/component_code/vendor/huawei/extra/build/build_script/kirin_kernel_release/kernel/include/linux/uprobes.h"
	.file	113 "/mnt/disk/jenkins/ci/workspace/chipset_pipeline_release/opensource/component_code/vendor/huawei/extra/build/build_script/kirin_kernel_release/kernel/arch/arm64/include/asm/compat.h"
	.file	114 "/mnt/disk/jenkins/ci/workspace/chipset_pipeline_release/opensource/component_code/vendor/huawei/extra/build/build_script/kirin_kernel_release/kernel/include/uapi/asm-generic/poll.h"
	.file	115 "/mnt/disk/jenkins/ci/workspace/chipset_pipeline_release/opensource/component_code/vendor/huawei/extra/build/build_script/kirin_kernel_release/kernel/include/uapi/asm-generic/signal.h"
	.file	116 "/mnt/disk/jenkins/ci/workspace/chipset_pipeline_release/opensource/component_code/vendor/huawei/extra/build/build_script/kirin_kernel_release/kernel/include/linux/signal_types.h"
	.file	117 "/mnt/disk/jenkins/ci/workspace/chipset_pipeline_release/opensource/component_code/vendor/huawei/extra/build/build_script/kirin_kernel_release/kernel/include/linux/seccomp.h"
	.file	118 "/mnt/disk/jenkins/ci/workspace/chipset_pipeline_release/opensource/component_code/vendor/huawei/extra/build/build_script/kirin_kernel_release/kernel/include/linux/blk_types.h"
	.file	119 "/mnt/disk/jenkins/ci/workspace/chipset_pipeline_release/opensource/component_code/vendor/huawei/extra/build/build_script/kirin_kernel_release/kernel/include/linux/iocontext.h"
	.file	120 "/mnt/disk/jenkins/ci/workspace/chipset_pipeline_release/opensource/component_code/vendor/huawei/extra/build/build_script/kirin_kernel_release/kernel/include/linux/bio.h"
	.file	121 "/mnt/disk/jenkins/ci/workspace/chipset_pipeline_release/opensource/component_code/vendor/huawei/extra/build/build_script/kirin_kernel_release/kernel/include/linux/mempool.h"
	.file	122 "/mnt/disk/jenkins/ci/workspace/chipset_pipeline_release/opensource/component_code/vendor/huawei/extra/build/build_script/kirin_kernel_release/kernel/include/uapi/asm-generic/siginfo.h"
	.file	123 "/mnt/disk/jenkins/ci/workspace/chipset_pipeline_release/opensource/component_code/vendor/huawei/extra/build/build_script/kirin_kernel_release/kernel/include/linux/task_io_accounting.h"
	.file	124 "/mnt/disk/jenkins/ci/workspace/chipset_pipeline_release/opensource/component_code/vendor/huawei/extra/build/build_script/kirin_kernel_release/kernel/include/linux/nodemask.h"
	.file	125 "/mnt/disk/jenkins/ci/workspace/chipset_pipeline_release/opensource/component_code/vendor/huawei/extra/build/build_script/kirin_kernel_release/kernel/include/linux/compat.h"
	.file	126 "/mnt/disk/jenkins/ci/workspace/chipset_pipeline_release/opensource/component_code/vendor/huawei/extra/build/build_script/kirin_kernel_release/kernel/arch/arm64/include/asm/processor.h"
	.file	127 "/mnt/disk/jenkins/ci/workspace/chipset_pipeline_release/opensource/component_code/vendor/huawei/extra/build/build_script/kirin_kernel_release/kernel/block/hisi-blk-busy-idle-notify.c"
	.file	128 "/mnt/disk/jenkins/ci/workspace/chipset_pipeline_release/opensource/component_code/vendor/huawei/extra/build/build_script/kirin_kernel_release/kernel/arch/arm64/include/uapi/asm/ptrace.h"
	.file	129 "/mnt/disk/jenkins/ci/workspace/chipset_pipeline_release/opensource/component_code/vendor/huawei/extra/build/build_script/kirin_kernel_release/kernel/arch/arm64/include/asm/fpsimd.h"
	.file	130 "/mnt/disk/jenkins/ci/workspace/chipset_pipeline_release/opensource/component_code/vendor/huawei/extra/build/build_script/kirin_kernel_release/kernel/include/linux/blk-mq.h"
	.file	131 "/mnt/disk/jenkins/ci/workspace/chipset_pipeline_release/opensource/component_code/vendor/huawei/extra/build/build_script/kirin_kernel_release/kernel/block/blk.h"
	.file	132 "/mnt/disk/jenkins/ci/workspace/chipset_pipeline_release/opensource/component_code/vendor/huawei/extra/build/build_script/kirin_kernel_release/kernel/include/linux/sbitmap.h"
	.file	133 "/mnt/disk/jenkins/ci/workspace/chipset_pipeline_release/opensource/component_code/vendor/huawei/extra/build/build_script/kirin_kernel_release/kernel/include/linux/srcutree.h"
	.file	134 "/mnt/disk/jenkins/ci/workspace/chipset_pipeline_release/opensource/component_code/vendor/huawei/extra/build/build_script/kirin_kernel_release/kernel/include/linux/rcu_segcblist.h"
	.file	135 "/mnt/disk/jenkins/ci/workspace/chipset_pipeline_release/opensource/component_code/vendor/huawei/extra/build/build_script/kirin_kernel_release/kernel/block/blk-stat.h"
	.file	136 "/mnt/disk/jenkins/ci/workspace/chipset_pipeline_release/opensource/component_code/vendor/huawei/extra/build/build_script/kirin_kernel_release/kernel/include/linux/bsg.h"
	.globl	hisi_blk_busyidle_handler_latency_check_timer_expire // -- Begin function hisi_blk_busyidle_handler_latency_check_timer_expire
	.p2align	2
	.type	hisi_blk_busyidle_handler_latency_check_timer_expire,@function
hisi_blk_busyidle_handler_latency_check_timer_expire: // @hisi_blk_busyidle_handler_latency_check_timer_expire
.Lfunc_begin0:
	.loc	2 35 0                  // kernel/block/hisi-blk-busy-idle-notify.c:35:0
	.cfi_sections .debug_frame
	.cfi_startproc
// %bb.0:
	//DEBUG_VALUE: hisi_blk_busyidle_handler_latency_check_timer_expire:data <- $x0
	//DEBUG_VALUE: hisi_blk_busyidle_handler_latency_check_timer_expire:data <- $x0
	stp	x29, x30, [sp, #-16]!   // 16-byte Folded Spill
	mov	x29, sp
	.cfi_def_cfa w29, 16
	.cfi_offset w30, -8
	.cfi_offset w29, -16
.Ltmp0:
	//DEBUG_VALUE: hisi_blk_busyidle_handler_latency_check_timer_expire:nb <- $x0
	.loc	2 38 2 prologue_end     // kernel/block/hisi-blk-busy-idle-notify.c:38:2
	add	x2, x0, #88             // =88
	adrp	x0, .L.str
.Ltmp1:
	adrp	x1, .L__func__.hisi_blk_busyidle_handler_latency_check_timer_expire
	add	x0, x0, :lo12:.L.str
	add	x1, x1, :lo12:.L__func__.hisi_blk_busyidle_handler_latency_check_timer_expire
	mov	w3, #1000
	bl	printk
	.loc	2 40 1                  // kernel/block/hisi-blk-busy-idle-notify.c:40:1
	ldp	x29, x30, [sp], #16     // 16-byte Folded Reload
	ret
.Ltmp2:
.Lfunc_end0:
	.size	hisi_blk_busyidle_handler_latency_check_timer_expire, .Lfunc_end0-hisi_blk_busyidle_handler_latency_check_timer_expire
	.cfi_endproc
                                        // -- End function
	.globl	hisi_blk_busyidle_notify_handler // -- Begin function hisi_blk_busyidle_notify_handler
	.p2align	2
	.type	hisi_blk_busyidle_notify_handler,@function
hisi_blk_busyidle_notify_handler:       // @hisi_blk_busyidle_notify_handler
.Lfunc_begin1:
	.loc	2 77 0                  // kernel/block/hisi-blk-busy-idle-notify.c:77:0
	.cfi_startproc
// %bb.0:
	//DEBUG_VALUE: hisi_blk_busyidle_notify_handler:nb <- $x0
	//DEBUG_VALUE: hisi_blk_busyidle_notify_handler:event <- $x1
	//DEBUG_VALUE: hisi_blk_busyidle_notify_handler:v <- $x2
	//DEBUG_VALUE: hisi_blk_busyidle_notify_handler:nb <- $x0
	str	x23, [sp, #-64]!        // 8-byte Folded Spill
	stp	x22, x21, [sp, #16]     // 16-byte Folded Spill
	stp	x20, x19, [sp, #32]     // 16-byte Folded Spill
	stp	x29, x30, [sp, #48]     // 16-byte Folded Spill
	add	x29, sp, #48            // =48
	.cfi_def_cfa w29, 16
	.cfi_offset w30, -8
	.cfi_offset w29, -16
	.cfi_offset w19, -24
	.cfi_offset w20, -32
	.cfi_offset w21, -40
	.cfi_offset w22, -48
	.cfi_offset w23, -64
.Ltmp3:
	//DEBUG_VALUE: __mptr <- $x0
	//DEBUG_VALUE: hisi_blk_busyidle_notify_handler:handler_result <- 0
	//DEBUG_VALUE: __mptr <- $x0
	.loc	2 84 6 prologue_end     // kernel/block/hisi-blk-busy-idle-notify.c:84:6
	ldr	x8, [x0, #56]
.Ltmp4:
	.loc	2 82 56                 // kernel/block/hisi-blk-busy-idle-notify.c:82:56
	add	x19, x0, #24            // =24
.Ltmp5:
	//DEBUG_VALUE: hisi_blk_busyidle_notify_handler:node <- $x19
	//DEBUG_VALUE: handle_busyidle_event:node <- $x19
	.loc	2 84 6                  // kernel/block/hisi-blk-busy-idle-notify.c:84:6
	cbz	x8, .LBB1_13
.Ltmp6:
// %bb.1:
	//DEBUG_VALUE: handle_busyidle_event:node <- $x19
	//DEBUG_VALUE: hisi_blk_busyidle_notify_handler:node <- $x19
	//DEBUG_VALUE: hisi_blk_busyidle_notify_handler:v <- $x2
	//DEBUG_VALUE: hisi_blk_busyidle_notify_handler:event <- $x1
	//DEBUG_VALUE: hisi_blk_busyidle_notify_handler:nb <- $x0
	.loc	2 0 6 is_stmt 0         // kernel/block/hisi-blk-busy-idle-notify.c:0:6
	mov	x22, x1
.Ltmp7:
	//DEBUG_VALUE: hisi_blk_busyidle_notify_handler:event <- $x22
	sub	x23, x0, #64            // =64
.Ltmp8:
	//DEBUG_VALUE: hisi_blk_busyidle_notify_handler:busyidle_nb <- $x23
	.loc	2 93 16 is_stmt 1       // kernel/block/hisi-blk-busy-idle-notify.c:93:16
	bl	ktime_get
.Ltmp9:
	.loc	2 95 3                  // kernel/block/hisi-blk-busy-idle-notify.c:95:3
	adrp	x8, jiffies
	ldr	x8, [x8, :lo12:jiffies]
	.loc	2 94 26                 // kernel/block/hisi-blk-busy-idle-notify.c:94:26
	add	x21, x23, #16           // =16
	.loc	2 93 16                 // kernel/block/hisi-blk-busy-idle-notify.c:93:16
	mov	x20, x0
.Ltmp10:
	//DEBUG_VALUE: hisi_blk_busyidle_notify_handler:start_ktime <- $x20
	//DEBUG_VALUE: ktime_add_ms:kt <- $x20
	.loc	2 94 2                  // kernel/block/hisi-blk-busy-idle-notify.c:94:2
	mov	x0, x21
	.loc	2 95 11                 // kernel/block/hisi-blk-busy-idle-notify.c:95:11
	add	x1, x8, #250            // =250
	.loc	2 94 2                  // kernel/block/hisi-blk-busy-idle-notify.c:94:2
	bl	mod_timer
.Ltmp11:
	//DEBUG_VALUE: handle_busyidle_event:ret <- 0
	//DEBUG_VALUE: handle_busyidle_event:event <- $x22
	//DEBUG_VALUE: handle_busyidle_event:nb <- $x23
	.loc	2 48 2                  // kernel/block/hisi-blk-busy-idle-notify.c:48:2
	cbz	x22, .LBB1_6
.Ltmp12:
// %bb.2:
	//DEBUG_VALUE: handle_busyidle_event:nb <- $x23
	//DEBUG_VALUE: handle_busyidle_event:event <- $x22
	//DEBUG_VALUE: hisi_blk_busyidle_notify_handler:start_ktime <- $x20
	//DEBUG_VALUE: hisi_blk_busyidle_notify_handler:busyidle_nb <- $x23
	//DEBUG_VALUE: hisi_blk_busyidle_notify_handler:event <- $x22
	//DEBUG_VALUE: handle_busyidle_event:node <- $x19
	//DEBUG_VALUE: hisi_blk_busyidle_notify_handler:node <- $x19
	cmp	x22, #1                 // =1
	b.ne	.LBB1_10
.Ltmp13:
// %bb.3:
	//DEBUG_VALUE: handle_busyidle_event:nb <- $x23
	//DEBUG_VALUE: handle_busyidle_event:event <- $x22
	//DEBUG_VALUE: hisi_blk_busyidle_notify_handler:start_ktime <- $x20
	//DEBUG_VALUE: hisi_blk_busyidle_notify_handler:busyidle_nb <- $x23
	//DEBUG_VALUE: hisi_blk_busyidle_notify_handler:event <- $x22
	//DEBUG_VALUE: handle_busyidle_event:node <- $x19
	//DEBUG_VALUE: hisi_blk_busyidle_notify_handler:node <- $x19
	.loc	2 50 7                  // kernel/block/hisi-blk-busy-idle-notify.c:50:7
	ldr	w8, [x23, #144]
.Ltmp14:
	.loc	2 50 7 is_stmt 0        // kernel/block/hisi-blk-busy-idle-notify.c:50:7
	cbnz	w8, .LBB1_10
.Ltmp15:
// %bb.4:
	//DEBUG_VALUE: handle_busyidle_event:nb <- $x23
	//DEBUG_VALUE: handle_busyidle_event:event <- $x22
	//DEBUG_VALUE: hisi_blk_busyidle_notify_handler:start_ktime <- $x20
	//DEBUG_VALUE: hisi_blk_busyidle_notify_handler:busyidle_nb <- $x23
	//DEBUG_VALUE: hisi_blk_busyidle_notify_handler:event <- $x22
	//DEBUG_VALUE: handle_busyidle_event:node <- $x19
	//DEBUG_VALUE: hisi_blk_busyidle_notify_handler:node <- $x19
	.loc	2 51 16 is_stmt 1       // kernel/block/hisi-blk-busy-idle-notify.c:51:16
	ldr	x8, [x23, #120]
	.loc	2 51 10 is_stmt 0       // kernel/block/hisi-blk-busy-idle-notify.c:51:10
	orr	w1, wzr, #0x1
	mov	x0, x19
	orr	w22, wzr, #0x1
.Ltmp16:
	blr	x8
.Ltmp17:
	//DEBUG_VALUE: handle_busyidle_event:ret <- $w0
	.loc	2 55 8 is_stmt 1        // kernel/block/hisi-blk-busy-idle-notify.c:55:8
	cmp	w0, #1                  // =1
	.loc	2 54 19                 // kernel/block/hisi-blk-busy-idle-notify.c:54:19
	str	w22, [x23, #144]
	.loc	2 55 8                  // kernel/block/hisi-blk-busy-idle-notify.c:55:8
	b.ne	.LBB1_8
.Ltmp18:
// %bb.5:
	//DEBUG_VALUE: handle_busyidle_event:ret <- $w0
	//DEBUG_VALUE: handle_busyidle_event:nb <- $x23
	//DEBUG_VALUE: hisi_blk_busyidle_notify_handler:start_ktime <- $x20
	//DEBUG_VALUE: hisi_blk_busyidle_notify_handler:busyidle_nb <- $x23
	//DEBUG_VALUE: handle_busyidle_event:node <- $x19
	//DEBUG_VALUE: hisi_blk_busyidle_notify_handler:node <- $x19
	.loc	2 0 8 is_stmt 0         // kernel/block/hisi-blk-busy-idle-notify.c:0:8
	mov	w22, #32769
	b	.LBB1_11
.Ltmp19:
.LBB1_6:
	//DEBUG_VALUE: handle_busyidle_event:nb <- $x23
	//DEBUG_VALUE: handle_busyidle_event:event <- $x22
	//DEBUG_VALUE: hisi_blk_busyidle_notify_handler:start_ktime <- $x20
	//DEBUG_VALUE: hisi_blk_busyidle_notify_handler:busyidle_nb <- $x23
	//DEBUG_VALUE: hisi_blk_busyidle_notify_handler:event <- $x22
	//DEBUG_VALUE: handle_busyidle_event:node <- $x19
	//DEBUG_VALUE: hisi_blk_busyidle_notify_handler:node <- $x19
	.loc	2 60 7 is_stmt 1        // kernel/block/hisi-blk-busy-idle-notify.c:60:7
	ldr	w8, [x23, #144]
.Ltmp20:
	.loc	2 60 7 is_stmt 0        // kernel/block/hisi-blk-busy-idle-notify.c:60:7
	cmp	w8, #1                  // =1
	b.ne	.LBB1_10
.Ltmp21:
// %bb.7:
	//DEBUG_VALUE: handle_busyidle_event:nb <- $x23
	//DEBUG_VALUE: handle_busyidle_event:event <- $x22
	//DEBUG_VALUE: hisi_blk_busyidle_notify_handler:start_ktime <- $x20
	//DEBUG_VALUE: hisi_blk_busyidle_notify_handler:busyidle_nb <- $x23
	//DEBUG_VALUE: hisi_blk_busyidle_notify_handler:event <- $x22
	//DEBUG_VALUE: handle_busyidle_event:node <- $x19
	//DEBUG_VALUE: hisi_blk_busyidle_notify_handler:node <- $x19
	.loc	2 61 16 is_stmt 1       // kernel/block/hisi-blk-busy-idle-notify.c:61:16
	ldr	x8, [x23, #120]
	.loc	2 61 10 is_stmt 0       // kernel/block/hisi-blk-busy-idle-notify.c:61:10
	mov	x0, x19
	mov	w1, wzr
	blr	x8
.Ltmp22:
	//DEBUG_VALUE: handle_busyidle_event:ret <- $w0
	.loc	2 64 19 is_stmt 1       // kernel/block/hisi-blk-busy-idle-notify.c:64:19
	str	wzr, [x23, #144]
.Ltmp23:
.LBB1_8:
	//DEBUG_VALUE: hisi_blk_busyidle_notify_handler:start_ktime <- $x20
	//DEBUG_VALUE: hisi_blk_busyidle_notify_handler:busyidle_nb <- $x23
	//DEBUG_VALUE: hisi_blk_busyidle_notify_handler:node <- $x19
	.loc	2 97 6                  // kernel/block/hisi-blk-busy-idle-notify.c:97:6
	cmp	w0, #2                  // =2
	b.ne	.LBB1_10
.Ltmp24:
// %bb.9:
	//DEBUG_VALUE: hisi_blk_busyidle_notify_handler:start_ktime <- $x20
	//DEBUG_VALUE: hisi_blk_busyidle_notify_handler:busyidle_nb <- $x23
	//DEBUG_VALUE: hisi_blk_busyidle_notify_handler:node <- $x19
	.loc	2 99 3                  // kernel/block/hisi-blk-busy-idle-notify.c:99:3
	adrp	x0, .L.str.2
	adrp	x1, .L__func__.hisi_blk_busyidle_notify_handler
	add	x0, x0, :lo12:.L.str.2
	add	x1, x1, :lo12:.L__func__.hisi_blk_busyidle_notify_handler
	mov	x2, x19
	bl	printk
.Ltmp25:
.LBB1_10:
	//DEBUG_VALUE: hisi_blk_busyidle_notify_handler:start_ktime <- $x20
	//DEBUG_VALUE: hisi_blk_busyidle_notify_handler:busyidle_nb <- $x23
	//DEBUG_VALUE: hisi_blk_busyidle_notify_handler:node <- $x19
	.loc	2 0 3 is_stmt 0         // kernel/block/hisi-blk-busy-idle-notify.c:0:3
	mov	w22, wzr
.Ltmp26:
.LBB1_11:
	//DEBUG_VALUE: hisi_blk_busyidle_notify_handler:start_ktime <- $x20
	//DEBUG_VALUE: hisi_blk_busyidle_notify_handler:busyidle_nb <- $x23
	//DEBUG_VALUE: hisi_blk_busyidle_notify_handler:node <- $x19
	.loc	2 105 2 is_stmt 1       // kernel/block/hisi-blk-busy-idle-notify.c:105:2
	mov	x0, x21
	bl	del_timer_sync
.Ltmp27:
	.loc	2 106 6                 // kernel/block/hisi-blk-busy-idle-notify.c:106:6
	bl	ktime_get
.Ltmp28:
	//DEBUG_VALUE: ktime_after:cmp1 <- $x0
	//DEBUG_VALUE: ktime_compare:cmp1 <- $x0
	.loc	2 0 6 is_stmt 0         // kernel/block/hisi-blk-busy-idle-notify.c:0:6
	mov	w8, #38528
	movk	w8, #152, lsl #16
.Ltmp29:
	//DEBUG_VALUE: ktime_add_ms:msec <- 10
	.loc	47 200 9 is_stmt 1      // kernel/include/linux/ktime.h:200:9
	add	x8, x20, x8
.Ltmp30:
	//DEBUG_VALUE: ktime_compare:cmp2 <- $x8
	//DEBUG_VALUE: ktime_after:cmp2 <- $x8
	.loc	2 106 6                 // kernel/block/hisi-blk-busy-idle-notify.c:106:6
	cmp	x0, x8
	b.gt	.LBB1_14
.Ltmp31:
.LBB1_12:
	//DEBUG_VALUE: hisi_blk_busyidle_notify_handler:node <- $x19
	.loc	2 113 1                 // kernel/block/hisi-blk-busy-idle-notify.c:113:1
	mov	w0, w22
	ldp	x29, x30, [sp, #48]     // 16-byte Folded Reload
	ldp	x20, x19, [sp, #32]     // 16-byte Folded Reload
.Ltmp32:
	ldp	x22, x21, [sp, #16]     // 16-byte Folded Reload
	ldr	x23, [sp], #64          // 8-byte Folded Reload
	ret
.LBB1_13:
.Ltmp33:
	//DEBUG_VALUE: hisi_blk_busyidle_notify_handler:node <- $x19
	//DEBUG_VALUE: hisi_blk_busyidle_notify_handler:v <- $x2
	//DEBUG_VALUE: hisi_blk_busyidle_notify_handler:event <- $x1
	//DEBUG_VALUE: hisi_blk_busyidle_notify_handler:nb <- $x0
	.loc	2 85 3                  // kernel/block/hisi-blk-busy-idle-notify.c:85:3
	adrp	x0, .L.str.1
.Ltmp34:
	adrp	x1, .L__func__.hisi_blk_busyidle_notify_handler
.Ltmp35:
	add	x0, x0, :lo12:.L.str.1
	add	x1, x1, :lo12:.L__func__.hisi_blk_busyidle_notify_handler
	mov	x2, x19
.Ltmp36:
	bl	printk
.Ltmp37:
	.loc	2 0 0 is_stmt 0         // kernel/block/hisi-blk-busy-idle-notify.c:0:0
	mov	w22, wzr
	b	.LBB1_12
.Ltmp38:
.LBB1_14:
	//DEBUG_VALUE: hisi_blk_busyidle_notify_handler:start_ktime <- $x20
	//DEBUG_VALUE: hisi_blk_busyidle_notify_handler:busyidle_nb <- $x23
	//DEBUG_VALUE: hisi_blk_busyidle_notify_handler:node <- $x19
	.loc	2 108 3 is_stmt 1       // kernel/block/hisi-blk-busy-idle-notify.c:108:3
	bl	ktime_get
	mov	x9, #13531
	movk	x9, #55222, lsl #16
	movk	x9, #56962, lsl #32
	sub	x8, x0, x20
	movk	x9, #17179, lsl #48
.Ltmp39:
	//DEBUG_VALUE: ktime_divns:div <- 1000000
	//DEBUG_VALUE: ktime_divns:kt <- $x8
	//DEBUG_VALUE: ktime_to_ms:kt <- $x8
	.loc	47 169 12               // kernel/include/linux/ktime.h:169:12
	smulh	x8, x8, x9
.Ltmp40:
	asr	x9, x8, #18
.Ltmp41:
	.loc	2 108 3                 // kernel/block/hisi-blk-busy-idle-notify.c:108:3
	adrp	x0, .L.str.3
	adrp	x1, .L__func__.hisi_blk_busyidle_notify_handler
.Ltmp42:
	.loc	47 169 12               // kernel/include/linux/ktime.h:169:12
	add	x3, x9, x8, lsr #63
.Ltmp43:
	.loc	2 108 3                 // kernel/block/hisi-blk-busy-idle-notify.c:108:3
	add	x0, x0, :lo12:.L.str.3
	add	x1, x1, :lo12:.L__func__.hisi_blk_busyidle_notify_handler
	mov	x2, x19
	bl	printk
	b	.LBB1_12
.Ltmp44:
.Lfunc_end1:
	.size	hisi_blk_busyidle_notify_handler, .Lfunc_end1-hisi_blk_busyidle_notify_handler
	.cfi_endproc
                                        // -- End function
	.globl	hisi_blk_idle_notify_work // -- Begin function hisi_blk_idle_notify_work
	.p2align	2
	.type	hisi_blk_idle_notify_work,@function
hisi_blk_idle_notify_work:              // @hisi_blk_idle_notify_work
.Lfunc_begin2:
	.loc	2 261 0                 // kernel/block/hisi-blk-busy-idle-notify.c:261:0
	.cfi_startproc
// %bb.0:
	//DEBUG_VALUE: hisi_blk_idle_notify_work:work <- $x0
	stp	x20, x19, [sp, #-32]!   // 16-byte Folded Spill
	stp	x29, x30, [sp, #16]     // 16-byte Folded Spill
	add	x29, sp, #16            // =16
	.cfi_def_cfa w29, 16
	.cfi_offset w30, -8
	.cfi_offset w29, -16
	.cfi_offset w19, -24
	.cfi_offset w20, -32
.Ltmp45:
	//DEBUG_VALUE: __mptr <- $x0
	mov	x20, x0
.Ltmp46:
	//DEBUG_VALUE: hisi_blk_idle_notify_work:blk_idle <- $x20
	//DEBUG_VALUE: blk_busy_to_idle:blk_idle <- $x20
	//DEBUG_VALUE: __mptr <- $x20
	//DEBUG_VALUE: hisi_blk_idle_notify_work:work <- $x20
	.loc	2 266 16 prologue_end   // kernel/block/hisi-blk-busy-idle-notify.c:266:16
	ldrb	w8, [x20, #-8]!
.Ltmp47:
	.loc	2 266 6 is_stmt 0       // kernel/block/hisi-blk-busy-idle-notify.c:266:6
	cbz	w8, .LBB2_2
// %bb.1:
.Ltmp48:
	//DEBUG_VALUE: __write_once_size:res <- undef
	//DEBUG_VALUE: __write_once_size:size <- 4
	//DEBUG_VALUE: __write_once_size:p <- [DW_OP_plus_uconst 208, DW_OP_stack_value] $x20
	.file	137 "/mnt/disk/jenkins/ci/workspace/chipset_pipeline_release/opensource/component_code/vendor/huawei/extra/build/build_script/kirin_kernel_release/kernel/include/linux/compiler.h"
	.loc	137 209 31 is_stmt 1    // kernel/include/linux/compiler.h:209:31
	str	wzr, [x20, #208]
.Ltmp49:
.LBB2_2:
	.loc	2 269 24                // kernel/block/hisi-blk-busy-idle-notify.c:269:24
	add	x19, x20, #216          // =216
	.loc	2 269 2 is_stmt 0       // kernel/block/hisi-blk-busy-idle-notify.c:269:2
	mov	x0, x19
	bl	mutex_lock
.Ltmp50:
	//DEBUG_VALUE: __read_once_size:p <- [DW_OP_plus_uconst 208, DW_OP_stack_value] $x20
	//DEBUG_VALUE: __read_once_size:size <- 4
	//DEBUG_VALUE: __read_once_size:res <- undef
	.loc	137 183 2 is_stmt 1     // kernel/include/linux/compiler.h:183:2
	ldr	w8, [x20, #208]
.Ltmp51:
	.loc	2 270 40                // kernel/block/hisi-blk-busy-idle-notify.c:270:40
	cbnz	w8, .LBB2_5
.Ltmp52:
// %bb.3:
	.loc	2 271 14                // kernel/block/hisi-blk-busy-idle-notify.c:271:14
	ldr	w8, [x20, #280]
.Ltmp53:
	.loc	2 270 6                 // kernel/block/hisi-blk-busy-idle-notify.c:270:6
	cmp	w8, #1                  // =1
	b.eq	.LBB2_5
// %bb.4:
	.loc	2 0 6 is_stmt 0         // kernel/block/hisi-blk-busy-idle-notify.c:0:6
	orr	w8, wzr, #0x1
.Ltmp54:
	.loc	2 256 42 is_stmt 1      // kernel/block/hisi-blk-busy-idle-notify.c:256:42
	add	x0, x20, #128           // =128
	.loc	2 256 2 is_stmt 0       // kernel/block/hisi-blk-busy-idle-notify.c:256:2
	orr	w1, wzr, #0x1
	mov	x2, xzr
	.loc	2 246 23 is_stmt 1      // kernel/block/hisi-blk-busy-idle-notify.c:246:23
	str	w8, [x20, #280]
	.loc	2 256 2                 // kernel/block/hisi-blk-busy-idle-notify.c:256:2
	bl	blocking_notifier_call_chain
.Ltmp55:
.LBB2_5:
	.loc	2 273 2                 // kernel/block/hisi-blk-busy-idle-notify.c:273:2
	mov	x0, x19
	bl	mutex_unlock
	.loc	2 274 1                 // kernel/block/hisi-blk-busy-idle-notify.c:274:1
	ldp	x29, x30, [sp, #16]     // 16-byte Folded Reload
	ldp	x20, x19, [sp], #32     // 16-byte Folded Reload
	ret
.Ltmp56:
.Lfunc_end2:
	.size	hisi_blk_idle_notify_work, .Lfunc_end2-hisi_blk_idle_notify_work
	.cfi_endproc
                                        // -- End function
	.globl	blk_lld_idle_notify     // -- Begin function blk_lld_idle_notify
	.p2align	2
	.type	blk_lld_idle_notify,@function
blk_lld_idle_notify:                    // @blk_lld_idle_notify
.Lfunc_begin3:
	.loc	2 277 0                 // kernel/block/hisi-blk-busy-idle-notify.c:277:0
	.cfi_startproc
// %bb.0:
	//DEBUG_VALUE: blk_lld_idle_notify:lld <- $x0
	//DEBUG_VALUE: blk_lld_idle_notify:lld <- $x0
	.loc	2 278 6 prologue_end    // kernel/block/hisi-blk-busy-idle-notify.c:278:6
	ldr	w8, [x0]
.Ltmp57:
	.loc	2 278 6 is_stmt 0       // kernel/block/hisi-blk-busy-idle-notify.c:278:6
	cmp	w8, #122                // =122
	b.ne	.LBB3_2
.Ltmp58:
// %bb.1:
	//DEBUG_VALUE: blk_lld_idle_notify:lld <- $x0
	stp	x20, x19, [sp, #-32]!   // 16-byte Folded Spill
	stp	x29, x30, [sp, #16]     // 16-byte Folded Spill
	add	x29, sp, #16            // =16
	.cfi_def_cfa w29, 16
	.cfi_offset w30, -8
	.cfi_offset w29, -16
	.cfi_offset w19, -24
	.cfi_offset w20, -32
.Ltmp59:
	.loc	2 279 22 is_stmt 1      // kernel/block/hisi-blk-busy-idle-notify.c:279:22
	adrp	x8, blk_idle_notify_workqueue
	ldr	x19, [x8, :lo12:blk_idle_notify_workqueue]
	.loc	2 282 35                // kernel/block/hisi-blk-busy-idle-notify.c:282:35
	ldr	w8, [x0, #192]
	.loc	2 281 6                 // kernel/block/hisi-blk-busy-idle-notify.c:281:6
	add	x20, x0, #96            // =96
.Ltmp60:
	//DEBUG_VALUE: msecs_to_jiffies:m <- $w8
	.file	138 "/mnt/disk/jenkins/ci/workspace/chipset_pipeline_release/opensource/component_code/vendor/huawei/extra/build/build_script/kirin_kernel_release/kernel/include/linux/jiffies.h"
	.loc	138 370 10              // kernel/include/linux/jiffies.h:370:10
	mov	w0, w8
.Ltmp61:
	bl	__msecs_to_jiffies
.Ltmp62:
	mov	x3, x0
.Ltmp63:
	//DEBUG_VALUE: queue_delayed_work:delay <- $x3
	//DEBUG_VALUE: queue_delayed_work:dwork <- $x20
	//DEBUG_VALUE: queue_delayed_work:wq <- $x19
	.loc	20 506 9                // kernel/include/linux/workqueue.h:506:9
	orr	w0, wzr, #0x8
	mov	x1, x19
	mov	x2, x20
	bl	queue_delayed_work_on
.Ltmp64:
	.loc	20 0 9 is_stmt 0        // kernel/include/linux/workqueue.h:0:9
	ldp	x29, x30, [sp, #16]     // 16-byte Folded Reload
	ldp	x20, x19, [sp], #32     // 16-byte Folded Reload
.Ltmp65:
.LBB3_2:
	.loc	2 283 1 is_stmt 1       // kernel/block/hisi-blk-busy-idle-notify.c:283:1
	ret
.Ltmp66:
.Lfunc_end3:
	.size	blk_lld_idle_notify, .Lfunc_end3-blk_lld_idle_notify
	.cfi_endproc
                                        // -- End function
	.globl	hisi_blk_busyidle_check_bio // -- Begin function hisi_blk_busyidle_check_bio
	.p2align	2
	.type	hisi_blk_busyidle_check_bio,@function
hisi_blk_busyidle_check_bio:            // @hisi_blk_busyidle_check_bio
.Lfunc_begin4:
	.loc	2 555 0                 // kernel/block/hisi-blk-busy-idle-notify.c:555:0
	.cfi_startproc
// %bb.0:
	//DEBUG_VALUE: hisi_blk_busyidle_check_bio:q <- $x0
	//DEBUG_VALUE: hisi_blk_busyidle_check_bio:bio <- $x1
	str	x21, [sp, #-48]!        // 8-byte Folded Spill
	stp	x20, x19, [sp, #16]     // 16-byte Folded Spill
	stp	x29, x30, [sp, #32]     // 16-byte Folded Spill
	add	x29, sp, #32            // =32
	.cfi_def_cfa w29, 16
	.cfi_offset w30, -8
	.cfi_offset w29, -16
	.cfi_offset w19, -24
	.cfi_offset w20, -32
	.cfi_offset w21, -48
	mov	x20, x1
	mov	x21, x0
.Ltmp67:
	//DEBUG_VALUE: hisi_blk_busyidle_check_bio:bio <- $x20
	//DEBUG_VALUE: hisi_blk_busyidle_check_bio:q <- $x21
	.loc	2 556 28 prologue_end   // kernel/block/hisi-blk-busy-idle-notify.c:556:28
	bl	hisi_blk_get_lld
.Ltmp68:
	.loc	2 560 6                 // kernel/block/hisi-blk-busy-idle-notify.c:560:6
	ldrb	w8, [x20, #136]
.Ltmp69:
	.loc	2 558 18                // kernel/block/hisi-blk-busy-idle-notify.c:558:18
	str	x21, [x20, #88]
	.loc	2 560 6                 // kernel/block/hisi-blk-busy-idle-notify.c:560:6
	tbnz	w8, #0, .LBB4_4
.Ltmp70:
// %bb.1:
	//DEBUG_VALUE: hisi_blk_busyidle_check_bio:q <- $x21
	//DEBUG_VALUE: hisi_blk_busyidle_check_bio:bio <- $x20
	.file	139 "/mnt/disk/jenkins/ci/workspace/chipset_pipeline_release/opensource/component_code/vendor/huawei/extra/build/build_script/kirin_kernel_release/kernel/include/linux/spinlock.h"
	.loc	139 306 16              // kernel/include/linux/spinlock.h:306:16
	add	x21, x0, #424           // =424
.Ltmp71:
	.loc	2 0 0 is_stmt 0         // kernel/block/hisi-blk-busy-idle-notify.c:0:0
	mov	x19, x0
.Ltmp72:
	//DEBUG_VALUE: atomic_add:v <- [DW_OP_plus_uconst 296, DW_OP_stack_value] $x19
	//DEBUG_VALUE: blk_idle_to_busy:blk_idle <- [DW_OP_plus_uconst 88, DW_OP_stack_value] $x19
	//DEBUG_VALUE: blk_busy_count:blk_idle <- [DW_OP_plus_uconst 88, DW_OP_stack_value] $x19
	//DEBUG_VALUE: blk_busy_count:lld <- $x19
	//DEBUG_VALUE: spin_unlock_irqrestore:lock <- [DW_OP_plus_uconst 424, DW_OP_stack_value] $x19
	//DEBUG_VALUE: spinlock_check:lock <- [DW_OP_plus_uconst 424, DW_OP_stack_value] $x19
	//DEBUG_VALUE: hisi_blk_add_bio_to_counted_list:lld <- $x19
	//DEBUG_VALUE: hisi_blk_busyidle_check_bio:lld <- $x19
	.loc	2 562 28 is_stmt 1      // kernel/block/hisi-blk-busy-idle-notify.c:562:28
	orr	w8, w8, #0x1
.Ltmp73:
	.loc	2 497 2                 // kernel/block/hisi-blk-busy-idle-notify.c:497:2
	mov	x0, x21
.Ltmp74:
	.loc	2 562 28                // kernel/block/hisi-blk-busy-idle-notify.c:562:28
	strb	w8, [x20, #136]
.Ltmp75:
	//DEBUG_VALUE: hisi_blk_add_bio_to_counted_list:bio <- $x20
	.loc	2 497 2                 // kernel/block/hisi-blk-busy-idle-notify.c:497:2
	bl	_raw_spin_lock_irqsave
.Ltmp76:
	.loc	2 498 25                // kernel/block/hisi-blk-busy-idle-notify.c:498:25
	ldr	x8, [x19, #376]
.Ltmp77:
	.file	140 "/mnt/disk/jenkins/ci/workspace/chipset_pipeline_release/opensource/component_code/vendor/huawei/extra/build/build_script/kirin_kernel_release/kernel/include/linux/list.h"
	.loc	140 93 24               // kernel/include/linux/list.h:93:24
	ldr	x11, [x19, #400]
.Ltmp78:
	//DEBUG_VALUE: __list_add:prev <- $x11
	//DEBUG_VALUE: __list_add:next <- $x10
	//DEBUG_VALUE: __list_add:new <- $x9
	.loc	2 497 2                 // kernel/block/hisi-blk-busy-idle-notify.c:497:2
	mov	x1, x0
.Ltmp79:
	//DEBUG_VALUE: hisi_blk_add_bio_to_counted_list:flags <- $x1
	.loc	2 499 22                // kernel/block/hisi-blk-busy-idle-notify.c:499:22
	add	x9, x20, #288           // =288
.Ltmp80:
	.loc	2 499 47 is_stmt 0      // kernel/block/hisi-blk-busy-idle-notify.c:499:47
	add	x10, x19, #392          // =392
.Ltmp81:
	//DEBUG_VALUE: list_add_tail:head <- $x10
	//DEBUG_VALUE: list_add_tail:new <- $x9
	.loc	2 498 25 is_stmt 1      // kernel/block/hisi-blk-busy-idle-notify.c:498:25
	add	x8, x8, #1              // =1
.Ltmp82:
	.loc	139 372 2               // kernel/include/linux/spinlock.h:372:2
	mov	x0, x21
.Ltmp83:
	.loc	140 63 13               // kernel/include/linux/list.h:63:13
	str	x9, [x19, #400]
.Ltmp84:
	.loc	2 498 25                // kernel/block/hisi-blk-busy-idle-notify.c:498:25
	str	x8, [x19, #376]
.Ltmp85:
	.loc	140 64 12               // kernel/include/linux/list.h:64:12
	stp	x10, x11, [x20, #288]
	//DEBUG_VALUE: __list_add:prev <- $x11
	//DEBUG_VALUE: list_add_tail:head <- $x10
.Ltmp86:
	//DEBUG_VALUE: __list_add:next <- $x10
	//DEBUG_VALUE: list_add_tail:new <- $x9
	//DEBUG_VALUE: __list_add:new <- $x9
	//DEBUG_VALUE: __write_once_size:p <- $x11
	//DEBUG_VALUE: __write_once_size:size <- 8
	//DEBUG_VALUE: __write_once_size:res <- undef
	.loc	137 210 31              // kernel/include/linux/compiler.h:210:31
	str	x9, [x11]
.Ltmp87:
	//DEBUG_VALUE: spin_unlock_irqrestore:flags <- $x1
	.loc	139 372 2               // kernel/include/linux/spinlock.h:372:2
	bl	_raw_spin_unlock_irqrestore
.Ltmp88:
	.loc	2 470 6                 // kernel/block/hisi-blk-busy-idle-notify.c:470:6
	ldrb	w8, [x19, #24]
	tbz	w8, #3, .LBB4_4
.Ltmp89:
// %bb.2:
	//DEBUG_VALUE: hisi_blk_busyidle_check_bio:lld <- $x19
	//DEBUG_VALUE: blk_busy_count:lld <- $x19
	//DEBUG_VALUE: blk_busy_count:blk_idle <- [DW_OP_plus_uconst 88, DW_OP_stack_value] $x19
	//DEBUG_VALUE: hisi_blk_busyidle_check_bio:bio <- $x20
	//DEBUG_VALUE: __read_once_size:res <- undef
	//DEBUG_VALUE: __read_once_size:size <- 4
	//DEBUG_VALUE: __read_once_size:p <- [DW_OP_plus_uconst 296, DW_OP_stack_value] $x19
	.loc	137 183 2               // kernel/include/linux/compiler.h:183:2
	ldr	w8, [x19, #296]
.Ltmp90:
	.loc	2 473 6                 // kernel/block/hisi-blk-busy-idle-notify.c:473:6
	cbz	w8, .LBB4_5
.Ltmp91:
.LBB4_3:
	//DEBUG_VALUE: hisi_blk_busyidle_check_bio:lld <- $x19
	//DEBUG_VALUE: blk_busy_count:lld <- $x19
	//DEBUG_VALUE: blk_busy_count:blk_idle <- [DW_OP_plus_uconst 88, DW_OP_stack_value] $x19
	//DEBUG_VALUE: atomic_add:i <- 1
	//DEBUG_LABEL: blk_busy_count:inc_iocount
	.file	141 "/mnt/disk/jenkins/ci/workspace/chipset_pipeline_release/opensource/component_code/vendor/huawei/extra/build/build_script/kirin_kernel_release/kernel/arch/arm64/include/asm/atomic_ll_sc.h"
	.loc	141 113 1               // kernel/arch/arm64/include/asm/atomic_ll_sc.h:113:1
	add	x8, x19, #296           // =296
	//APP
	// atomic_add
	prfm	pstl1strm, [x8]
1:	ldxr	w9, [x8]
	add	w9, w9, #1
	stxr	w10, w9, [x8]
	cbnz	w10, 1b
	//NO_APP
.Ltmp92:
	//DEBUG_VALUE: atomic_add:tmp <- undef
	//DEBUG_VALUE: atomic_add:result <- undef
.LBB4_4:
	.loc	2 565 1                 // kernel/block/hisi-blk-busy-idle-notify.c:565:1
	ldp	x29, x30, [sp, #32]     // 16-byte Folded Reload
	ldp	x20, x19, [sp, #16]     // 16-byte Folded Reload
	ldr	x21, [sp], #48          // 8-byte Folded Reload
	ret
.LBB4_5:
.Ltmp93:
	//DEBUG_VALUE: hisi_blk_busyidle_check_bio:lld <- $x19
	//DEBUG_VALUE: blk_busy_count:lld <- $x19
	//DEBUG_VALUE: blk_busy_count:blk_idle <- [DW_OP_plus_uconst 88, DW_OP_stack_value] $x19
	//DEBUG_VALUE: hisi_blk_busyidle_check_bio:bio <- $x20
	.loc	2 476 24                // kernel/block/hisi-blk-busy-idle-notify.c:476:24
	add	x20, x19, #304          // =304
.Ltmp94:
	.loc	2 476 2 is_stmt 0       // kernel/block/hisi-blk-busy-idle-notify.c:476:2
	mov	x0, x20
	bl	mutex_lock
	.loc	2 477 33 is_stmt 1      // kernel/block/hisi-blk-busy-idle-notify.c:477:33
	add	x0, x19, #96            // =96
	.loc	2 477 2 is_stmt 0       // kernel/block/hisi-blk-busy-idle-notify.c:477:2
	bl	cancel_delayed_work
.Ltmp95:
	.loc	2 483 16 is_stmt 1      // kernel/block/hisi-blk-busy-idle-notify.c:483:16
	ldr	w8, [x19, #368]
.Ltmp96:
	.loc	2 483 6 is_stmt 0       // kernel/block/hisi-blk-busy-idle-notify.c:483:6
	cmp	w8, #1                  // =1
	b.ne	.LBB4_7
.Ltmp97:
// %bb.6:
	//DEBUG_VALUE: hisi_blk_busyidle_check_bio:lld <- $x19
	//DEBUG_VALUE: blk_busy_count:lld <- $x19
	//DEBUG_VALUE: blk_busy_count:blk_idle <- [DW_OP_plus_uconst 88, DW_OP_stack_value] $x19
	.loc	2 463 42 is_stmt 1      // kernel/block/hisi-blk-busy-idle-notify.c:463:42
	add	x0, x19, #216           // =216
	.loc	2 463 2 is_stmt 0       // kernel/block/hisi-blk-busy-idle-notify.c:463:2
	mov	x1, xzr
	mov	x2, xzr
	.loc	2 452 23 is_stmt 1      // kernel/block/hisi-blk-busy-idle-notify.c:452:23
	str	wzr, [x19, #368]
	.loc	2 463 2                 // kernel/block/hisi-blk-busy-idle-notify.c:463:2
	bl	blocking_notifier_call_chain
.Ltmp98:
.LBB4_7:
	//DEBUG_VALUE: hisi_blk_busyidle_check_bio:lld <- $x19
	//DEBUG_VALUE: blk_busy_count:lld <- $x19
	//DEBUG_VALUE: blk_busy_count:blk_idle <- [DW_OP_plus_uconst 88, DW_OP_stack_value] $x19
	.loc	2 486 2                 // kernel/block/hisi-blk-busy-idle-notify.c:486:2
	mov	x0, x20
	bl	mutex_unlock
	b	.LBB4_3
.Ltmp99:
.Lfunc_end4:
	.size	hisi_blk_busyidle_check_bio, .Lfunc_end4-hisi_blk_busyidle_check_bio
	.cfi_endproc
                                        // -- End function
	.globl	hisi_blk_busyidle_check_request_bio // -- Begin function hisi_blk_busyidle_check_request_bio
	.p2align	2
	.type	hisi_blk_busyidle_check_request_bio,@function
hisi_blk_busyidle_check_request_bio:    // @hisi_blk_busyidle_check_request_bio
.Lfunc_begin5:
	.loc	2 572 0                 // kernel/block/hisi-blk-busy-idle-notify.c:572:0
	.cfi_startproc
// %bb.0:
	//DEBUG_VALUE: hisi_blk_busyidle_check_request_bio:q <- $x0
	//DEBUG_VALUE: hisi_blk_busyidle_check_request_bio:rq <- $x1
	//DEBUG_VALUE: hisi_blk_busyidle_check_request_bio:rq <- $x1
	stp	x20, x19, [sp, #-32]!   // 16-byte Folded Spill
	stp	x29, x30, [sp, #16]     // 16-byte Folded Spill
	add	x29, sp, #16            // =16
	.cfi_def_cfa w29, 16
	.cfi_offset w30, -8
	.cfi_offset w29, -16
	.cfi_offset w19, -24
	.cfi_offset w20, -32
.Ltmp100:
	.loc	2 573 24 prologue_end   // kernel/block/hisi-blk-busy-idle-notify.c:573:24
	ldr	x19, [x1, #120]
.Ltmp101:
	//DEBUG_VALUE: hisi_blk_busyidle_check_request_bio:bio <- $x19
	.loc	2 575 6                 // kernel/block/hisi-blk-busy-idle-notify.c:575:6
	cbz	x19, .LBB5_4
.Ltmp102:
// %bb.1:
	//DEBUG_VALUE: hisi_blk_busyidle_check_request_bio:bio <- $x19
	//DEBUG_VALUE: hisi_blk_busyidle_check_request_bio:rq <- $x1
	//DEBUG_VALUE: hisi_blk_busyidle_check_request_bio:q <- $x0
	.loc	2 0 6 is_stmt 0         // kernel/block/hisi-blk-busy-idle-notify.c:0:6
	mov	x20, x0
.Ltmp103:
	//DEBUG_VALUE: hisi_blk_busyidle_check_request_bio:q <- $x20
.LBB5_2:                                // =>This Inner Loop Header: Depth=1
	//DEBUG_VALUE: hisi_blk_busyidle_check_request_bio:q <- $x20
	//DEBUG_VALUE: hisi_blk_busyidle_check_request_bio:bio <- $x19
	//DEBUG_VALUE: hisi_blk_busyidle_check_request_bio:rq <- $x1
	//DEBUG_VALUE: hisi_blk_busyidle_check_request_bio:bio <- $x19
	.loc	2 577 4 is_stmt 1       // kernel/block/hisi-blk-busy-idle-notify.c:577:4
	mov	x0, x20
	mov	x1, x19
.Ltmp104:
	bl	hisi_blk_busyidle_check_bio
	.loc	2 578 15                // kernel/block/hisi-blk-busy-idle-notify.c:578:15
	ldr	x19, [x19]
.Ltmp105:
	//DEBUG_VALUE: hisi_blk_busyidle_check_request_bio:bio <- $x19
	.loc	2 579 3                 // kernel/block/hisi-blk-busy-idle-notify.c:579:3
	cbnz	x19, .LBB5_2
.Ltmp106:
// %bb.3:
	//DEBUG_VALUE: hisi_blk_busyidle_check_request_bio:q <- $x20
	//DEBUG_VALUE: hisi_blk_busyidle_check_request_bio:bio <- $x19
	.loc	2 0 3 is_stmt 0         // kernel/block/hisi-blk-busy-idle-notify.c:0:3
	orr	w0, wzr, #0x1
	b	.LBB5_5
.Ltmp107:
.LBB5_4:
	//DEBUG_VALUE: hisi_blk_busyidle_check_request_bio:bio <- $x19
	//DEBUG_VALUE: hisi_blk_busyidle_check_request_bio:rq <- $x1
	//DEBUG_VALUE: hisi_blk_busyidle_check_request_bio:q <- $x0
	mov	w0, wzr
.Ltmp108:
.LBB5_5:
	//DEBUG_VALUE: hisi_blk_busyidle_check_request_bio:bio <- $x19
	.loc	2 583 1 is_stmt 1       // kernel/block/hisi-blk-busy-idle-notify.c:583:1
	ldp	x29, x30, [sp, #16]     // 16-byte Folded Reload
	ldp	x20, x19, [sp], #32     // 16-byte Folded Reload
.Ltmp109:
	ret
.Ltmp110:
.Lfunc_end5:
	.size	hisi_blk_busyidle_check_request_bio, .Lfunc_end5-hisi_blk_busyidle_check_request_bio
	.cfi_endproc
                                        // -- End function
	.globl	hisi_blk_busyidle_end_rq // -- Begin function hisi_blk_busyidle_end_rq
	.p2align	2
	.type	hisi_blk_busyidle_end_rq,@function
hisi_blk_busyidle_end_rq:               // @hisi_blk_busyidle_end_rq
.Lfunc_begin6:
	.loc	2 586 0                 // kernel/block/hisi-blk-busy-idle-notify.c:586:0
	.cfi_startproc
// %bb.0:
	//DEBUG_VALUE: hisi_blk_busyidle_end_rq:rq <- $x0
	//DEBUG_VALUE: hisi_blk_busyidle_end_rq:error <- $w1
	stp	x22, x21, [sp, #-48]!   // 16-byte Folded Spill
	stp	x20, x19, [sp, #16]     // 16-byte Folded Spill
	stp	x29, x30, [sp, #32]     // 16-byte Folded Spill
	add	x29, sp, #32            // =32
	.cfi_def_cfa w29, 16
	.cfi_offset w30, -8
	.cfi_offset w29, -16
	.cfi_offset w19, -24
	.cfi_offset w20, -32
	.cfi_offset w21, -40
	.cfi_offset w22, -48
	mov	x19, x0
.Ltmp111:
	//DEBUG_VALUE: hisi_blk_busyidle_end_rq:rq <- $x19
	.loc	2 587 49 prologue_end   // kernel/block/hisi-blk-busy-idle-notify.c:587:49
	ldr	x0, [x0, #64]
	mov	w20, w1
.Ltmp112:
	//DEBUG_VALUE: hisi_blk_busyidle_end_rq:error <- $w20
	.loc	2 587 28 is_stmt 0      // kernel/block/hisi-blk-busy-idle-notify.c:587:28
	bl	hisi_blk_get_lld
.Ltmp113:
	.loc	2 537 6 is_stmt 1       // kernel/block/hisi-blk-busy-idle-notify.c:537:6
	ldr	x8, [x0, #384]
.Ltmp114:
	.loc	2 587 28                // kernel/block/hisi-blk-busy-idle-notify.c:587:28
	mov	x21, x0
.Ltmp115:
	//DEBUG_VALUE: hisi_blk_remove_rq_from_counted_list:lld <- $x21
	//DEBUG_VALUE: hisi_blk_busyidle_end_rq:lld <- $x21
	//DEBUG_VALUE: spinlock_check:lock <- [DW_OP_plus_uconst 424, DW_OP_stack_value] $x21
	//DEBUG_VALUE: spin_unlock_irqrestore:lock <- [DW_OP_plus_uconst 424, DW_OP_stack_value] $x21
	//DEBUG_VALUE: blk_idle_count:lld <- $x21
	//DEBUG_VALUE: blk_idle_count:blk_idle <- [DW_OP_plus_uconst 88, DW_OP_stack_value] $x21
	//DEBUG_VALUE: atomic_sub_return:v <- [DW_OP_plus_uconst 296, DW_OP_stack_value] $x21
	//DEBUG_VALUE: blk_lld_idle_notify:lld <- $x21
	//DEBUG_VALUE: hisi_blk_remove_rq_from_counted_list:rq <- $x19
	.loc	2 537 6                 // kernel/block/hisi-blk-busy-idle-notify.c:537:6
	cbz	x8, .LBB6_2
.Ltmp116:
// %bb.1:
	//DEBUG_VALUE: hisi_blk_remove_rq_from_counted_list:rq <- $x19
	//DEBUG_VALUE: spin_unlock_irqrestore:lock <- [DW_OP_plus_uconst 424, DW_OP_stack_value] $x21
	//DEBUG_VALUE: spinlock_check:lock <- [DW_OP_plus_uconst 424, DW_OP_stack_value] $x21
	//DEBUG_VALUE: hisi_blk_busyidle_end_rq:lld <- $x21
	//DEBUG_VALUE: hisi_blk_remove_rq_from_counted_list:lld <- $x21
	//DEBUG_VALUE: hisi_blk_busyidle_end_rq:error <- $w20
	//DEBUG_VALUE: hisi_blk_busyidle_end_rq:rq <- $x19
	.loc	139 306 16              // kernel/include/linux/spinlock.h:306:16
	add	x22, x21, #424          // =424
.Ltmp117:
	.loc	2 544 2                 // kernel/block/hisi-blk-busy-idle-notify.c:544:2
	mov	x0, x22
	bl	_raw_spin_lock_irqsave
.Ltmp118:
	.loc	2 545 25                // kernel/block/hisi-blk-busy-idle-notify.c:545:25
	ldr	x8, [x21, #384]
.Ltmp119:
	.loc	2 544 2                 // kernel/block/hisi-blk-busy-idle-notify.c:544:2
	mov	x1, x0
.Ltmp120:
	//DEBUG_VALUE: hisi_blk_remove_rq_from_counted_list:flags <- $x1
	.loc	2 546 21                // kernel/block/hisi-blk-busy-idle-notify.c:546:21
	add	x10, x19, #456          // =456
.Ltmp121:
	//DEBUG_VALUE: __list_del_entry:entry <- $x10
	//DEBUG_VALUE: list_del_init:entry <- $x10
	//DEBUG_VALUE: __list_del:prev <- $x9
	//DEBUG_VALUE: __list_del:next <- $x8
	.loc	139 372 2               // kernel/include/linux/spinlock.h:372:2
	mov	x0, x22
.Ltmp122:
	.loc	2 545 25                // kernel/block/hisi-blk-busy-idle-notify.c:545:25
	sub	x8, x8, #1              // =1
.Ltmp123:
	str	x8, [x21, #384]
.Ltmp124:
	.loc	140 120 33              // kernel/include/linux/list.h:120:33
	ldp	x8, x9, [x19, #456]
.Ltmp125:
	.loc	140 105 13              // kernel/include/linux/list.h:105:13
	str	x9, [x8, #8]
.Ltmp126:
	//DEBUG_VALUE: __write_once_size:p <- $x9
	//DEBUG_VALUE: __write_once_size:size <- 8
	//DEBUG_VALUE: __write_once_size:res <- undef
	.loc	137 210 31              // kernel/include/linux/compiler.h:210:31
	str	x8, [x9]
.Ltmp127:
	//DEBUG_VALUE: __write_once_size:p <- $x10
	//DEBUG_VALUE: __write_once_size:size <- 8
	//DEBUG_VALUE: __write_once_size:res <- undef
	//DEBUG_VALUE: INIT_LIST_HEAD:list <- $x10
	.loc	137 210 31 is_stmt 0    // kernel/include/linux/compiler.h:210:31
	str	x10, [x19, #456]
.Ltmp128:
	.loc	140 29 13 is_stmt 1     // kernel/include/linux/list.h:29:13
	str	x10, [x19, #464]
.Ltmp129:
	//DEBUG_VALUE: spin_unlock_irqrestore:flags <- $x1
	.loc	139 372 2               // kernel/include/linux/spinlock.h:372:2
	bl	_raw_spin_unlock_irqrestore
.Ltmp130:
.LBB6_2:
	//DEBUG_VALUE: hisi_blk_busyidle_end_rq:lld <- $x21
	//DEBUG_VALUE: hisi_blk_busyidle_end_rq:error <- $w20
	//DEBUG_VALUE: hisi_blk_busyidle_end_rq:rq <- $x19
	.loc	2 433 6                 // kernel/block/hisi-blk-busy-idle-notify.c:433:6
	ldrb	w8, [x21, #24]
	tbz	w8, #3, .LBB6_6
.Ltmp131:
// %bb.3:
	//DEBUG_VALUE: hisi_blk_busyidle_end_rq:lld <- $x21
	//DEBUG_VALUE: hisi_blk_busyidle_end_rq:error <- $w20
	//DEBUG_VALUE: hisi_blk_busyidle_end_rq:rq <- $x19
	.loc	2 436 16                // kernel/block/hisi-blk-busy-idle-notify.c:436:16
	ldrb	w8, [x21, #88]
.Ltmp132:
	.loc	2 436 6 is_stmt 0       // kernel/block/hisi-blk-busy-idle-notify.c:436:6
	cbnz	w8, .LBB6_6
.Ltmp133:
// %bb.4:
	//DEBUG_VALUE: hisi_blk_busyidle_end_rq:lld <- $x21
	//DEBUG_VALUE: hisi_blk_busyidle_end_rq:error <- $w20
	//DEBUG_VALUE: hisi_blk_busyidle_end_rq:rq <- $x19
	//DEBUG_VALUE: __read_once_size:res <- undef
	//DEBUG_VALUE: __read_once_size:size <- 4
	//DEBUG_VALUE: __read_once_size:p <- [DW_OP_plus_uconst 296, DW_OP_stack_value] $x21
	.loc	137 183 2 is_stmt 1     // kernel/include/linux/compiler.h:183:2
	ldr	w8, [x21, #296]
.Ltmp134:
	.loc	2 438 6                 // kernel/block/hisi-blk-busy-idle-notify.c:438:6
	cbz	w8, .LBB6_9
.Ltmp135:
// %bb.5:
	//DEBUG_VALUE: hisi_blk_busyidle_end_rq:lld <- $x21
	//DEBUG_VALUE: hisi_blk_busyidle_end_rq:error <- $w20
	//DEBUG_VALUE: hisi_blk_busyidle_end_rq:rq <- $x19
	//DEBUG_VALUE: atomic_sub_return:i <- 1
	.loc	141 114 1               // kernel/arch/arm64/include/asm/atomic_ll_sc.h:114:1
	add	x8, x21, #296           // =296
	//APP
	// atomic_sub_return
	prfm	pstl1strm, [x8]
1:	ldxr	w9, [x8]
	sub	w9, w9, #1
	stlxr	w10, w9, [x8]
	cbnz	w10, 1b
	dmb ish
	//NO_APP
.Ltmp136:
	//DEBUG_VALUE: atomic_sub_return:tmp <- undef
	//DEBUG_VALUE: atomic_sub_return:result <- $w9
	.loc	2 446 6                 // kernel/block/hisi-blk-busy-idle-notify.c:446:6
	cbz	w9, .LBB6_10
.Ltmp137:
.LBB6_6:
	//DEBUG_VALUE: hisi_blk_busyidle_end_rq:lld <- $x21
	//DEBUG_VALUE: hisi_blk_busyidle_end_rq:error <- $w20
	//DEBUG_VALUE: hisi_blk_busyidle_end_rq:rq <- $x19
	.loc	2 592 19                // kernel/block/hisi-blk-busy-idle-notify.c:592:19
	ldr	x8, [x19, #288]
.Ltmp138:
	.loc	2 592 6 is_stmt 0       // kernel/block/hisi-blk-busy-idle-notify.c:592:6
	cbz	x8, .LBB6_8
.Ltmp139:
.LBB6_7:
	//DEBUG_VALUE: hisi_blk_busyidle_end_rq:error <- $w20
	//DEBUG_VALUE: hisi_blk_busyidle_end_rq:rq <- $x19
	//DEBUG_VALUE: hisi_blk_busyidle_end_rq:error <- $w20
	.loc	2 593 3 is_stmt 1       // kernel/block/hisi-blk-busy-idle-notify.c:593:3
	mov	x0, x19
	mov	w1, w20
	blr	x8
.Ltmp140:
.LBB6_8:
	//DEBUG_VALUE: hisi_blk_busyidle_end_rq:error <- $w20
	//DEBUG_VALUE: hisi_blk_busyidle_end_rq:rq <- $x19
	.loc	2 594 1                 // kernel/block/hisi-blk-busy-idle-notify.c:594:1
	ldp	x29, x30, [sp, #32]     // 16-byte Folded Reload
	ldp	x20, x19, [sp, #16]     // 16-byte Folded Reload
.Ltmp141:
	ldp	x22, x21, [sp], #48     // 16-byte Folded Reload
	ret
.LBB6_9:
.Ltmp142:
	//DEBUG_VALUE: hisi_blk_busyidle_end_rq:lld <- $x21
	//DEBUG_VALUE: hisi_blk_busyidle_end_rq:error <- $w20
	//DEBUG_VALUE: hisi_blk_busyidle_end_rq:rq <- $x19
	.loc	2 439 3                 // kernel/block/hisi-blk-busy-idle-notify.c:439:3
	adrp	x0, .L.str.12
	adrp	x1, .L__func__.blk_idle_count
	add	x0, x0, :lo12:.L.str.12
	add	x1, x1, :lo12:.L__func__.blk_idle_count
	bl	printk
.Ltmp143:
	.loc	2 592 19                // kernel/block/hisi-blk-busy-idle-notify.c:592:19
	ldr	x8, [x19, #288]
.Ltmp144:
	.loc	2 592 6 is_stmt 0       // kernel/block/hisi-blk-busy-idle-notify.c:592:6
	cbnz	x8, .LBB6_7
	b	.LBB6_8
.Ltmp145:
.LBB6_10:
	//DEBUG_VALUE: hisi_blk_busyidle_end_rq:lld <- $x21
	//DEBUG_VALUE: hisi_blk_busyidle_end_rq:error <- $w20
	//DEBUG_VALUE: hisi_blk_busyidle_end_rq:rq <- $x19
	.loc	2 278 6 is_stmt 1       // kernel/block/hisi-blk-busy-idle-notify.c:278:6
	ldr	w8, [x21]
.Ltmp146:
	.loc	2 278 6 is_stmt 0       // kernel/block/hisi-blk-busy-idle-notify.c:278:6
	cmp	w8, #122                // =122
	b.ne	.LBB6_6
.Ltmp147:
// %bb.11:
	//DEBUG_VALUE: hisi_blk_busyidle_end_rq:lld <- $x21
	//DEBUG_VALUE: hisi_blk_busyidle_end_rq:error <- $w20
	//DEBUG_VALUE: hisi_blk_busyidle_end_rq:rq <- $x19
	.loc	2 279 22 is_stmt 1      // kernel/block/hisi-blk-busy-idle-notify.c:279:22
	adrp	x8, blk_idle_notify_workqueue
	.loc	2 282 35                // kernel/block/hisi-blk-busy-idle-notify.c:282:35
	ldr	w0, [x21, #192]
	.loc	2 279 22                // kernel/block/hisi-blk-busy-idle-notify.c:279:22
	ldr	x22, [x8, :lo12:blk_idle_notify_workqueue]
	.loc	2 281 6                 // kernel/block/hisi-blk-busy-idle-notify.c:281:6
	add	x21, x21, #96           // =96
.Ltmp148:
	//DEBUG_VALUE: msecs_to_jiffies:m <- $w0
	.loc	138 370 10              // kernel/include/linux/jiffies.h:370:10
	bl	__msecs_to_jiffies
.Ltmp149:
	mov	x3, x0
.Ltmp150:
	//DEBUG_VALUE: queue_delayed_work:delay <- $x3
	//DEBUG_VALUE: queue_delayed_work:dwork <- $x21
	//DEBUG_VALUE: queue_delayed_work:wq <- $x22
	.loc	20 506 9                // kernel/include/linux/workqueue.h:506:9
	orr	w0, wzr, #0x8
	mov	x1, x22
	mov	x2, x21
	bl	queue_delayed_work_on
.Ltmp151:
	.loc	2 592 19                // kernel/block/hisi-blk-busy-idle-notify.c:592:19
	ldr	x8, [x19, #288]
.Ltmp152:
	.loc	2 592 6 is_stmt 0       // kernel/block/hisi-blk-busy-idle-notify.c:592:6
	cbnz	x8, .LBB6_7
	b	.LBB6_8
.Ltmp153:
.Lfunc_end6:
	.size	hisi_blk_busyidle_end_rq, .Lfunc_end6-hisi_blk_busyidle_end_rq
	.cfi_endproc
                                        // -- End function
	.globl	hisi_blk_busyidle_check_execute_request // -- Begin function hisi_blk_busyidle_check_execute_request
	.p2align	2
	.type	hisi_blk_busyidle_check_execute_request,@function
hisi_blk_busyidle_check_execute_request: // @hisi_blk_busyidle_check_execute_request
.Lfunc_begin7:
	.loc	2 602 0 is_stmt 1       // kernel/block/hisi-blk-busy-idle-notify.c:602:0
	.cfi_startproc
// %bb.0:
	//DEBUG_VALUE: hisi_blk_busyidle_check_execute_request:q <- $x0
	//DEBUG_VALUE: hisi_blk_busyidle_check_execute_request:rq <- $x1
	//DEBUG_VALUE: hisi_blk_busyidle_check_execute_request:done <- $x2
	//DEBUG_VALUE: hisi_blk_busyidle_check_request_bio:q <- $x0
	//DEBUG_VALUE: hisi_blk_busyidle_check_request_bio:rq <- $x1
	stp	x22, x21, [sp, #-48]!   // 16-byte Folded Spill
	stp	x20, x19, [sp, #16]     // 16-byte Folded Spill
	stp	x29, x30, [sp, #32]     // 16-byte Folded Spill
	add	x29, sp, #32            // =32
	.cfi_def_cfa w29, 16
	.cfi_offset w30, -8
	.cfi_offset w29, -16
	.cfi_offset w19, -24
	.cfi_offset w20, -32
	.cfi_offset w21, -40
	.cfi_offset w22, -48
.Ltmp154:
	.loc	2 573 24 prologue_end   // kernel/block/hisi-blk-busy-idle-notify.c:573:24
	ldr	x21, [x1, #120]
.Ltmp155:
	//DEBUG_VALUE: hisi_blk_busyidle_check_request_bio:bio <- $x21
	.loc	2 0 24 is_stmt 0        // kernel/block/hisi-blk-busy-idle-notify.c:0:24
	mov	x19, x2
	mov	x20, x1
.Ltmp156:
	//DEBUG_VALUE: hisi_blk_busyidle_check_request_bio:rq <- $x20
	//DEBUG_VALUE: hisi_blk_busyidle_check_execute_request:done <- $x19
	//DEBUG_VALUE: hisi_blk_busyidle_check_execute_request:rq <- $x20
	.loc	2 575 6 is_stmt 1       // kernel/block/hisi-blk-busy-idle-notify.c:575:6
	cbz	x21, .LBB7_4
.Ltmp157:
// %bb.1:
	//DEBUG_VALUE: hisi_blk_busyidle_check_execute_request:rq <- $x20
	//DEBUG_VALUE: hisi_blk_busyidle_check_execute_request:done <- $x19
	//DEBUG_VALUE: hisi_blk_busyidle_check_request_bio:rq <- $x20
	//DEBUG_VALUE: hisi_blk_busyidle_check_request_bio:bio <- $x21
	//DEBUG_VALUE: hisi_blk_busyidle_check_request_bio:q <- $x0
	//DEBUG_VALUE: hisi_blk_busyidle_check_execute_request:q <- $x0
	.loc	2 0 6 is_stmt 0         // kernel/block/hisi-blk-busy-idle-notify.c:0:6
	mov	x22, x0
.Ltmp158:
	//DEBUG_VALUE: hisi_blk_busyidle_check_execute_request:q <- $x22
	//DEBUG_VALUE: hisi_blk_busyidle_check_request_bio:q <- $x22
.LBB7_2:                                // =>This Inner Loop Header: Depth=1
	//DEBUG_VALUE: hisi_blk_busyidle_check_request_bio:q <- $x22
	//DEBUG_VALUE: hisi_blk_busyidle_check_execute_request:q <- $x22
	//DEBUG_VALUE: hisi_blk_busyidle_check_execute_request:rq <- $x20
	//DEBUG_VALUE: hisi_blk_busyidle_check_execute_request:done <- $x19
	//DEBUG_VALUE: hisi_blk_busyidle_check_request_bio:rq <- $x20
	//DEBUG_VALUE: hisi_blk_busyidle_check_request_bio:bio <- $x21
	//DEBUG_VALUE: hisi_blk_busyidle_check_request_bio:bio <- $x21
	.loc	2 577 4 is_stmt 1       // kernel/block/hisi-blk-busy-idle-notify.c:577:4
	mov	x0, x22
	mov	x1, x21
	bl	hisi_blk_busyidle_check_bio
	.loc	2 578 15                // kernel/block/hisi-blk-busy-idle-notify.c:578:15
	ldr	x21, [x21]
.Ltmp159:
	//DEBUG_VALUE: hisi_blk_busyidle_check_request_bio:bio <- $x21
	.loc	2 579 3                 // kernel/block/hisi-blk-busy-idle-notify.c:579:3
	cbnz	x21, .LBB7_2
.Ltmp160:
// %bb.3:
	//DEBUG_VALUE: hisi_blk_busyidle_check_execute_request:q <- $x22
	//DEBUG_VALUE: hisi_blk_busyidle_check_execute_request:rq <- $x20
	//DEBUG_VALUE: hisi_blk_busyidle_check_execute_request:done <- $x19
	.loc	2 611 7                 // kernel/block/hisi-blk-busy-idle-notify.c:611:7
	add	x8, x20, #552           // =552
	b	.LBB7_8
.Ltmp161:
.LBB7_4:
	//DEBUG_VALUE: hisi_blk_busyidle_check_execute_request:rq <- $x20
	//DEBUG_VALUE: hisi_blk_busyidle_check_execute_request:done <- $x19
	//DEBUG_VALUE: hisi_blk_busyidle_check_execute_request:q <- $x0
	.loc	2 604 50                // kernel/block/hisi-blk-busy-idle-notify.c:604:50
	ldr	x0, [x20, #64]
.Ltmp162:
	.loc	2 604 29 is_stmt 0      // kernel/block/hisi-blk-busy-idle-notify.c:604:29
	bl	hisi_blk_get_lld
.Ltmp163:
	.loc	139 306 16 is_stmt 1    // kernel/include/linux/spinlock.h:306:16
	add	x22, x0, #424           // =424
.Ltmp164:
	.loc	2 604 29                // kernel/block/hisi-blk-busy-idle-notify.c:604:29
	mov	x21, x0
.Ltmp165:
	//DEBUG_VALUE: hisi_blk_add_rq_to_counted_list:rq <- $x20
	//DEBUG_VALUE: spinlock_check:lock <- [DW_OP_plus_uconst 424, DW_OP_stack_value] $x21
	//DEBUG_VALUE: hisi_blk_add_rq_to_counted_list:lld <- $x21
	//DEBUG_VALUE: lld <- $x21
	//DEBUG_VALUE: blk_idle_to_busy:blk_idle <- [DW_OP_plus_uconst 88, DW_OP_stack_value] $x21
	//DEBUG_VALUE: atomic_add:v <- [DW_OP_plus_uconst 296, DW_OP_stack_value] $x21
	.loc	2 526 2                 // kernel/block/hisi-blk-busy-idle-notify.c:526:2
	mov	x0, x22
	bl	_raw_spin_lock_irqsave
.Ltmp166:
	.loc	2 527 25                // kernel/block/hisi-blk-busy-idle-notify.c:527:25
	ldr	x8, [x21, #384]
.Ltmp167:
	.loc	140 93 24               // kernel/include/linux/list.h:93:24
	ldr	x11, [x21, #416]
.Ltmp168:
	//DEBUG_VALUE: __list_add:prev <- $x11
	//DEBUG_VALUE: __list_add:next <- $x10
	//DEBUG_VALUE: __list_add:new <- $x9
	.loc	2 526 2                 // kernel/block/hisi-blk-busy-idle-notify.c:526:2
	mov	x1, x0
.Ltmp169:
	//DEBUG_VALUE: hisi_blk_add_rq_to_counted_list:flags <- $x1
	.loc	2 528 21                // kernel/block/hisi-blk-busy-idle-notify.c:528:21
	add	x9, x20, #456           // =456
.Ltmp170:
	.loc	2 528 46 is_stmt 0      // kernel/block/hisi-blk-busy-idle-notify.c:528:46
	add	x10, x21, #408          // =408
.Ltmp171:
	//DEBUG_VALUE: list_add_tail:head <- $x10
	//DEBUG_VALUE: list_add_tail:new <- $x9
	.loc	2 527 25 is_stmt 1      // kernel/block/hisi-blk-busy-idle-notify.c:527:25
	add	x8, x8, #1              // =1
.Ltmp172:
	.loc	139 372 2               // kernel/include/linux/spinlock.h:372:2
	mov	x0, x22
.Ltmp173:
	.loc	140 63 13               // kernel/include/linux/list.h:63:13
	str	x9, [x21, #416]
.Ltmp174:
	.loc	2 527 25                // kernel/block/hisi-blk-busy-idle-notify.c:527:25
	str	x8, [x21, #384]
.Ltmp175:
	.loc	140 64 12               // kernel/include/linux/list.h:64:12
	stp	x10, x11, [x20, #456]
	//DEBUG_VALUE: __list_add:prev <- $x11
	//DEBUG_VALUE: list_add_tail:head <- $x10
.Ltmp176:
	//DEBUG_VALUE: __list_add:next <- $x10
	//DEBUG_VALUE: list_add_tail:new <- $x9
	//DEBUG_VALUE: __list_add:new <- $x9
	//DEBUG_VALUE: __write_once_size:p <- $x11
	//DEBUG_VALUE: __write_once_size:size <- 8
	//DEBUG_VALUE: __write_once_size:res <- undef
	.loc	137 210 31              // kernel/include/linux/compiler.h:210:31
	str	x9, [x11]
.Ltmp177:
	//DEBUG_VALUE: spin_unlock_irqrestore:flags <- $x1
	//DEBUG_VALUE: spin_unlock_irqrestore:lock <- [DW_OP_plus_uconst 424, DW_OP_stack_value] $x21
	.loc	139 372 2               // kernel/include/linux/spinlock.h:372:2
	bl	_raw_spin_unlock_irqrestore
.Ltmp178:
	//DEBUG_VALUE: blk_busy_count:lld <- $x21
	//DEBUG_VALUE: blk_busy_count:blk_idle <- [DW_OP_plus_uconst 88, DW_OP_stack_value] $x21
	.loc	2 470 6                 // kernel/block/hisi-blk-busy-idle-notify.c:470:6
	ldrb	w8, [x21, #24]
	tbz	w8, #3, .LBB7_7
.Ltmp179:
// %bb.5:
	//DEBUG_VALUE: blk_busy_count:blk_idle <- [DW_OP_plus_uconst 88, DW_OP_stack_value] $x21
	//DEBUG_VALUE: blk_busy_count:lld <- $x21
	//DEBUG_VALUE: lld <- $x21
	//DEBUG_VALUE: hisi_blk_busyidle_check_execute_request:rq <- $x20
	//DEBUG_VALUE: hisi_blk_busyidle_check_execute_request:done <- $x19
	//DEBUG_VALUE: __read_once_size:res <- undef
	//DEBUG_VALUE: __read_once_size:size <- 4
	//DEBUG_VALUE: __read_once_size:p <- [DW_OP_plus_uconst 296, DW_OP_stack_value] $x21
	.loc	137 183 2               // kernel/include/linux/compiler.h:183:2
	ldr	w8, [x21, #296]
.Ltmp180:
	.loc	2 473 6                 // kernel/block/hisi-blk-busy-idle-notify.c:473:6
	cbz	w8, .LBB7_9
.Ltmp181:
.LBB7_6:
	//DEBUG_VALUE: blk_busy_count:blk_idle <- [DW_OP_plus_uconst 88, DW_OP_stack_value] $x21
	//DEBUG_VALUE: blk_busy_count:lld <- $x21
	//DEBUG_VALUE: lld <- $x21
	//DEBUG_VALUE: hisi_blk_busyidle_check_execute_request:rq <- $x20
	//DEBUG_VALUE: hisi_blk_busyidle_check_execute_request:done <- $x19
	//DEBUG_VALUE: atomic_add:i <- 1
	//DEBUG_LABEL: blk_busy_count:inc_iocount
	.loc	141 113 1               // kernel/arch/arm64/include/asm/atomic_ll_sc.h:113:1
	add	x8, x21, #296           // =296
	//APP
	// atomic_add
	prfm	pstl1strm, [x8]
1:	ldxr	w9, [x8]
	add	w9, w9, #1
	stxr	w10, w9, [x8]
	cbnz	w10, 1b
	//NO_APP
.Ltmp182:
	//DEBUG_VALUE: atomic_add:tmp <- undef
	//DEBUG_VALUE: atomic_add:result <- undef
.LBB7_7:
	//DEBUG_VALUE: lld <- $x21
	//DEBUG_VALUE: hisi_blk_busyidle_check_execute_request:rq <- $x20
	//DEBUG_VALUE: hisi_blk_busyidle_check_execute_request:done <- $x19
	.loc	2 608 14                // kernel/block/hisi-blk-busy-idle-notify.c:608:14
	adrp	x8, __cfi_hisi_blk_busyidle_end_rq
	add	x8, x8, :lo12:__cfi_hisi_blk_busyidle_end_rq
	str	x8, [x20, #552]
	.loc	2 609 16                // kernel/block/hisi-blk-busy-idle-notify.c:609:16
	add	x8, x20, #288           // =288
.Ltmp183:
.LBB7_8:
	//DEBUG_VALUE: hisi_blk_busyidle_check_execute_request:rq <- $x20
	//DEBUG_VALUE: hisi_blk_busyidle_check_execute_request:done <- $x19
	.loc	2 0 0 is_stmt 0         // kernel/block/hisi-blk-busy-idle-notify.c:0:0
	str	x19, [x8]
.Ltmp184:
	.loc	2 613 1 is_stmt 1       // kernel/block/hisi-blk-busy-idle-notify.c:613:1
	ldp	x29, x30, [sp, #32]     // 16-byte Folded Reload
	ldp	x20, x19, [sp, #16]     // 16-byte Folded Reload
.Ltmp185:
	ldp	x22, x21, [sp], #48     // 16-byte Folded Reload
	ret
.LBB7_9:
.Ltmp186:
	//DEBUG_VALUE: blk_busy_count:blk_idle <- [DW_OP_plus_uconst 88, DW_OP_stack_value] $x21
	//DEBUG_VALUE: blk_busy_count:lld <- $x21
	//DEBUG_VALUE: lld <- $x21
	//DEBUG_VALUE: hisi_blk_busyidle_check_execute_request:rq <- $x20
	//DEBUG_VALUE: hisi_blk_busyidle_check_execute_request:done <- $x19
	.loc	2 476 24                // kernel/block/hisi-blk-busy-idle-notify.c:476:24
	add	x22, x21, #304          // =304
	.loc	2 476 2 is_stmt 0       // kernel/block/hisi-blk-busy-idle-notify.c:476:2
	mov	x0, x22
	bl	mutex_lock
	.loc	2 477 33 is_stmt 1      // kernel/block/hisi-blk-busy-idle-notify.c:477:33
	add	x0, x21, #96            // =96
	.loc	2 477 2 is_stmt 0       // kernel/block/hisi-blk-busy-idle-notify.c:477:2
	bl	cancel_delayed_work
.Ltmp187:
	.loc	2 483 16 is_stmt 1      // kernel/block/hisi-blk-busy-idle-notify.c:483:16
	ldr	w8, [x21, #368]
.Ltmp188:
	.loc	2 483 6 is_stmt 0       // kernel/block/hisi-blk-busy-idle-notify.c:483:6
	cmp	w8, #1                  // =1
	b.ne	.LBB7_11
.Ltmp189:
// %bb.10:
	//DEBUG_VALUE: blk_busy_count:blk_idle <- [DW_OP_plus_uconst 88, DW_OP_stack_value] $x21
	//DEBUG_VALUE: blk_busy_count:lld <- $x21
	//DEBUG_VALUE: lld <- $x21
	//DEBUG_VALUE: hisi_blk_busyidle_check_execute_request:rq <- $x20
	//DEBUG_VALUE: hisi_blk_busyidle_check_execute_request:done <- $x19
	.loc	2 463 42 is_stmt 1      // kernel/block/hisi-blk-busy-idle-notify.c:463:42
	add	x0, x21, #216           // =216
	.loc	2 463 2 is_stmt 0       // kernel/block/hisi-blk-busy-idle-notify.c:463:2
	mov	x1, xzr
	mov	x2, xzr
	.loc	2 452 23 is_stmt 1      // kernel/block/hisi-blk-busy-idle-notify.c:452:23
	str	wzr, [x21, #368]
	.loc	2 463 2                 // kernel/block/hisi-blk-busy-idle-notify.c:463:2
	bl	blocking_notifier_call_chain
.Ltmp190:
.LBB7_11:
	//DEBUG_VALUE: blk_busy_count:blk_idle <- [DW_OP_plus_uconst 88, DW_OP_stack_value] $x21
	//DEBUG_VALUE: blk_busy_count:lld <- $x21
	//DEBUG_VALUE: lld <- $x21
	//DEBUG_VALUE: hisi_blk_busyidle_check_execute_request:rq <- $x20
	//DEBUG_VALUE: hisi_blk_busyidle_check_execute_request:done <- $x19
	.loc	2 486 2                 // kernel/block/hisi-blk-busy-idle-notify.c:486:2
	mov	x0, x22
	bl	mutex_unlock
	b	.LBB7_6
.Ltmp191:
.Lfunc_end7:
	.size	hisi_blk_busyidle_check_execute_request, .Lfunc_end7-hisi_blk_busyidle_check_execute_request
	.cfi_endproc
                                        // -- End function
	.globl	hisi_blk_busyidle_check_bio_endio // -- Begin function hisi_blk_busyidle_check_bio_endio
	.p2align	2
	.type	hisi_blk_busyidle_check_bio_endio,@function
hisi_blk_busyidle_check_bio_endio:      // @hisi_blk_busyidle_check_bio_endio
.Lfunc_begin8:
	.loc	2 619 0                 // kernel/block/hisi-blk-busy-idle-notify.c:619:0
	.cfi_startproc
// %bb.0:
	//DEBUG_VALUE: hisi_blk_busyidle_check_bio_endio:bio <- $x0
	str	x21, [sp, #-48]!        // 8-byte Folded Spill
	stp	x20, x19, [sp, #16]     // 16-byte Folded Spill
	stp	x29, x30, [sp, #32]     // 16-byte Folded Spill
	add	x29, sp, #32            // =32
	.cfi_def_cfa w29, 16
	.cfi_offset w30, -8
	.cfi_offset w29, -16
	.cfi_offset w19, -24
	.cfi_offset w20, -32
	.cfi_offset w21, -48
.Ltmp192:
	.loc	2 621 8 prologue_end    // kernel/block/hisi-blk-busy-idle-notify.c:621:8
	ldr	x8, [x0, #8]
	.loc	2 621 3 is_stmt 0       // kernel/block/hisi-blk-busy-idle-notify.c:621:3
	add	x9, x0, #88             // =88
	mov	x20, x0
.Ltmp193:
	//DEBUG_VALUE: hisi_blk_busyidle_check_bio_endio:bio <- $x20
	add	x10, x8, #1112          // =1112
	cmp	x8, #0                  // =0
	csel	x8, x9, x10, eq
	ldr	x0, [x8]
.Ltmp194:
	//DEBUG_VALUE: hisi_blk_busyidle_check_bio_endio:q <- $x0
	.loc	2 622 28 is_stmt 1      // kernel/block/hisi-blk-busy-idle-notify.c:622:28
	bl	hisi_blk_get_lld
.Ltmp195:
	.loc	2 624 6                 // kernel/block/hisi-blk-busy-idle-notify.c:624:6
	ldrb	w8, [x20, #136]
.Ltmp196:
	.loc	2 624 6 is_stmt 0       // kernel/block/hisi-blk-busy-idle-notify.c:624:6
	tbz	w8, #0, .LBB8_7
.Ltmp197:
// %bb.1:
	//DEBUG_VALUE: hisi_blk_busyidle_check_bio_endio:bio <- $x20
	.loc	2 508 6 is_stmt 1       // kernel/block/hisi-blk-busy-idle-notify.c:508:6
	ldr	x8, [x0, #376]
.Ltmp198:
	.loc	2 0 0 is_stmt 0         // kernel/block/hisi-blk-busy-idle-notify.c:0:0
	mov	x19, x0
.Ltmp199:
	//DEBUG_VALUE: blk_lld_idle_notify:lld <- $x19
	//DEBUG_VALUE: atomic_sub_return:v <- [DW_OP_plus_uconst 296, DW_OP_stack_value] $x19
	//DEBUG_VALUE: blk_idle_count:blk_idle <- [DW_OP_plus_uconst 88, DW_OP_stack_value] $x19
	//DEBUG_VALUE: blk_idle_count:lld <- $x19
	//DEBUG_VALUE: spin_unlock_irqrestore:lock <- [DW_OP_plus_uconst 424, DW_OP_stack_value] $x19
	//DEBUG_VALUE: spinlock_check:lock <- [DW_OP_plus_uconst 424, DW_OP_stack_value] $x19
	//DEBUG_VALUE: hisi_blk_remove_bio_from_counted_list:lld <- $x19
	//DEBUG_VALUE: hisi_blk_busyidle_check_bio_endio:lld <- $x19
	//DEBUG_VALUE: hisi_blk_remove_bio_from_counted_list:bio <- $x20
	.loc	2 508 6                 // kernel/block/hisi-blk-busy-idle-notify.c:508:6
	cbz	x8, .LBB8_3
.Ltmp200:
// %bb.2:
	//DEBUG_VALUE: hisi_blk_remove_bio_from_counted_list:bio <- $x20
	//DEBUG_VALUE: hisi_blk_busyidle_check_bio_endio:lld <- $x19
	//DEBUG_VALUE: hisi_blk_remove_bio_from_counted_list:lld <- $x19
	//DEBUG_VALUE: spinlock_check:lock <- [DW_OP_plus_uconst 424, DW_OP_stack_value] $x19
	//DEBUG_VALUE: spin_unlock_irqrestore:lock <- [DW_OP_plus_uconst 424, DW_OP_stack_value] $x19
	//DEBUG_VALUE: hisi_blk_busyidle_check_bio_endio:bio <- $x20
	.loc	139 306 16 is_stmt 1    // kernel/include/linux/spinlock.h:306:16
	add	x21, x19, #424          // =424
.Ltmp201:
	.loc	2 515 2                 // kernel/block/hisi-blk-busy-idle-notify.c:515:2
	mov	x0, x21
	bl	_raw_spin_lock_irqsave
.Ltmp202:
	.loc	2 516 25                // kernel/block/hisi-blk-busy-idle-notify.c:516:25
	ldr	x8, [x19, #376]
.Ltmp203:
	.loc	2 515 2                 // kernel/block/hisi-blk-busy-idle-notify.c:515:2
	mov	x1, x0
.Ltmp204:
	//DEBUG_VALUE: hisi_blk_remove_bio_from_counted_list:flags <- $x1
	.loc	2 517 22                // kernel/block/hisi-blk-busy-idle-notify.c:517:22
	add	x10, x20, #288          // =288
.Ltmp205:
	//DEBUG_VALUE: __list_del_entry:entry <- $x10
	//DEBUG_VALUE: list_del_init:entry <- $x10
	//DEBUG_VALUE: __list_del:prev <- $x9
	//DEBUG_VALUE: __list_del:next <- $x8
	.loc	139 372 2               // kernel/include/linux/spinlock.h:372:2
	mov	x0, x21
.Ltmp206:
	.loc	2 516 25                // kernel/block/hisi-blk-busy-idle-notify.c:516:25
	sub	x8, x8, #1              // =1
.Ltmp207:
	str	x8, [x19, #376]
.Ltmp208:
	.loc	140 120 33              // kernel/include/linux/list.h:120:33
	ldp	x8, x9, [x20, #288]
.Ltmp209:
	.loc	140 105 13              // kernel/include/linux/list.h:105:13
	str	x9, [x8, #8]
.Ltmp210:
	//DEBUG_VALUE: __write_once_size:p <- $x9
	//DEBUG_VALUE: __write_once_size:size <- 8
	//DEBUG_VALUE: __write_once_size:res <- undef
	.loc	137 210 31              // kernel/include/linux/compiler.h:210:31
	str	x8, [x9]
.Ltmp211:
	//DEBUG_VALUE: __write_once_size:p <- $x10
	//DEBUG_VALUE: __write_once_size:size <- 8
	//DEBUG_VALUE: __write_once_size:res <- undef
	//DEBUG_VALUE: INIT_LIST_HEAD:list <- $x10
	.loc	137 210 31 is_stmt 0    // kernel/include/linux/compiler.h:210:31
	str	x10, [x20, #288]
.Ltmp212:
	.loc	140 29 13 is_stmt 1     // kernel/include/linux/list.h:29:13
	str	x10, [x20, #296]
.Ltmp213:
	//DEBUG_VALUE: spin_unlock_irqrestore:flags <- $x1
	.loc	139 372 2               // kernel/include/linux/spinlock.h:372:2
	bl	_raw_spin_unlock_irqrestore
.Ltmp214:
.LBB8_3:
	//DEBUG_VALUE: hisi_blk_busyidle_check_bio_endio:lld <- $x19
	//DEBUG_VALUE: hisi_blk_busyidle_check_bio_endio:bio <- $x20
	.loc	2 629 28                // kernel/block/hisi-blk-busy-idle-notify.c:629:28
	strb	wzr, [x20, #136]
.Ltmp215:
	.loc	2 433 6                 // kernel/block/hisi-blk-busy-idle-notify.c:433:6
	ldrb	w8, [x19, #24]
	tbz	w8, #3, .LBB8_7
.Ltmp216:
// %bb.4:
	//DEBUG_VALUE: hisi_blk_busyidle_check_bio_endio:lld <- $x19
	//DEBUG_VALUE: hisi_blk_busyidle_check_bio_endio:bio <- $x20
	.loc	2 436 16                // kernel/block/hisi-blk-busy-idle-notify.c:436:16
	ldrb	w8, [x19, #88]
.Ltmp217:
	.loc	2 436 6 is_stmt 0       // kernel/block/hisi-blk-busy-idle-notify.c:436:6
	cbnz	w8, .LBB8_7
.Ltmp218:
// %bb.5:
	//DEBUG_VALUE: hisi_blk_busyidle_check_bio_endio:lld <- $x19
	//DEBUG_VALUE: hisi_blk_busyidle_check_bio_endio:bio <- $x20
	//DEBUG_VALUE: __read_once_size:res <- undef
	//DEBUG_VALUE: __read_once_size:size <- 4
	//DEBUG_VALUE: __read_once_size:p <- [DW_OP_plus_uconst 296, DW_OP_stack_value] $x19
	.loc	137 183 2 is_stmt 1     // kernel/include/linux/compiler.h:183:2
	ldr	w8, [x19, #296]
.Ltmp219:
	.loc	2 438 6                 // kernel/block/hisi-blk-busy-idle-notify.c:438:6
	cbz	w8, .LBB8_8
.Ltmp220:
// %bb.6:
	//DEBUG_VALUE: hisi_blk_busyidle_check_bio_endio:lld <- $x19
	//DEBUG_VALUE: hisi_blk_busyidle_check_bio_endio:bio <- $x20
	//DEBUG_VALUE: atomic_sub_return:i <- 1
	.loc	141 114 1               // kernel/arch/arm64/include/asm/atomic_ll_sc.h:114:1
	add	x8, x19, #296           // =296
	//APP
	// atomic_sub_return
	prfm	pstl1strm, [x8]
1:	ldxr	w9, [x8]
	sub	w9, w9, #1
	stlxr	w10, w9, [x8]
	cbnz	w10, 1b
	dmb ish
	//NO_APP
.Ltmp221:
	//DEBUG_VALUE: atomic_sub_return:tmp <- undef
	//DEBUG_VALUE: atomic_sub_return:result <- $w9
	.loc	2 446 6                 // kernel/block/hisi-blk-busy-idle-notify.c:446:6
	cbz	w9, .LBB8_9
.Ltmp222:
.LBB8_7:
	.loc	2 632 1                 // kernel/block/hisi-blk-busy-idle-notify.c:632:1
	ldp	x29, x30, [sp, #32]     // 16-byte Folded Reload
	ldp	x20, x19, [sp, #16]     // 16-byte Folded Reload
	ldr	x21, [sp], #48          // 8-byte Folded Reload
	ret
.LBB8_8:
.Ltmp223:
	//DEBUG_VALUE: hisi_blk_busyidle_check_bio_endio:lld <- $x19
	//DEBUG_VALUE: hisi_blk_busyidle_check_bio_endio:bio <- $x20
	.loc	2 439 3                 // kernel/block/hisi-blk-busy-idle-notify.c:439:3
	adrp	x0, .L.str.12
	adrp	x1, .L__func__.blk_idle_count
	add	x0, x0, :lo12:.L.str.12
	add	x1, x1, :lo12:.L__func__.blk_idle_count
	bl	printk
	b	.LBB8_7
.Ltmp224:
.LBB8_9:
	//DEBUG_VALUE: hisi_blk_busyidle_check_bio_endio:lld <- $x19
	//DEBUG_VALUE: hisi_blk_busyidle_check_bio_endio:bio <- $x20
	.loc	2 278 6                 // kernel/block/hisi-blk-busy-idle-notify.c:278:6
	ldr	w8, [x19]
.Ltmp225:
	.loc	2 278 6 is_stmt 0       // kernel/block/hisi-blk-busy-idle-notify.c:278:6
	cmp	w8, #122                // =122
	b.ne	.LBB8_7
.Ltmp226:
// %bb.10:
	//DEBUG_VALUE: hisi_blk_busyidle_check_bio_endio:lld <- $x19
	//DEBUG_VALUE: hisi_blk_busyidle_check_bio_endio:bio <- $x20
	.loc	2 279 22 is_stmt 1      // kernel/block/hisi-blk-busy-idle-notify.c:279:22
	adrp	x8, blk_idle_notify_workqueue
	.loc	2 282 35                // kernel/block/hisi-blk-busy-idle-notify.c:282:35
	ldr	w0, [x19, #192]
	.loc	2 279 22                // kernel/block/hisi-blk-busy-idle-notify.c:279:22
	ldr	x20, [x8, :lo12:blk_idle_notify_workqueue]
.Ltmp227:
	.loc	2 281 6                 // kernel/block/hisi-blk-busy-idle-notify.c:281:6
	add	x19, x19, #96           // =96
.Ltmp228:
	//DEBUG_VALUE: msecs_to_jiffies:m <- $w0
	.loc	138 370 10              // kernel/include/linux/jiffies.h:370:10
	bl	__msecs_to_jiffies
.Ltmp229:
	mov	x3, x0
.Ltmp230:
	//DEBUG_VALUE: queue_delayed_work:delay <- $x3
	//DEBUG_VALUE: queue_delayed_work:dwork <- $x19
	//DEBUG_VALUE: queue_delayed_work:wq <- $x20
	.loc	20 506 9                // kernel/include/linux/workqueue.h:506:9
	orr	w0, wzr, #0x8
	mov	x1, x20
	mov	x2, x19
	bl	queue_delayed_work_on
.Ltmp231:
	.loc	20 0 9 is_stmt 0        // kernel/include/linux/workqueue.h:0:9
	b	.LBB8_7
.Ltmp232:
.Lfunc_end8:
	.size	hisi_blk_busyidle_check_bio_endio, .Lfunc_end8-hisi_blk_busyidle_check_bio_endio
	.cfi_endproc
                                        // -- End function
	.globl	blk_busyidle_event_subscribe // -- Begin function blk_busyidle_event_subscribe
	.p2align	2
	.type	blk_busyidle_event_subscribe,@function
blk_busyidle_event_subscribe:           // @blk_busyidle_event_subscribe
.Lfunc_begin9:
	.loc	2 640 0 is_stmt 1       // kernel/block/hisi-blk-busy-idle-notify.c:640:0
	.cfi_startproc
// %bb.0:
	//DEBUG_VALUE: blk_busyidle_event_subscribe:bdev <- $x0
	//DEBUG_VALUE: blk_busyidle_event_subscribe:event_node <- $x1
	str	x19, [sp, #-32]!        // 8-byte Folded Spill
	stp	x29, x30, [sp, #16]     // 16-byte Folded Spill
	add	x29, sp, #16            // =16
	.cfi_def_cfa w29, 16
	.cfi_offset w30, -8
	.cfi_offset w29, -16
	.cfi_offset w19, -32
	mov	x8, x0
	mov	w0, #-22
.Ltmp233:
	//DEBUG_VALUE: blk_busyidle_event_subscribe:bdev <- $x8
	.loc	2 641 12 prologue_end   // kernel/block/hisi-blk-busy-idle-notify.c:641:12
	cbz	x8, .LBB9_5
.Ltmp234:
// %bb.1:
	//DEBUG_VALUE: blk_busyidle_event_subscribe:bdev <- $x8
	//DEBUG_VALUE: blk_busyidle_event_subscribe:event_node <- $x1
	.loc	2 0 12 is_stmt 0        // kernel/block/hisi-blk-busy-idle-notify.c:0:12
	mov	x19, x1
.Ltmp235:
	//DEBUG_VALUE: blk_busyidle_event_subscribe:event_node <- $x19
	.loc	2 641 12                // kernel/block/hisi-blk-busy-idle-notify.c:641:12
	cbz	x1, .LBB9_5
.Ltmp236:
// %bb.2:
	//DEBUG_VALUE: blk_busyidle_event_subscribe:event_node <- $x19
	//DEBUG_VALUE: blk_busyidle_event_subscribe:bdev <- $x8
	//DEBUG_VALUE: bdev_get_queue:bdev <- $x8
	.loc	3 1464 15 is_stmt 1     // kernel/include/linux/blkdev.h:1464:15
	ldr	x8, [x8, #160]
.Ltmp237:
	.loc	3 1464 24 is_stmt 0     // kernel/include/linux/blkdev.h:1464:24
	ldr	x0, [x8, #1112]
.Ltmp238:
	//DEBUG_VALUE: blk_queue_busyidle_event_subscribe:event_node <- $x19
	//DEBUG_VALUE: blk_queue_busyidle_event_subscribe:q <- $x0
	.loc	2 655 9 is_stmt 1       // kernel/block/hisi-blk-busy-idle-notify.c:655:9
	cbz	x0, .LBB9_4
.Ltmp239:
// %bb.3:
	//DEBUG_VALUE: blk_queue_busyidle_event_subscribe:q <- $x0
	//DEBUG_VALUE: blk_queue_busyidle_event_subscribe:event_node <- $x19
	//DEBUG_VALUE: blk_busyidle_event_subscribe:event_node <- $x19
	.loc	2 659 3                 // kernel/block/hisi-blk-busy-idle-notify.c:659:3
	bl	hisi_blk_get_lld
.Ltmp240:
	.loc	2 658 9                 // kernel/block/hisi-blk-busy-idle-notify.c:658:9
	mov	x1, x19
	bl	blk_lld_busyidle_event_subscribe
	b	.LBB9_5
.Ltmp241:
.LBB9_4:
	//DEBUG_VALUE: blk_queue_busyidle_event_subscribe:q <- $x0
	//DEBUG_VALUE: blk_queue_busyidle_event_subscribe:event_node <- $x19
	//DEBUG_VALUE: blk_busyidle_event_subscribe:event_node <- $x19
	.loc	2 0 9 is_stmt 0         // kernel/block/hisi-blk-busy-idle-notify.c:0:9
	mov	w0, #-22
.Ltmp242:
.LBB9_5:
	.loc	2 646 1 is_stmt 1       // kernel/block/hisi-blk-busy-idle-notify.c:646:1
	ldp	x29, x30, [sp, #16]     // 16-byte Folded Reload
	ldr	x19, [sp], #32          // 8-byte Folded Reload
	ret
.Ltmp243:
.Lfunc_end9:
	.size	blk_busyidle_event_subscribe, .Lfunc_end9-blk_busyidle_event_subscribe
	.cfi_endproc
                                        // -- End function
	.globl	blk_queue_busyidle_event_subscribe // -- Begin function blk_queue_busyidle_event_subscribe
	.p2align	2
	.type	blk_queue_busyidle_event_subscribe,@function
blk_queue_busyidle_event_subscribe:     // @blk_queue_busyidle_event_subscribe
.Lfunc_begin10:
	.loc	2 654 0                 // kernel/block/hisi-blk-busy-idle-notify.c:654:0
	.cfi_startproc
// %bb.0:
	//DEBUG_VALUE: blk_queue_busyidle_event_subscribe:q <- $x0
	//DEBUG_VALUE: blk_queue_busyidle_event_subscribe:event_node <- $x1
	str	x19, [sp, #-32]!        // 8-byte Folded Spill
	stp	x29, x30, [sp, #16]     // 16-byte Folded Spill
	add	x29, sp, #16            // =16
	.cfi_def_cfa w29, 16
	.cfi_offset w30, -8
	.cfi_offset w29, -16
	.cfi_offset w19, -32
	mov	x8, x0
	mov	w0, #-22
.Ltmp244:
	//DEBUG_VALUE: blk_queue_busyidle_event_subscribe:q <- $x8
	.loc	2 655 9 prologue_end    // kernel/block/hisi-blk-busy-idle-notify.c:655:9
	cbz	x8, .LBB10_3
.Ltmp245:
// %bb.1:
	//DEBUG_VALUE: blk_queue_busyidle_event_subscribe:q <- $x8
	//DEBUG_VALUE: blk_queue_busyidle_event_subscribe:event_node <- $x1
	.loc	2 0 9 is_stmt 0         // kernel/block/hisi-blk-busy-idle-notify.c:0:9
	mov	x19, x1
.Ltmp246:
	//DEBUG_VALUE: blk_queue_busyidle_event_subscribe:event_node <- $x19
	.loc	2 655 9                 // kernel/block/hisi-blk-busy-idle-notify.c:655:9
	cbz	x1, .LBB10_3
.Ltmp247:
// %bb.2:
	//DEBUG_VALUE: blk_queue_busyidle_event_subscribe:event_node <- $x19
	//DEBUG_VALUE: blk_queue_busyidle_event_subscribe:q <- $x8
	.loc	2 659 3 is_stmt 1       // kernel/block/hisi-blk-busy-idle-notify.c:659:3
	mov	x0, x8
	bl	hisi_blk_get_lld
.Ltmp248:
	.loc	2 658 9                 // kernel/block/hisi-blk-busy-idle-notify.c:658:9
	mov	x1, x19
	bl	blk_lld_busyidle_event_subscribe
.Ltmp249:
.LBB10_3:
	.loc	2 661 1                 // kernel/block/hisi-blk-busy-idle-notify.c:661:1
	ldp	x29, x30, [sp, #16]     // 16-byte Folded Reload
	ldr	x19, [sp], #32          // 8-byte Folded Reload
	ret
.Ltmp250:
.Lfunc_end10:
	.size	blk_queue_busyidle_event_subscribe, .Lfunc_end10-blk_queue_busyidle_event_subscribe
	.cfi_endproc
                                        // -- End function
	.globl	blk_lld_busyidle_event_subscribe // -- Begin function blk_lld_busyidle_event_subscribe
	.p2align	2
	.type	blk_lld_busyidle_event_subscribe,@function
blk_lld_busyidle_event_subscribe:       // @blk_lld_busyidle_event_subscribe
.Lfunc_begin11:
	.loc	2 669 0                 // kernel/block/hisi-blk-busy-idle-notify.c:669:0
	.cfi_startproc
// %bb.0:
	//DEBUG_VALUE: blk_lld_busyidle_event_subscribe:lld <- $x0
	//DEBUG_VALUE: blk_lld_busyidle_event_subscribe:event_node <- $x1
	stp	x24, x23, [sp, #-64]!   // 16-byte Folded Spill
	stp	x22, x21, [sp, #16]     // 16-byte Folded Spill
	stp	x20, x19, [sp, #32]     // 16-byte Folded Spill
	stp	x29, x30, [sp, #48]     // 16-byte Folded Spill
	add	x29, sp, #48            // =48
	.cfi_def_cfa w29, 16
	.cfi_offset w30, -8
	.cfi_offset w29, -16
	.cfi_offset w19, -24
	.cfi_offset w20, -32
	.cfi_offset w21, -40
	.cfi_offset w22, -48
	.cfi_offset w23, -56
	.cfi_offset w24, -64
	mov	w21, #-22
.Ltmp251:
	.loc	2 670 11 prologue_end   // kernel/block/hisi-blk-busy-idle-notify.c:670:11
	cbz	x0, .LBB11_17
.Ltmp252:
// %bb.1:
	//DEBUG_VALUE: blk_lld_busyidle_event_subscribe:event_node <- $x1
	//DEBUG_VALUE: blk_lld_busyidle_event_subscribe:lld <- $x0
	.loc	2 0 11 is_stmt 0        // kernel/block/hisi-blk-busy-idle-notify.c:0:11
	mov	x22, x1
.Ltmp253:
	//DEBUG_VALUE: blk_lld_busyidle_event_subscribe:event_node <- $x22
	.loc	2 670 11                // kernel/block/hisi-blk-busy-idle-notify.c:670:11
	cbz	x1, .LBB11_17
.Ltmp254:
// %bb.2:
	//DEBUG_VALUE: blk_lld_busyidle_event_subscribe:event_node <- $x22
	//DEBUG_VALUE: blk_lld_busyidle_event_subscribe:lld <- $x0
	.loc	2 673 18 is_stmt 1      // kernel/block/hisi-blk-busy-idle-notify.c:673:18
	str	x0, [x22, #48]
.Ltmp255:
	//DEBUG_VALUE: index <- 2
	//DEBUG_VALUE: kmalloc:flags <- 21004480
	//DEBUG_VALUE: kmalloc:size <- 152
	//DEBUG_VALUE: kzalloc:flags <- 20971712
	//DEBUG_VALUE: kzalloc:size <- 152
	//DEBUG_VALUE: hisi_blk_busyidle_event_register:blk_idle <- [DW_OP_plus_uconst 88, DW_OP_stack_value] $x20
	//DEBUG_VALUE: hisi_blk_busyidle_event_register:nb <- 0
	//DEBUG_VALUE: hisi_blk_busyidle_event_register:ret <- 0
	//DEBUG_VALUE: hisi_blk_busyidle_event_register:event_node <- $x22
	//DEBUG_VALUE: hisi_blk_busyidle_event_register:lld <- $x20
	.loc	21 539 5                // kernel/include/linux/slab.h:539:5
	adrp	x8, kmalloc_caches+16
	mov	x20, x0
.Ltmp256:
	//DEBUG_VALUE: blk_lld_busyidle_event_subscribe:lld <- $x20
	ldr	x0, [x8, :lo12:kmalloc_caches+16]
	.loc	21 538 10               // kernel/include/linux/slab.h:538:10
	mov	w1, #32960
	movk	w1, #320, lsl #16
	mov	w2, #152
	bl	kmem_cache_alloc_trace
.Ltmp257:
	.loc	2 169 6                 // kernel/block/hisi-blk-busy-idle-notify.c:169:6
	cbz	x0, .LBB11_6
.Ltmp258:
// %bb.3:
	//DEBUG_VALUE: blk_lld_busyidle_event_subscribe:lld <- $x20
	//DEBUG_VALUE: hisi_blk_busyidle_event_register:event_node <- $x22
	//DEBUG_VALUE: blk_lld_busyidle_event_subscribe:event_node <- $x22
	.loc	2 172 2                 // kernel/block/hisi-blk-busy-idle-notify.c:172:2
	ldp	x8, x9, [x22]
	ldr	x10, [x22, #16]
	mov	x21, x0
	.loc	2 0 0 is_stmt 0         // kernel/block/hisi-blk-busy-idle-notify.c:0:0
	mov	x19, x0
.Ltmp259:
	//DEBUG_VALUE: hisi_blk_busyidle_event_register:nb <- $x19
	//DEBUG_VALUE: __list_add:new <- $x19
	//DEBUG_VALUE: list_add_tail:new <- $x19
	//DEBUG_VALUE: setup_busy_idle_notify_nb:nb <- $x19
	.loc	2 172 2                 // kernel/block/hisi-blk-busy-idle-notify.c:172:2
	str	x8, [x21, #88]!
.Ltmp260:
	//DEBUG_VALUE: busyidle_find_subscribed_node:node <- $x21
	stp	x9, x10, [x21, #8]
	ldp	x8, x9, [x22, #40]
	ldp	x10, x11, [x22, #24]
	stp	x8, x9, [x21, #40]
	stp	x10, x11, [x21, #24]
.Ltmp261:
	//DEBUG_VALUE: is_valid_event_node:event_node <- $x21
	.loc	2 133 6 is_stmt 1       // kernel/block/hisi-blk-busy-idle-notify.c:133:6
	cbz	x11, .LBB11_7
.Ltmp262:
// %bb.4:
	//DEBUG_VALUE: is_valid_event_node:event_node <- $x21
	//DEBUG_VALUE: hisi_blk_busyidle_event_register:nb <- $x19
	//DEBUG_VALUE: blk_lld_busyidle_event_subscribe:lld <- $x20
	//DEBUG_VALUE: hisi_blk_busyidle_event_register:event_node <- $x22
	//DEBUG_VALUE: blk_lld_busyidle_event_subscribe:event_node <- $x22
	.loc	2 138 6                 // kernel/block/hisi-blk-busy-idle-notify.c:138:6
	mov	x0, x21
	bl	strlen
	.loc	2 138 41 is_stmt 0      // kernel/block/hisi-blk-busy-idle-notify.c:138:41
	sub	x8, x0, #1              // =1
	cmp	x8, #31                 // =31
	b.lo	.LBB11_10
.Ltmp263:
// %bb.5:
	//DEBUG_VALUE: is_valid_event_node:event_node <- $x21
	//DEBUG_VALUE: hisi_blk_busyidle_event_register:nb <- $x19
	//DEBUG_VALUE: blk_lld_busyidle_event_subscribe:lld <- $x20
	//DEBUG_VALUE: hisi_blk_busyidle_event_register:event_node <- $x22
	//DEBUG_VALUE: blk_lld_busyidle_event_subscribe:event_node <- $x22
	.loc	2 140 3 is_stmt 1       // kernel/block/hisi-blk-busy-idle-notify.c:140:3
	adrp	x0, .L.str.16
	add	x0, x0, :lo12:.L.str.16
	b	.LBB11_8
.Ltmp264:
.LBB11_6:
	//DEBUG_VALUE: blk_lld_busyidle_event_subscribe:lld <- $x20
	//DEBUG_VALUE: hisi_blk_busyidle_event_register:event_node <- $x22
	//DEBUG_VALUE: blk_lld_busyidle_event_subscribe:event_node <- $x22
	.loc	2 0 3 is_stmt 0         // kernel/block/hisi-blk-busy-idle-notify.c:0:3
	mov	w21, #-12
	b	.LBB11_17
.Ltmp265:
.LBB11_7:
	//DEBUG_VALUE: is_valid_event_node:event_node <- $x21
	//DEBUG_VALUE: hisi_blk_busyidle_event_register:nb <- $x19
	//DEBUG_VALUE: blk_lld_busyidle_event_subscribe:lld <- $x20
	//DEBUG_VALUE: hisi_blk_busyidle_event_register:event_node <- $x22
	//DEBUG_VALUE: blk_lld_busyidle_event_subscribe:event_node <- $x22
	.loc	2 134 3 is_stmt 1       // kernel/block/hisi-blk-busy-idle-notify.c:134:3
	adrp	x0, .L.str.15
	add	x0, x0, :lo12:.L.str.15
.Ltmp266:
.LBB11_8:
	//DEBUG_VALUE: is_valid_event_node:event_node <- $x21
	//DEBUG_VALUE: hisi_blk_busyidle_event_register:nb <- $x19
	//DEBUG_VALUE: blk_lld_busyidle_event_subscribe:lld <- $x20
	//DEBUG_VALUE: hisi_blk_busyidle_event_register:event_node <- $x22
	//DEBUG_VALUE: blk_lld_busyidle_event_subscribe:event_node <- $x22
	.loc	2 0 0 is_stmt 0         // kernel/block/hisi-blk-busy-idle-notify.c:0:0
	adrp	x1, .L__func__.is_valid_event_node
	add	x1, x1, :lo12:.L__func__.is_valid_event_node
	bl	printk
.Ltmp267:
	.loc	2 177 3 is_stmt 1       // kernel/block/hisi-blk-busy-idle-notify.c:177:3
	bl	dump_stack
	mov	w21, #-22
.Ltmp268:
	//DEBUG_LABEL: hisi_blk_busyidle_event_register:free_notify_nb
	//DEBUG_VALUE: hisi_blk_busyidle_event_register:ret <- -1
.LBB11_9:
	//DEBUG_VALUE: hisi_blk_busyidle_event_register:nb <- $x19
	//DEBUG_VALUE: blk_lld_busyidle_event_subscribe:lld <- $x20
	.loc	2 208 3                 // kernel/block/hisi-blk-busy-idle-notify.c:208:3
	mov	x0, x19
	bl	kfree
	b	.LBB11_17
.Ltmp269:
.LBB11_10:
	//DEBUG_VALUE: hisi_blk_busyidle_event_register:nb <- $x19
	//DEBUG_VALUE: blk_lld_busyidle_event_subscribe:lld <- $x20
	//DEBUG_VALUE: hisi_blk_busyidle_event_register:event_node <- $x22
	//DEBUG_VALUE: blk_lld_busyidle_event_subscribe:event_node <- $x22
	.loc	2 183 24                // kernel/block/hisi-blk-busy-idle-notify.c:183:24
	add	x22, x20, #304          // =304
.Ltmp270:
	.loc	2 183 2 is_stmt 0       // kernel/block/hisi-blk-busy-idle-notify.c:183:2
	mov	x0, x22
	bl	mutex_lock
.Ltmp271:
	//DEBUG_VALUE: list_add_tail:head <- undef
	//DEBUG_VALUE: __list_add:next <- undef
	//DEBUG_VALUE: __mptr <- undef
	.loc	2 0 0                   // kernel/block/hisi-blk-busy-idle-notify.c:0:0
	mov	x23, x20
	ldr	x24, [x23, #200]!
.Ltmp272:
	//DEBUG_VALUE: busyidle_find_subscribed_node:blk_idle <- [DW_OP_plus_uconst 88, DW_OP_stack_value] $x20
	//DEBUG_VALUE: busyidle_find_subscribed_node:p <- 0
	.loc	2 121 2 is_stmt 1       // kernel/block/hisi-blk-busy-idle-notify.c:121:2
	cmp	x24, x23
	b.ne	.LBB11_12
	b	.LBB11_16
.Ltmp273:
.LBB11_11:                              //   in Loop: Header=BB11_12 Depth=1
	//DEBUG_VALUE: busyidle_find_subscribed_node:blk_idle <- [DW_OP_plus_uconst 88, DW_OP_stack_value] $x20
	//DEBUG_VALUE: hisi_blk_busyidle_event_register:nb <- $x19
	//DEBUG_VALUE: blk_lld_busyidle_event_subscribe:lld <- $x20
	//DEBUG_VALUE: __mptr <- undef
	.loc	2 0 0 is_stmt 0         // kernel/block/hisi-blk-busy-idle-notify.c:0:0
	ldr	x24, [x24]
	//DEBUG_VALUE: busyidle_find_subscribed_node:blk_idle <- [DW_OP_plus_uconst 88, DW_OP_stack_value] $x20
	//DEBUG_VALUE: busyidle_find_subscribed_node:p <- 0
	.loc	2 121 2                 // kernel/block/hisi-blk-busy-idle-notify.c:121:2
	cmp	x24, x23
	b.eq	.LBB11_16
.Ltmp274:
.LBB11_12:                              // =>This Inner Loop Header: Depth=1
	//DEBUG_VALUE: busyidle_find_subscribed_node:blk_idle <- [DW_OP_plus_uconst 88, DW_OP_stack_value] $x20
	//DEBUG_VALUE: hisi_blk_busyidle_event_register:nb <- $x19
	//DEBUG_VALUE: blk_lld_busyidle_event_subscribe:lld <- $x20
	.loc	2 122 33 is_stmt 1      // kernel/block/hisi-blk-busy-idle-notify.c:122:33
	add	x1, x24, #88            // =88
	.loc	2 122 8 is_stmt 0       // kernel/block/hisi-blk-busy-idle-notify.c:122:8
	mov	x0, x21
	bl	strcmp
	.loc	2 123 4 is_stmt 1       // kernel/block/hisi-blk-busy-idle-notify.c:123:4
	cbnz	w0, .LBB11_11
.Ltmp275:
// %bb.13:                              //   in Loop: Header=BB11_12 Depth=1
	//DEBUG_VALUE: busyidle_find_subscribed_node:blk_idle <- [DW_OP_plus_uconst 88, DW_OP_stack_value] $x20
	//DEBUG_VALUE: hisi_blk_busyidle_event_register:nb <- $x19
	//DEBUG_VALUE: blk_lld_busyidle_event_subscribe:lld <- $x20
	.loc	2 123 13 is_stmt 0      // kernel/block/hisi-blk-busy-idle-notify.c:123:13
	ldr	x8, [x19, #120]
	.loc	2 124 18 is_stmt 1      // kernel/block/hisi-blk-busy-idle-notify.c:124:18
	ldr	x9, [x24, #120]
.Ltmp276:
	.loc	2 122 7                 // kernel/block/hisi-blk-busy-idle-notify.c:122:7
	cmp	x8, x9
	b.ne	.LBB11_11
.Ltmp277:
// %bb.14:
	//DEBUG_VALUE: hisi_blk_busyidle_event_register:nb <- $x19
	//DEBUG_VALUE: blk_lld_busyidle_event_subscribe:lld <- $x20
	.loc	2 184 6                 // kernel/block/hisi-blk-busy-idle-notify.c:184:6
	cbz	x24, .LBB11_16
.Ltmp278:
// %bb.15:
	//DEBUG_VALUE: hisi_blk_busyidle_event_register:nb <- $x19
	//DEBUG_VALUE: blk_lld_busyidle_event_subscribe:lld <- $x20
	.loc	2 185 3                 // kernel/block/hisi-blk-busy-idle-notify.c:185:3
	adrp	x0, .L.str.13
	adrp	x1, .L__func__.hisi_blk_busyidle_event_register
	add	x0, x0, :lo12:.L.str.13
	add	x1, x1, :lo12:.L__func__.hisi_blk_busyidle_event_register
	mov	x2, x21
	bl	printk
	.loc	2 190 3                 // kernel/block/hisi-blk-busy-idle-notify.c:190:3
	bl	dump_stack
.Ltmp279:
	//DEBUG_LABEL: hisi_blk_busyidle_event_register:unlock
	//DEBUG_VALUE: hisi_blk_busyidle_event_register:ret <- -1
	.loc	2 204 2                 // kernel/block/hisi-blk-busy-idle-notify.c:204:2
	mov	x0, x22
	bl	mutex_unlock
	mov	w21, #-1
	b	.LBB11_9
.Ltmp280:
.LBB11_16:
	//DEBUG_VALUE: hisi_blk_busyidle_event_register:nb <- $x19
	//DEBUG_VALUE: blk_lld_busyidle_event_subscribe:lld <- $x20
	.loc	2 149 2                 // kernel/block/hisi-blk-busy-idle-notify.c:149:2
	add	x0, x19, #16            // =16
	mov	w1, wzr
	mov	x2, xzr
	mov	x3, xzr
	bl	init_timer_key
	adrp	x8, __cfi_hisi_blk_busyidle_handler_latency_check_timer_expire
.Ltmp281:
	.loc	2 152 32                // kernel/block/hisi-blk-busy-idle-notify.c:152:32
	adrp	x9, __cfi_hisi_blk_busyidle_notify_handler
.Ltmp282:
	.loc	2 149 2                 // kernel/block/hisi-blk-busy-idle-notify.c:149:2
	add	x8, x8, :lo12:__cfi_hisi_blk_busyidle_handler_latency_check_timer_expire
.Ltmp283:
	.loc	2 152 32                // kernel/block/hisi-blk-busy-idle-notify.c:152:32
	add	x9, x9, :lo12:__cfi_hisi_blk_busyidle_notify_handler
	mov	x1, x19
	orr	w10, wzr, #0x1
.Ltmp284:
	.loc	2 149 2                 // kernel/block/hisi-blk-busy-idle-notify.c:149:2
	stp	x8, x19, [x19, #40]
.Ltmp285:
	.loc	2 152 32                // kernel/block/hisi-blk-busy-idle-notify.c:152:32
	str	x9, [x1, #64]!
	.loc	2 153 27                // kernel/block/hisi-blk-busy-idle-notify.c:153:27
	str	wzr, [x19, #80]
	.loc	2 154 17                // kernel/block/hisi-blk-busy-idle-notify.c:154:17
	str	w10, [x19, #144]
.Ltmp286:
	.loc	140 93 24               // kernel/include/linux/list.h:93:24
	ldr	x8, [x20, #208]
.Ltmp287:
	//DEBUG_VALUE: __list_add:prev <- $x8
	.loc	2 198 46                // kernel/block/hisi-blk-busy-idle-notify.c:198:46
	add	x0, x20, #216           // =216
.Ltmp288:
	.loc	140 63 13               // kernel/include/linux/list.h:63:13
	str	x19, [x20, #208]
	.loc	140 64 12               // kernel/include/linux/list.h:64:12
	stp	x23, x8, [x19]
.Ltmp289:
	//DEBUG_VALUE: __write_once_size:p <- $x8
	//DEBUG_VALUE: __write_once_size:size <- 8
	//DEBUG_VALUE: __write_once_size:res <- undef
	.loc	137 210 31              // kernel/include/linux/compiler.h:210:31
	str	x19, [x8]
.Ltmp290:
	.loc	2 198 2                 // kernel/block/hisi-blk-busy-idle-notify.c:198:2
	bl	blocking_notifier_chain_register
.Ltmp291:
	.loc	2 199 2                 // kernel/block/hisi-blk-busy-idle-notify.c:199:2
	adrp	x0, .L.str.14
	add	x0, x0, :lo12:.L.str.14
	mov	x1, x21
	bl	printk
.Ltmp292:
	//DEBUG_LABEL: hisi_blk_busyidle_event_register:unlock
	//DEBUG_VALUE: hisi_blk_busyidle_event_register:ret <- -1
	.loc	2 204 2                 // kernel/block/hisi-blk-busy-idle-notify.c:204:2
	mov	x0, x22
	bl	mutex_unlock
.Ltmp293:
	//DEBUG_LABEL: hisi_blk_busyidle_event_register:free_notify_nb
	.loc	2 0 0 is_stmt 0         // kernel/block/hisi-blk-busy-idle-notify.c:0:0
	mov	w21, wzr
	//DEBUG_VALUE: hisi_blk_busyidle_event_register:ret <- -1
.Ltmp294:
.LBB11_17:
	.loc	2 675 1 is_stmt 1       // kernel/block/hisi-blk-busy-idle-notify.c:675:1
	mov	w0, w21
	ldp	x29, x30, [sp, #48]     // 16-byte Folded Reload
	ldp	x20, x19, [sp, #32]     // 16-byte Folded Reload
	ldp	x22, x21, [sp, #16]     // 16-byte Folded Reload
	ldp	x24, x23, [sp], #64     // 16-byte Folded Reload
	ret
.Ltmp295:
.Lfunc_end11:
	.size	blk_lld_busyidle_event_subscribe, .Lfunc_end11-blk_lld_busyidle_event_subscribe
	.cfi_endproc
                                        // -- End function
	.globl	blk_busyidle_event_unsubscribe // -- Begin function blk_busyidle_event_unsubscribe
	.p2align	2
	.type	blk_busyidle_event_unsubscribe,@function
blk_busyidle_event_unsubscribe:         // @blk_busyidle_event_unsubscribe
.Lfunc_begin12:
	.loc	2 682 0                 // kernel/block/hisi-blk-busy-idle-notify.c:682:0
	.cfi_startproc
// %bb.0:
	//DEBUG_VALUE: blk_busyidle_event_unsubscribe:event_node <- $x0
	//DEBUG_VALUE: blk_busyidle_event_unsubscribe:event_node <- $x0
	.loc	2 683 6 prologue_end    // kernel/block/hisi-blk-busy-idle-notify.c:683:6
	cbz	x0, .LBB12_2
.Ltmp296:
// %bb.1:
	//DEBUG_VALUE: blk_busyidle_event_unsubscribe:event_node <- $x0
	stp	x29, x30, [sp, #-16]!   // 16-byte Folded Spill
	mov	x29, sp
	.cfi_def_cfa w29, 16
	.cfi_offset w30, -8
	.cfi_offset w29, -16
	.loc	2 686 9                 // kernel/block/hisi-blk-busy-idle-notify.c:686:9
	bl	hisi_blk_busyidle_event_unregister
.Ltmp297:
	.loc	2 0 9 is_stmt 0         // kernel/block/hisi-blk-busy-idle-notify.c:0:9
	ldp	x29, x30, [sp], #16     // 16-byte Folded Reload
	.loc	2 687 1 is_stmt 1       // kernel/block/hisi-blk-busy-idle-notify.c:687:1
	ret
.LBB12_2:
.Ltmp298:
	//DEBUG_VALUE: blk_busyidle_event_unsubscribe:event_node <- $x0
	.loc	2 0 1 is_stmt 0         // kernel/block/hisi-blk-busy-idle-notify.c:0:1
	mov	w0, #-22
.Ltmp299:
	.loc	2 687 1                 // kernel/block/hisi-blk-busy-idle-notify.c:687:1
	ret
.Ltmp300:
.Lfunc_end12:
	.size	blk_busyidle_event_unsubscribe, .Lfunc_end12-blk_busyidle_event_unsubscribe
	.cfi_endproc
                                        // -- End function
	.p2align	2               // -- Begin function hisi_blk_busyidle_event_unregister
	.type	hisi_blk_busyidle_event_unregister,@function
hisi_blk_busyidle_event_unregister:     // @hisi_blk_busyidle_event_unregister
.Lfunc_begin13:
	.loc	2 217 0 is_stmt 1       // kernel/block/hisi-blk-busy-idle-notify.c:217:0
	.cfi_startproc
// %bb.0:
	//DEBUG_VALUE: hisi_blk_busyidle_event_unregister:event_node <- $x0
	stp	x24, x23, [sp, #-64]!   // 16-byte Folded Spill
	stp	x22, x21, [sp, #16]     // 16-byte Folded Spill
	stp	x20, x19, [sp, #32]     // 16-byte Folded Spill
	stp	x29, x30, [sp, #48]     // 16-byte Folded Spill
	add	x29, sp, #48            // =48
	.cfi_def_cfa w29, 16
	.cfi_offset w30, -8
	.cfi_offset w29, -16
	.cfi_offset w19, -24
	.cfi_offset w20, -32
	.cfi_offset w21, -40
	.cfi_offset w22, -48
	.cfi_offset w23, -56
	.cfi_offset w24, -64
.Ltmp301:
	.loc	2 220 40 prologue_end   // kernel/block/hisi-blk-busy-idle-notify.c:220:40
	ldr	x23, [x0, #48]
.Ltmp302:
	//DEBUG_VALUE: hisi_blk_busyidle_event_unregister:blk_idle <- [DW_OP_plus_uconst 88, DW_OP_stack_value] $x23
	//DEBUG_VALUE: hisi_blk_busyidle_event_unregister:lld <- $x23
	.loc	2 0 40 is_stmt 0        // kernel/block/hisi-blk-busy-idle-notify.c:0:40
	mov	x21, x0
.Ltmp303:
	//DEBUG_VALUE: hisi_blk_busyidle_event_unregister:nb <- 0
	//DEBUG_VALUE: hisi_blk_busyidle_event_unregister:ret <- 0
	//DEBUG_VALUE: hisi_blk_busyidle_event_unregister:event_node <- $x21
	.loc	2 223 24 is_stmt 1      // kernel/block/hisi-blk-busy-idle-notify.c:223:24
	add	x19, x23, #304          // =304
	.loc	2 223 2 is_stmt 0       // kernel/block/hisi-blk-busy-idle-notify.c:223:2
	mov	x0, x19
	bl	mutex_lock
.Ltmp304:
	//DEBUG_VALUE: __mptr <- undef
	//DEBUG_VALUE: busyidle_find_subscribed_node:blk_idle <- [DW_OP_plus_uconst 88, DW_OP_stack_value] $x23
	.loc	2 0 0                   // kernel/block/hisi-blk-busy-idle-notify.c:0:0
	mov	x24, x23
	ldr	x20, [x24, #200]!
.Ltmp305:
	//DEBUG_VALUE: busyidle_find_subscribed_node:node <- $x21
	//DEBUG_VALUE: busyidle_find_subscribed_node:p <- 0
	.loc	2 121 2 is_stmt 1       // kernel/block/hisi-blk-busy-idle-notify.c:121:2
	cmp	x20, x24
	b.ne	.LBB13_2
	b	.LBB13_6
.Ltmp306:
.LBB13_1:                               //   in Loop: Header=BB13_2 Depth=1
	//DEBUG_VALUE: hisi_blk_busyidle_event_unregister:nb <- $x20
	//DEBUG_VALUE: busyidle_find_subscribed_node:node <- $x21
	//DEBUG_VALUE: busyidle_find_subscribed_node:blk_idle <- [DW_OP_plus_uconst 88, DW_OP_stack_value] $x23
	//DEBUG_VALUE: hisi_blk_busyidle_event_unregister:event_node <- $x21
	//DEBUG_VALUE: hisi_blk_busyidle_event_unregister:lld <- $x23
	//DEBUG_VALUE: hisi_blk_busyidle_event_unregister:blk_idle <- [DW_OP_plus_uconst 88, DW_OP_stack_value] $x23
	//DEBUG_VALUE: __mptr <- undef
	.loc	2 0 0 is_stmt 0         // kernel/block/hisi-blk-busy-idle-notify.c:0:0
	ldr	x20, [x20]
.Ltmp307:
	//DEBUG_VALUE: busyidle_find_subscribed_node:node <- $x21
	//DEBUG_VALUE: busyidle_find_subscribed_node:p <- 0
	.loc	2 121 2                 // kernel/block/hisi-blk-busy-idle-notify.c:121:2
	cmp	x20, x24
	b.eq	.LBB13_6
.Ltmp308:
.LBB13_2:                               // =>This Inner Loop Header: Depth=1
	//DEBUG_VALUE: busyidle_find_subscribed_node:node <- $x21
	//DEBUG_VALUE: busyidle_find_subscribed_node:blk_idle <- [DW_OP_plus_uconst 88, DW_OP_stack_value] $x23
	//DEBUG_VALUE: hisi_blk_busyidle_event_unregister:event_node <- $x21
	//DEBUG_VALUE: hisi_blk_busyidle_event_unregister:lld <- $x23
	//DEBUG_VALUE: hisi_blk_busyidle_event_unregister:blk_idle <- [DW_OP_plus_uconst 88, DW_OP_stack_value] $x23
	//DEBUG_VALUE: hisi_blk_busyidle_event_unregister:nb <- $x20
	.loc	2 122 33 is_stmt 1      // kernel/block/hisi-blk-busy-idle-notify.c:122:33
	add	x22, x20, #88           // =88
	.loc	2 122 8 is_stmt 0       // kernel/block/hisi-blk-busy-idle-notify.c:122:8
	mov	x0, x21
	mov	x1, x22
	bl	strcmp
	.loc	2 123 4 is_stmt 1       // kernel/block/hisi-blk-busy-idle-notify.c:123:4
	cbnz	w0, .LBB13_1
.Ltmp309:
// %bb.3:                               //   in Loop: Header=BB13_2 Depth=1
	//DEBUG_VALUE: hisi_blk_busyidle_event_unregister:nb <- $x20
	//DEBUG_VALUE: busyidle_find_subscribed_node:node <- $x21
	//DEBUG_VALUE: busyidle_find_subscribed_node:blk_idle <- [DW_OP_plus_uconst 88, DW_OP_stack_value] $x23
	//DEBUG_VALUE: hisi_blk_busyidle_event_unregister:event_node <- $x21
	//DEBUG_VALUE: hisi_blk_busyidle_event_unregister:lld <- $x23
	//DEBUG_VALUE: hisi_blk_busyidle_event_unregister:blk_idle <- [DW_OP_plus_uconst 88, DW_OP_stack_value] $x23
	.loc	2 123 13 is_stmt 0      // kernel/block/hisi-blk-busy-idle-notify.c:123:13
	ldr	x8, [x21, #32]
	.loc	2 124 18 is_stmt 1      // kernel/block/hisi-blk-busy-idle-notify.c:124:18
	ldr	x9, [x20, #120]
.Ltmp310:
	.loc	2 122 7                 // kernel/block/hisi-blk-busy-idle-notify.c:122:7
	cmp	x8, x9
	b.ne	.LBB13_1
.Ltmp311:
// %bb.4:
	//DEBUG_VALUE: hisi_blk_busyidle_event_unregister:nb <- $x20
	//DEBUG_VALUE: hisi_blk_busyidle_event_unregister:event_node <- $x21
	//DEBUG_VALUE: hisi_blk_busyidle_event_unregister:lld <- $x23
	//DEBUG_VALUE: hisi_blk_busyidle_event_unregister:blk_idle <- [DW_OP_plus_uconst 88, DW_OP_stack_value] $x23
	.loc	2 225 6                 // kernel/block/hisi-blk-busy-idle-notify.c:225:6
	cbz	x20, .LBB13_6
.Ltmp312:
// %bb.5:
	//DEBUG_VALUE: hisi_blk_busyidle_event_unregister:nb <- $x20
	//DEBUG_VALUE: hisi_blk_busyidle_event_unregister:event_node <- $x21
	//DEBUG_VALUE: hisi_blk_busyidle_event_unregister:lld <- $x23
	//DEBUG_VALUE: hisi_blk_busyidle_event_unregister:blk_idle <- [DW_OP_plus_uconst 88, DW_OP_stack_value] $x23
	.loc	2 232 57                // kernel/block/hisi-blk-busy-idle-notify.c:232:57
	add	x21, x20, #64           // =64
.Ltmp313:
	.loc	2 232 48 is_stmt 0      // kernel/block/hisi-blk-busy-idle-notify.c:232:48
	add	x0, x23, #216           // =216
	.loc	2 232 2                 // kernel/block/hisi-blk-busy-idle-notify.c:232:2
	mov	x1, x21
	bl	blocking_notifier_chain_unregister
	.loc	2 233 2 is_stmt 1       // kernel/block/hisi-blk-busy-idle-notify.c:233:2
	adrp	x0, .L.str.18
	add	x0, x0, :lo12:.L.str.18
	mov	x1, x22
	mov	x2, x21
	bl	printk
.Ltmp314:
	//DEBUG_VALUE: __list_del_entry:entry <- $x20
	//DEBUG_VALUE: list_del_init:entry <- $x20
	.loc	140 120 33              // kernel/include/linux/list.h:120:33
	ldp	x8, x9, [x20]
.Ltmp315:
	//DEBUG_VALUE: __list_del:prev <- $x9
	//DEBUG_VALUE: __list_del:next <- $x8
	.loc	2 237 2                 // kernel/block/hisi-blk-busy-idle-notify.c:237:2
	mov	x0, x20
.Ltmp316:
	.loc	140 105 13              // kernel/include/linux/list.h:105:13
	str	x9, [x8, #8]
.Ltmp317:
	//DEBUG_VALUE: __write_once_size:p <- $x9
	//DEBUG_VALUE: __write_once_size:size <- 8
	//DEBUG_VALUE: __write_once_size:res <- undef
	.loc	137 210 31              // kernel/include/linux/compiler.h:210:31
	str	x8, [x9]
.Ltmp318:
	//DEBUG_VALUE: __write_once_size:p <- $x20
	//DEBUG_VALUE: __write_once_size:size <- 8
	//DEBUG_VALUE: __write_once_size:res <- undef
	//DEBUG_VALUE: INIT_LIST_HEAD:list <- $x20
	.loc	137 210 31 is_stmt 0    // kernel/include/linux/compiler.h:210:31
	str	x20, [x20]
.Ltmp319:
	.loc	140 29 13 is_stmt 1     // kernel/include/linux/list.h:29:13
	str	x20, [x20, #8]
.Ltmp320:
	.loc	2 237 2                 // kernel/block/hisi-blk-busy-idle-notify.c:237:2
	bl	kfree
.Ltmp321:
	.loc	2 0 0 is_stmt 0         // kernel/block/hisi-blk-busy-idle-notify.c:0:0
	mov	w20, wzr
.Ltmp322:
	b	.LBB13_7
.Ltmp323:
.LBB13_6:
	//DEBUG_VALUE: hisi_blk_busyidle_event_unregister:event_node <- $x21
	//DEBUG_VALUE: hisi_blk_busyidle_event_unregister:lld <- $x23
	//DEBUG_VALUE: hisi_blk_busyidle_event_unregister:blk_idle <- [DW_OP_plus_uconst 88, DW_OP_stack_value] $x23
	.loc	2 226 3 is_stmt 1       // kernel/block/hisi-blk-busy-idle-notify.c:226:3
	adrp	x0, .L.str.17
	add	x0, x0, :lo12:.L.str.17
	bl	printk
	.loc	2 227 3                 // kernel/block/hisi-blk-busy-idle-notify.c:227:3
	bl	dump_stack
	mov	w20, #-22
.Ltmp324:
	//DEBUG_VALUE: hisi_blk_busyidle_event_unregister:ret <- -22
.LBB13_7:
	//DEBUG_VALUE: hisi_blk_busyidle_event_unregister:lld <- $x23
	//DEBUG_VALUE: hisi_blk_busyidle_event_unregister:blk_idle <- [DW_OP_plus_uconst 88, DW_OP_stack_value] $x23
	//DEBUG_VALUE: hisi_blk_busyidle_event_unregister:ret <- $w20
	//DEBUG_LABEL: hisi_blk_busyidle_event_unregister:out
	.loc	2 240 2                 // kernel/block/hisi-blk-busy-idle-notify.c:240:2
	mov	x0, x19
	bl	mutex_unlock
	.loc	2 241 2                 // kernel/block/hisi-blk-busy-idle-notify.c:241:2
	mov	w0, w20
	ldp	x29, x30, [sp, #48]     // 16-byte Folded Reload
	ldp	x20, x19, [sp, #32]     // 16-byte Folded Reload
.Ltmp325:
	ldp	x22, x21, [sp, #16]     // 16-byte Folded Reload
	ldp	x24, x23, [sp], #64     // 16-byte Folded Reload
.Ltmp326:
	ret
.Ltmp327:
.Lfunc_end13:
	.size	hisi_blk_busyidle_event_unregister, .Lfunc_end13-hisi_blk_busyidle_event_unregister
	.cfi_endproc
                                        // -- End function
	.globl	blk_queue_busyidle_event_unsubscribe // -- Begin function blk_queue_busyidle_event_unsubscribe
	.p2align	2
	.type	blk_queue_busyidle_event_unsubscribe,@function
blk_queue_busyidle_event_unsubscribe:   // @blk_queue_busyidle_event_unsubscribe
.Lfunc_begin14:
	.loc	2 694 0                 // kernel/block/hisi-blk-busy-idle-notify.c:694:0
	.cfi_startproc
// %bb.0:
	//DEBUG_VALUE: blk_queue_busyidle_event_unsubscribe:event_node <- $x0
	//DEBUG_VALUE: blk_queue_busyidle_event_unsubscribe:event_node <- $x0
	.loc	2 695 6 prologue_end    // kernel/block/hisi-blk-busy-idle-notify.c:695:6
	cbz	x0, .LBB14_2
.Ltmp328:
// %bb.1:
	//DEBUG_VALUE: blk_queue_busyidle_event_unsubscribe:event_node <- $x0
	stp	x29, x30, [sp, #-16]!   // 16-byte Folded Spill
	mov	x29, sp
	.cfi_def_cfa w29, 16
	.cfi_offset w30, -8
	.cfi_offset w29, -16
	.loc	2 698 9                 // kernel/block/hisi-blk-busy-idle-notify.c:698:9
	bl	hisi_blk_busyidle_event_unregister
.Ltmp329:
	.loc	2 0 9 is_stmt 0         // kernel/block/hisi-blk-busy-idle-notify.c:0:9
	ldp	x29, x30, [sp], #16     // 16-byte Folded Reload
	.loc	2 699 1 is_stmt 1       // kernel/block/hisi-blk-busy-idle-notify.c:699:1
	ret
.LBB14_2:
.Ltmp330:
	//DEBUG_VALUE: blk_queue_busyidle_event_unsubscribe:event_node <- $x0
	.loc	2 0 1 is_stmt 0         // kernel/block/hisi-blk-busy-idle-notify.c:0:1
	mov	w0, #-22
.Ltmp331:
	.loc	2 699 1                 // kernel/block/hisi-blk-busy-idle-notify.c:699:1
	ret
.Ltmp332:
.Lfunc_end14:
	.size	blk_queue_busyidle_event_unsubscribe, .Lfunc_end14-blk_queue_busyidle_event_unsubscribe
	.cfi_endproc
                                        // -- End function
	.globl	blk_queue_busyidle_enable // -- Begin function blk_queue_busyidle_enable
	.p2align	2
	.type	blk_queue_busyidle_enable,@function
blk_queue_busyidle_enable:              // @blk_queue_busyidle_enable
.Lfunc_begin15:
	.loc	2 705 0 is_stmt 1       // kernel/block/hisi-blk-busy-idle-notify.c:705:0
	.cfi_startproc
// %bb.0:
	//DEBUG_VALUE: blk_queue_busyidle_enable:q <- $x0
	//DEBUG_VALUE: blk_queue_busyidle_enable:enable <- $w1
	//DEBUG_VALUE: blk_queue_busyidle_enable:blk_lld <- 0
	//DEBUG_VALUE: blk_queue_busyidle_enable:q <- $x0
	.loc	2 708 6 prologue_end    // kernel/block/hisi-blk-busy-idle-notify.c:708:6
	cbz	x0, .LBB15_2
.Ltmp333:
// %bb.1:
	//DEBUG_VALUE: blk_queue_busyidle_enable:enable <- $w1
	//DEBUG_VALUE: blk_queue_busyidle_enable:q <- $x0
	str	x19, [sp, #-32]!        // 8-byte Folded Spill
	stp	x29, x30, [sp, #16]     // 16-byte Folded Spill
	add	x29, sp, #16            // =16
	.cfi_def_cfa w29, 16
	.cfi_offset w30, -8
	.cfi_offset w29, -16
	.cfi_offset w19, -32
	mov	w19, w1
.Ltmp334:
	//DEBUG_VALUE: blk_queue_busyidle_enable:enable <- $w19
	.loc	2 711 12                // kernel/block/hisi-blk-busy-idle-notify.c:711:12
	bl	hisi_blk_get_lld
.Ltmp335:
	//DEBUG_VALUE: blk_queue_busyidle_enable:blk_lld <- $x0
	.loc	2 0 0 is_stmt 0         // kernel/block/hisi-blk-busy-idle-notify.c:0:0
	ldr	x8, [x0, #24]
.Ltmp336:
	.loc	2 713 6 is_stmt 1       // kernel/block/hisi-blk-busy-idle-notify.c:713:6
	cmp	w19, #0                 // =0
	and	x9, x8, #0xfffffffffffffff7
	orr	x8, x8, #0x8
	csel	x8, x9, x8, eq
.Ltmp337:
	.loc	2 0 0 is_stmt 0         // kernel/block/hisi-blk-busy-idle-notify.c:0:0
	str	x8, [x0, #24]
	ldp	x29, x30, [sp, #16]     // 16-byte Folded Reload
	ldr	x19, [sp], #32          // 8-byte Folded Reload
.Ltmp338:
.LBB15_2:
	.loc	2 717 1 is_stmt 1       // kernel/block/hisi-blk-busy-idle-notify.c:717:1
	ret
.Ltmp339:
.Lfunc_end15:
	.size	blk_queue_busyidle_enable, .Lfunc_end15-blk_queue_busyidle_enable
	.cfi_endproc
                                        // -- End function
	.globl	blk_mq_tagset_busyidle_enable // -- Begin function blk_mq_tagset_busyidle_enable
	.p2align	2
	.type	blk_mq_tagset_busyidle_enable,@function
blk_mq_tagset_busyidle_enable:          // @blk_mq_tagset_busyidle_enable
.Lfunc_begin16:
	.loc	2 723 0                 // kernel/block/hisi-blk-busy-idle-notify.c:723:0
	.cfi_startproc
// %bb.0:
	//DEBUG_VALUE: blk_mq_tagset_busyidle_enable:tag_set <- $x0
	//DEBUG_VALUE: blk_mq_tagset_busyidle_enable:tag_set <- $x0
	//DEBUG_VALUE: blk_mq_tagset_busyidle_enable:enable <- $w1
	//DEBUG_VALUE: blk_mq_tagset_busyidle_enable:enable <- $w1
	//DEBUG_VALUE: blk_mq_tagset_busyidle_enable:blk_lld <- 0
	.loc	2 726 6 prologue_end    // kernel/block/hisi-blk-busy-idle-notify.c:726:6
	cbz	x0, .LBB16_2
// %bb.1:
	//DEBUG_VALUE: blk_mq_tagset_busyidle_enable:enable <- $w1
	//DEBUG_VALUE: blk_mq_tagset_busyidle_enable:tag_set <- $x0
.Ltmp340:
	//DEBUG_VALUE: blk_mq_tagset_busyidle_enable:blk_lld <- [DW_OP_plus_uconst 16, DW_OP_stack_value] $x0
	.loc	2 0 0 is_stmt 0         // kernel/block/hisi-blk-busy-idle-notify.c:0:0
	ldr	x8, [x0, #40]
.Ltmp341:
	.loc	2 731 6 is_stmt 1       // kernel/block/hisi-blk-busy-idle-notify.c:731:6
	cmp	w1, #0                  // =0
	and	x9, x8, #0xfffffffffffffff7
	orr	x8, x8, #0x8
	csel	x8, x9, x8, eq
.Ltmp342:
	.loc	2 0 0 is_stmt 0         // kernel/block/hisi-blk-busy-idle-notify.c:0:0
	str	x8, [x0, #40]
.Ltmp343:
.LBB16_2:
	//DEBUG_VALUE: blk_mq_tagset_busyidle_enable:enable <- $w1
	//DEBUG_VALUE: blk_mq_tagset_busyidle_enable:tag_set <- $x0
	.loc	2 735 1 is_stmt 1       // kernel/block/hisi-blk-busy-idle-notify.c:735:1
	ret
.Ltmp344:
.Lfunc_end16:
	.size	blk_mq_tagset_busyidle_enable, .Lfunc_end16-blk_mq_tagset_busyidle_enable
	.cfi_endproc
                                        // -- End function
	.globl	blk_mq_tagset_hw_idle_notify_enable // -- Begin function blk_mq_tagset_hw_idle_notify_enable
	.p2align	2
	.type	blk_mq_tagset_hw_idle_notify_enable,@function
blk_mq_tagset_hw_idle_notify_enable:    // @blk_mq_tagset_hw_idle_notify_enable
.Lfunc_begin17:
	.loc	2 742 0                 // kernel/block/hisi-blk-busy-idle-notify.c:742:0
	.cfi_startproc
// %bb.0:
	//DEBUG_VALUE: blk_mq_tagset_hw_idle_notify_enable:tag_set <- $x0
	//DEBUG_VALUE: blk_mq_tagset_hw_idle_notify_enable:tag_set <- $x0
	//DEBUG_VALUE: blk_mq_tagset_hw_idle_notify_enable:enable <- $w1
	//DEBUG_VALUE: blk_mq_tagset_hw_idle_notify_enable:enable <- $w1
	//DEBUG_VALUE: blk_mq_tagset_hw_idle_notify_enable:blk_lld <- 0
	.loc	2 745 6 prologue_end    // kernel/block/hisi-blk-busy-idle-notify.c:745:6
	cbz	x0, .LBB17_2
// %bb.1:
	//DEBUG_VALUE: blk_mq_tagset_hw_idle_notify_enable:enable <- $w1
	//DEBUG_VALUE: blk_mq_tagset_hw_idle_notify_enable:tag_set <- $x0
.Ltmp345:
	//DEBUG_VALUE: blk_mq_tagset_hw_idle_notify_enable:blk_lld <- [DW_OP_plus_uconst 16, DW_OP_stack_value] $x0
	.loc	2 749 41                // kernel/block/hisi-blk-busy-idle-notify.c:749:41
	cmp	w1, #0                  // =0
	cset	w8, ne
	.loc	2 749 38 is_stmt 0      // kernel/block/hisi-blk-busy-idle-notify.c:749:38
	strb	w8, [x0, #104]
.LBB17_2:
	//DEBUG_VALUE: blk_mq_tagset_hw_idle_notify_enable:enable <- $w1
	//DEBUG_VALUE: blk_mq_tagset_hw_idle_notify_enable:tag_set <- $x0
	.loc	2 750 1 is_stmt 1       // kernel/block/hisi-blk-busy-idle-notify.c:750:1
	ret
.Ltmp346:
.Lfunc_end17:
	.size	blk_mq_tagset_hw_idle_notify_enable, .Lfunc_end17-blk_mq_tagset_hw_idle_notify_enable
	.cfi_endproc
                                        // -- End function
	.globl	hisi_blk_busyidle_state_init // -- Begin function hisi_blk_busyidle_state_init
	.p2align	2
	.type	hisi_blk_busyidle_state_init,@function
hisi_blk_busyidle_state_init:           // @hisi_blk_busyidle_state_init
.Lfunc_begin18:
	.loc	2 753 0                 // kernel/block/hisi-blk-busy-idle-notify.c:753:0
	.cfi_startproc
// %bb.0:
	//DEBUG_VALUE: hisi_blk_busyidle_state_init:blk_idle <- $x0
	stp	x20, x19, [sp, #-32]!   // 16-byte Folded Spill
	stp	x29, x30, [sp, #16]     // 16-byte Folded Spill
	add	x29, sp, #16            // =16
	.cfi_def_cfa w29, 16
	.cfi_offset w30, -8
	.cfi_offset w29, -16
	.cfi_offset w19, -24
	.cfi_offset w20, -32
.Ltmp347:
	.loc	2 754 7 prologue_end    // kernel/block/hisi-blk-busy-idle-notify.c:754:7
	adrp	x20, blk_idle_notify_workqueue
	ldr	x8, [x20, :lo12:blk_idle_notify_workqueue]
	mov	x19, x0
.Ltmp348:
	//DEBUG_VALUE: hisi_blk_busyidle_state_init:blk_idle <- $x19
	.loc	2 754 6 is_stmt 0       // kernel/block/hisi-blk-busy-idle-notify.c:754:6
	cbnz	x8, .LBB18_2
.Ltmp349:
// %bb.1:
	//DEBUG_VALUE: hisi_blk_busyidle_state_init:blk_idle <- $x19
	.loc	2 755 31 is_stmt 1      // kernel/block/hisi-blk-busy-idle-notify.c:755:31
	adrp	x0, .L.str.4
	add	x0, x0, :lo12:.L.str.4
	orr	w1, wzr, #0x18
	mov	w2, wzr
	mov	x3, xzr
	mov	x4, xzr
	bl	__alloc_workqueue_key
	.loc	2 755 29 is_stmt 0      // kernel/block/hisi-blk-busy-idle-notify.c:755:29
	str	x0, [x20, :lo12:blk_idle_notify_workqueue]
.Ltmp350:
	.loc	2 758 6 is_stmt 1       // kernel/block/hisi-blk-busy-idle-notify.c:758:6
	cbz	x0, .LBB18_4
.Ltmp351:
.LBB18_2:
	//DEBUG_VALUE: hisi_blk_busyidle_state_init:blk_idle <- $x19
	.loc	2 0 6 is_stmt 0         // kernel/block/hisi-blk-busy-idle-notify.c:0:6
	mov	x8, #68719476704
.Ltmp352:
	.loc	2 774 2 is_stmt 1       // kernel/block/hisi-blk-busy-idle-notify.c:774:2
	adrp	x10, __cfi_hisi_blk_idle_notify_work
	str	x8, [x19, #8]!
.Ltmp353:
	.loc	2 0 2 is_stmt 0         // kernel/block/hisi-blk-busy-idle-notify.c:0:2
	mov	w9, #5
	.loc	2 774 2                 // kernel/block/hisi-blk-busy-idle-notify.c:774:2
	add	x10, x10, :lo12:__cfi_hisi_blk_idle_notify_work
	add	x8, x19, #8             // =8
.Ltmp354:
	//DEBUG_VALUE: __write_once_size:p <- $x8
	//DEBUG_VALUE: __write_once_size:size <- 8
	//DEBUG_VALUE: __write_once_size:res <- undef
	//DEBUG_VALUE: INIT_LIST_HEAD:list <- $x8
	.loc	2 774 2                 // kernel/block/hisi-blk-busy-idle-notify.c:774:2
	add	x0, x19, #32            // =32
	orr	w1, wzr, #0x200000
	mov	x2, xzr
	mov	x3, xzr
.Ltmp355:
	.loc	2 773 33 is_stmt 1      // kernel/block/hisi-blk-busy-idle-notify.c:773:33
	str	w9, [x19, #96]
.Ltmp356:
	.loc	137 210 31              // kernel/include/linux/compiler.h:210:31
	str	x8, [x19, #8]
.Ltmp357:
	.loc	140 29 13               // kernel/include/linux/list.h:29:13
	stp	x8, x10, [x19, #16]
.Ltmp358:
	.loc	2 774 2                 // kernel/block/hisi-blk-busy-idle-notify.c:774:2
	bl	init_timer_key
.Ltmp359:
	adrp	x8, delayed_work_timer_fn
.Ltmp360:
	.loc	2 777 2                 // kernel/block/hisi-blk-busy-idle-notify.c:777:2
	adrp	x1, .L.str.6
	adrp	x2, hisi_blk_busyidle_state_init.__key
.Ltmp361:
	.loc	2 774 2                 // kernel/block/hisi-blk-busy-idle-notify.c:774:2
	add	x8, x8, :lo12:delayed_work_timer_fn
.Ltmp362:
	.loc	2 777 2                 // kernel/block/hisi-blk-busy-idle-notify.c:777:2
	add	x0, x19, #208           // =208
	add	x1, x1, :lo12:.L.str.6
	add	x2, x2, :lo12:hisi_blk_busyidle_state_init.__key
.Ltmp363:
	.loc	2 774 2                 // kernel/block/hisi-blk-busy-idle-notify.c:774:2
	stp	x8, x19, [x19, #56]
.Ltmp364:
	//DEBUG_VALUE: __write_once_size:p <- [DW_OP_plus_uconst 200, DW_OP_stack_value] $x19
	//DEBUG_VALUE: __write_once_size:size <- 4
	//DEBUG_VALUE: __write_once_size:res <- undef
	.loc	137 209 31              // kernel/include/linux/compiler.h:209:31
	str	wzr, [x19, #200]
.Ltmp365:
	.loc	2 777 2                 // kernel/block/hisi-blk-busy-idle-notify.c:777:2
	bl	__mutex_init
.Ltmp366:
	.loc	2 779 2                 // kernel/block/hisi-blk-busy-idle-notify.c:779:2
	adrp	x1, .L.str.8
	adrp	x2, hisi_blk_busyidle_state_init.__key.7
.Ltmp367:
	.loc	2 778 28                // kernel/block/hisi-blk-busy-idle-notify.c:778:28
	add	x8, x19, #104           // =104
.Ltmp368:
	//DEBUG_VALUE: __write_once_size:p <- $x8
	//DEBUG_VALUE: __write_once_size:size <- 8
	//DEBUG_VALUE: __write_once_size:res <- undef
	//DEBUG_VALUE: INIT_LIST_HEAD:list <- $x8
	.loc	2 779 2                 // kernel/block/hisi-blk-busy-idle-notify.c:779:2
	add	x0, x19, #120           // =120
	add	x1, x1, :lo12:.L.str.8
	add	x2, x2, :lo12:hisi_blk_busyidle_state_init.__key.7
.Ltmp369:
	.loc	137 210 31              // kernel/include/linux/compiler.h:210:31
	str	x8, [x19, #104]
.Ltmp370:
	.loc	140 29 13               // kernel/include/linux/list.h:29:13
	str	x8, [x19, #112]
.Ltmp371:
	.loc	2 779 2                 // kernel/block/hisi-blk-busy-idle-notify.c:779:2
	bl	__init_rwsem
.Ltmp372:
	.loc	2 786 2                 // kernel/block/hisi-blk-busy-idle-notify.c:786:2
	adrp	x1, .L.str.10
	adrp	x2, hisi_blk_busyidle_state_init.__key.9
	orr	w8, wzr, #0x1
.Ltmp373:
	.loc	2 784 28                // kernel/block/hisi-blk-busy-idle-notify.c:784:28
	add	x9, x19, #296           // =296
.Ltmp374:
	//DEBUG_VALUE: __write_once_size:res <- undef
	.loc	2 785 28                // kernel/block/hisi-blk-busy-idle-notify.c:785:28
	add	x10, x19, #312          // =312
.Ltmp375:
	//DEBUG_VALUE: __write_once_size:res <- undef
	.loc	2 786 2                 // kernel/block/hisi-blk-busy-idle-notify.c:786:2
	add	x0, x19, #328           // =328
	add	x1, x1, :lo12:.L.str.10
	add	x2, x2, :lo12:hisi_blk_busyidle_state_init.__key.9
.Ltmp376:
	.loc	2 779 2                 // kernel/block/hisi-blk-busy-idle-notify.c:779:2
	str	xzr, [x19, #192]
.Ltmp377:
	.loc	2 783 22                // kernel/block/hisi-blk-busy-idle-notify.c:783:22
	stp	xzr, xzr, [x19, #280]
	.loc	2 780 23                // kernel/block/hisi-blk-busy-idle-notify.c:780:23
	str	w8, [x19, #272]
.Ltmp378:
	//DEBUG_VALUE: __write_once_size:p <- $x9
	//DEBUG_VALUE: __write_once_size:size <- 8
	//DEBUG_VALUE: INIT_LIST_HEAD:list <- $x9
	.loc	137 210 31              // kernel/include/linux/compiler.h:210:31
	str	x9, [x19, #296]
.Ltmp379:
	.loc	140 29 13               // kernel/include/linux/list.h:29:13
	str	x9, [x19, #304]
.Ltmp380:
	//DEBUG_VALUE: __write_once_size:p <- $x10
	//DEBUG_VALUE: __write_once_size:size <- 8
	//DEBUG_VALUE: INIT_LIST_HEAD:list <- $x10
	.loc	137 210 31              // kernel/include/linux/compiler.h:210:31
	str	x10, [x19, #312]
.Ltmp381:
	.loc	140 29 13               // kernel/include/linux/list.h:29:13
	str	x10, [x19, #320]
.Ltmp382:
	.loc	2 786 2                 // kernel/block/hisi-blk-busy-idle-notify.c:786:2
	bl	__raw_spin_lock_init
.Ltmp383:
	.loc	2 0 0 is_stmt 0         // kernel/block/hisi-blk-busy-idle-notify.c:0:0
	mov	w0, wzr
.Ltmp384:
.LBB18_3:
	.loc	2 789 1 is_stmt 1       // kernel/block/hisi-blk-busy-idle-notify.c:789:1
	ldp	x29, x30, [sp, #16]     // 16-byte Folded Reload
	ldp	x20, x19, [sp], #32     // 16-byte Folded Reload
	ret
.LBB18_4:
.Ltmp385:
	//DEBUG_VALUE: hisi_blk_busyidle_state_init:blk_idle <- $x19
	.loc	2 759 3                 // kernel/block/hisi-blk-busy-idle-notify.c:759:3
	adrp	x0, .L.str.5
	adrp	x1, .L__func__.hisi_blk_busyidle_state_init
	add	x0, x0, :lo12:.L.str.5
	add	x1, x1, :lo12:.L__func__.hisi_blk_busyidle_state_init
	bl	printk
	mov	w0, #-12
	b	.LBB18_3
.Ltmp386:
.Lfunc_end18:
	.size	hisi_blk_busyidle_state_init, .Lfunc_end18-hisi_blk_busyidle_state_init
	.cfi_endproc
                                        // -- End function
	.type	.L.str,@object          // @.str
	.section	.rodata.str1.1,"aMS",@progbits,1
.L.str:
	.asciz	"\0013[BLK-IO]%s: %s process time is more than %u ms\n"
	.size	.L.str, 50

	.type	.L__func__.hisi_blk_busyidle_handler_latency_check_timer_expire,@object // @__func__.hisi_blk_busyidle_handler_latency_check_timer_expire
.L__func__.hisi_blk_busyidle_handler_latency_check_timer_expire:
	.asciz	"hisi_blk_busyidle_handler_latency_check_timer_expire"
	.size	.L__func__.hisi_blk_busyidle_handler_latency_check_timer_expire, 53

	.type	.L.str.1,@object        // @.str.1
.L.str.1:
	.asciz	"\0013[BLK-IO]%s: %s NULL callback\n"
	.size	.L.str.1, 32

	.type	.L__func__.hisi_blk_busyidle_notify_handler,@object // @__func__.hisi_blk_busyidle_notify_handler
.L__func__.hisi_blk_busyidle_notify_handler:
	.asciz	"hisi_blk_busyidle_notify_handler"
	.size	.L__func__.hisi_blk_busyidle_notify_handler, 33

	.type	.L.str.2,@object        // @.str.2
.L.str.2:
	.asciz	"\0013[BLK-IO]%s: %s error!\n"
	.size	.L.str.2, 25

	.type	.L.str.3,@object        // @.str.3
.L.str.3:
	.asciz	"\0013[BLK-IO]%s: %s busy idle callback cost %lld ms\n"
	.size	.L.str.3, 50

	.type	blk_idle_notify_workqueue,@object // @blk_idle_notify_workqueue
	.local	blk_idle_notify_workqueue
	.comm	blk_idle_notify_workqueue,8,8
	.type	.L.str.4,@object        // @.str.4
.L.str.4:
	.asciz	"busyidle_notify"
	.size	.L.str.4, 16

	.type	.L.str.5,@object        // @.str.5
.L.str.5:
	.asciz	"\0013[BLK-IO]%s: Failed to alloc workqueue!\n"
	.size	.L.str.5, 42

	.type	.L__func__.hisi_blk_busyidle_state_init,@object // @__func__.hisi_blk_busyidle_state_init
.L__func__.hisi_blk_busyidle_state_init:
	.asciz	"hisi_blk_busyidle_state_init"
	.size	.L__func__.hisi_blk_busyidle_state_init, 29

	.type	hisi_blk_busyidle_state_init.__key,@object // @hisi_blk_busyidle_state_init.__key
	.local	hisi_blk_busyidle_state_init.__key
	.comm	hisi_blk_busyidle_state_init.__key,1,1
	.type	.L.str.6,@object        // @.str.6
.L.str.6:
	.asciz	"&blk_idle->io_count_mutex"
	.size	.L.str.6, 26

	.type	hisi_blk_busyidle_state_init.__key.7,@object // @hisi_blk_busyidle_state_init.__key.7
	.local	hisi_blk_busyidle_state_init.__key.7
	.comm	hisi_blk_busyidle_state_init.__key.7,1,1
	.type	.L.str.8,@object        // @.str.8
.L.str.8:
	.asciz	"&(&blk_idle->nh)->rwsem"
	.size	.L.str.8, 24

	.type	hisi_blk_busyidle_state_init.__key.9,@object // @hisi_blk_busyidle_state_init.__key.9
	.local	hisi_blk_busyidle_state_init.__key.9
	.comm	hisi_blk_busyidle_state_init.__key.9,1,1
	.type	.L.str.10,@object       // @.str.10
.L.str.10:
	.asciz	"&(&blk_idle->counted_list_lock)->rlock"
	.size	.L.str.10, 39

	.type	.L.str.12,@object       // @.str.12
.L.str.12:
	.asciz	"\0013[BLK-IO]%s: io_count has been zero\n"
	.size	.L.str.12, 38

	.type	.L__func__.blk_idle_count,@object // @__func__.blk_idle_count
.L__func__.blk_idle_count:
	.asciz	"blk_idle_count"
	.size	.L__func__.blk_idle_count, 15

	.type	.L.str.13,@object       // @.str.13
.L.str.13:
	.asciz	"\0013[BLK-IO]%s: %s has been registered already!\n"
	.size	.L.str.13, 47

	.type	.L__func__.hisi_blk_busyidle_event_register,@object // @__func__.hisi_blk_busyidle_event_register
.L__func__.hisi_blk_busyidle_event_register:
	.asciz	"hisi_blk_busyidle_event_register"
	.size	.L__func__.hisi_blk_busyidle_event_register, 33

	.type	.L.str.14,@object       // @.str.14
.L.str.14:
	.asciz	"\0013[BLK-IO]%s registered to busy idle\n"
	.size	.L.str.14, 38

	.type	.L.str.15,@object       // @.str.15
.L.str.15:
	.asciz	"\0010[BLK-IO]%s: notifier_callback is NULL\n"
	.size	.L.str.15, 41

	.type	.L__func__.is_valid_event_node,@object // @__func__.is_valid_event_node
.L__func__.is_valid_event_node:
	.asciz	"is_valid_event_node"
	.size	.L__func__.is_valid_event_node, 20

	.type	.L.str.16,@object       // @.str.16
.L.str.16:
	.asciz	"\0010[BLK-IO]%s: Invalid subscriber\n"
	.size	.L.str.16, 34

	.type	.L.str.17,@object       // @.str.17
.L.str.17:
	.asciz	"\0013[BLK-IO]Trying to unregister an unregistered event_node!\n"
	.size	.L.str.17, 60

	.type	.L.str.18,@object       // @.str.18
.L.str.18:
	.asciz	"\0013[BLK-IO]%s unregistered from busy idle module 0x%pK\n"
	.size	.L.str.18, 55
