	.text
	.file	"hisi-blk-dump.c"
	.file	1 "/mnt/disk/jenkins/ci/workspace/chipset_pipeline_release/opensource/component_code/vendor/huawei/extra/build/build_script/kirin_kernel_release/kernel/include/asm-generic/int-ll64.h"
	.file	2 "/mnt/disk/jenkins/ci/workspace/chipset_pipeline_release/opensource/component_code/vendor/huawei/extra/build/build_script/kirin_kernel_release/kernel/arch/arm64/include/asm/spinlock_types.h"
	.file	3 "/mnt/disk/jenkins/ci/workspace/chipset_pipeline_release/opensource/component_code/vendor/huawei/extra/build/build_script/kirin_kernel_release/kernel/include/linux/spinlock_types.h"
	.file	4 "/mnt/disk/jenkins/ci/workspace/chipset_pipeline_release/opensource/component_code/vendor/huawei/extra/build/build_script/kirin_kernel_release/kernel/block/hisi-blk-dump.c"
	.file	5 "/mnt/disk/jenkins/ci/workspace/chipset_pipeline_release/opensource/component_code/vendor/huawei/extra/build/build_script/kirin_kernel_release/kernel/include/linux/types.h"
	.file	6 "/mnt/disk/jenkins/ci/workspace/chipset_pipeline_release/opensource/component_code/vendor/huawei/extra/build/build_script/kirin_kernel_release/kernel/include/linux/notifier.h"
	.file	7 "/mnt/disk/jenkins/ci/workspace/chipset_pipeline_release/opensource/component_code/vendor/huawei/extra/build/build_script/kirin_kernel_release/kernel/include/linux/elevator.h"
	.file	8 "/mnt/disk/jenkins/ci/workspace/chipset_pipeline_release/opensource/component_code/vendor/huawei/extra/build/build_script/kirin_kernel_release/kernel/include/linux/kobject_ns.h"
	.file	9 "/mnt/disk/jenkins/ci/workspace/chipset_pipeline_release/opensource/component_code/vendor/huawei/extra/build/build_script/kirin_kernel_release/kernel/include/linux/hrtimer.h"
	.file	10 "/mnt/disk/jenkins/ci/workspace/chipset_pipeline_release/opensource/component_code/vendor/huawei/extra/build/build_script/kirin_kernel_release/kernel/include/linux/module.h"
	.file	11 "/mnt/disk/jenkins/ci/workspace/chipset_pipeline_release/opensource/component_code/vendor/huawei/extra/build/build_script/kirin_kernel_release/kernel/include/linux/quota.h"
	.file	12 "/mnt/disk/jenkins/ci/workspace/chipset_pipeline_release/opensource/component_code/vendor/huawei/extra/build/build_script/kirin_kernel_release/kernel/include/linux/rcu_sync.h"
	.file	13 "/mnt/disk/jenkins/ci/workspace/chipset_pipeline_release/opensource/component_code/vendor/huawei/extra/build/build_script/kirin_kernel_release/kernel/include/linux/fs.h"
	.file	14 "/mnt/disk/jenkins/ci/workspace/chipset_pipeline_release/opensource/component_code/vendor/huawei/extra/build/build_script/kirin_kernel_release/kernel/include/linux/pid.h"
	.file	15 "/mnt/disk/jenkins/ci/workspace/chipset_pipeline_release/opensource/component_code/vendor/huawei/extra/build/build_script/kirin_kernel_release/kernel/include/linux/migrate_mode.h"
	.file	16 "/mnt/disk/jenkins/ci/workspace/chipset_pipeline_release/opensource/component_code/vendor/huawei/extra/build/build_script/kirin_kernel_release/kernel/include/linux/memremap.h"
	.file	17 "/mnt/disk/jenkins/ci/workspace/chipset_pipeline_release/opensource/component_code/vendor/huawei/extra/build/build_script/kirin_kernel_release/kernel/include/linux/mm.h"
	.file	18 "/mnt/disk/jenkins/ci/workspace/chipset_pipeline_release/opensource/component_code/vendor/huawei/extra/build/build_script/kirin_kernel_release/kernel/include/linux/restart_block.h"
	.file	19 "/mnt/disk/jenkins/ci/workspace/chipset_pipeline_release/opensource/component_code/vendor/huawei/extra/build/build_script/kirin_kernel_release/kernel/include/linux/device.h"
	.file	20 "/mnt/disk/jenkins/ci/workspace/chipset_pipeline_release/opensource/component_code/vendor/huawei/extra/build/build_script/kirin_kernel_release/kernel/include/linux/pm.h"
	.file	21 "/mnt/disk/jenkins/ci/workspace/chipset_pipeline_release/opensource/component_code/vendor/huawei/extra/build/build_script/kirin_kernel_release/kernel/include/linux/blkdev.h"
	.file	22 "/mnt/disk/jenkins/ci/workspace/chipset_pipeline_release/opensource/component_code/vendor/huawei/extra/build/build_script/kirin_kernel_release/kernel/block/hisi-blk.h"
	.file	23 "/mnt/disk/jenkins/ci/workspace/chipset_pipeline_release/opensource/component_code/vendor/huawei/extra/build/build_script/kirin_kernel_release/kernel/include/linux/blk_types.h"
	.file	24 "/mnt/disk/jenkins/ci/workspace/chipset_pipeline_release/opensource/component_code/vendor/huawei/extra/build/build_script/kirin_kernel_release/kernel/include/linux/stddef.h"
	.file	25 "/mnt/disk/jenkins/ci/workspace/chipset_pipeline_release/opensource/component_code/vendor/huawei/extra/build/build_script/kirin_kernel_release/kernel/include/uapi/asm-generic/posix_types.h"
	.file	26 "/mnt/disk/jenkins/ci/workspace/chipset_pipeline_release/opensource/component_code/vendor/huawei/extra/build/build_script/kirin_kernel_release/kernel/include/linux/llist.h"
	.file	27 "/mnt/disk/jenkins/ci/workspace/chipset_pipeline_release/opensource/component_code/vendor/huawei/extra/build/build_script/kirin_kernel_release/kernel/include/linux/smp.h"
	.file	28 "/mnt/disk/jenkins/ci/workspace/chipset_pipeline_release/opensource/component_code/vendor/huawei/extra/build/build_script/kirin_kernel_release/kernel/block/blk-mq.h"
	.file	29 "/mnt/disk/jenkins/ci/workspace/chipset_pipeline_release/opensource/component_code/vendor/huawei/extra/build/build_script/kirin_kernel_release/kernel/include/linux/kobject.h"
	.file	30 "/mnt/disk/jenkins/ci/workspace/chipset_pipeline_release/opensource/component_code/vendor/huawei/extra/build/build_script/kirin_kernel_release/kernel/include/linux/sysfs.h"
	.file	31 "/mnt/disk/jenkins/ci/workspace/chipset_pipeline_release/opensource/component_code/vendor/huawei/extra/build/build_script/kirin_kernel_release/kernel/include/linux/kernfs.h"
	.file	32 "/mnt/disk/jenkins/ci/workspace/chipset_pipeline_release/opensource/component_code/vendor/huawei/extra/build/build_script/kirin_kernel_release/kernel/include/linux/rbtree.h"
	.file	33 "/mnt/disk/jenkins/ci/workspace/chipset_pipeline_release/opensource/component_code/vendor/huawei/extra/build/build_script/kirin_kernel_release/kernel/include/linux/radix-tree.h"
	.file	34 "/mnt/disk/jenkins/ci/workspace/chipset_pipeline_release/opensource/component_code/vendor/huawei/extra/build/build_script/kirin_kernel_release/kernel/include/linux/idr.h"
	.file	35 "/mnt/disk/jenkins/ci/workspace/chipset_pipeline_release/opensource/component_code/vendor/huawei/extra/build/build_script/kirin_kernel_release/kernel/include/linux/seq_file.h"
	.file	36 "/mnt/disk/jenkins/ci/workspace/chipset_pipeline_release/opensource/component_code/vendor/huawei/extra/build/build_script/kirin_kernel_release/kernel/include/asm-generic/atomic-long.h"
	.file	37 "/mnt/disk/jenkins/ci/workspace/chipset_pipeline_release/opensource/component_code/vendor/huawei/extra/build/build_script/kirin_kernel_release/kernel/include/linux/mutex.h"
	.file	38 "/mnt/disk/jenkins/ci/workspace/chipset_pipeline_release/opensource/component_code/vendor/huawei/extra/build/build_script/kirin_kernel_release/kernel/include/linux/osq_lock.h"
	.file	39 "/mnt/disk/jenkins/ci/workspace/chipset_pipeline_release/opensource/component_code/vendor/huawei/extra/build/build_script/kirin_kernel_release/kernel/arch/arm64/include/asm/thread_info.h"
	.file	40 "/mnt/disk/jenkins/ci/workspace/chipset_pipeline_release/opensource/component_code/vendor/huawei/extra/build/build_script/kirin_kernel_release/kernel/include/linux/sched.h"
	.file	41 "/mnt/disk/jenkins/ci/workspace/chipset_pipeline_release/opensource/component_code/vendor/huawei/extra/build/build_script/kirin_kernel_release/kernel/include/linux/cpumask.h"
	.file	42 "/mnt/disk/jenkins/ci/workspace/chipset_pipeline_release/opensource/component_code/vendor/huawei/extra/build/build_script/kirin_kernel_release/kernel/include/linux/timerqueue.h"
	.file	43 "/mnt/disk/jenkins/ci/workspace/chipset_pipeline_release/opensource/component_code/vendor/huawei/extra/build/build_script/kirin_kernel_release/kernel/include/linux/ktime.h"
	.file	44 "/mnt/disk/jenkins/ci/workspace/chipset_pipeline_release/opensource/component_code/vendor/huawei/extra/build/build_script/kirin_kernel_release/kernel/include/linux/seqlock.h"
	.file	45 "/mnt/disk/jenkins/ci/workspace/chipset_pipeline_release/opensource/component_code/vendor/huawei/extra/build/build_script/kirin_kernel_release/kernel/include/linux/plist.h"
	.file	46 "/mnt/disk/jenkins/ci/workspace/chipset_pipeline_release/opensource/component_code/vendor/huawei/extra/build/build_script/kirin_kernel_release/kernel/include/linux/mm_types.h"
	.file	47 "/mnt/disk/jenkins/ci/workspace/chipset_pipeline_release/opensource/component_code/vendor/huawei/extra/build/build_script/kirin_kernel_release/kernel/arch/arm64/include/asm/pgtable-types.h"
	.file	48 "/mnt/disk/jenkins/ci/workspace/chipset_pipeline_release/opensource/component_code/vendor/huawei/extra/build/build_script/kirin_kernel_release/kernel/include/asm-generic/pgtable-nop4d-hack.h"
	.file	49 "/mnt/disk/jenkins/ci/workspace/chipset_pipeline_release/opensource/component_code/vendor/huawei/extra/build/build_script/kirin_kernel_release/kernel/include/linux/uidgid.h"
	.file	50 "/mnt/disk/jenkins/ci/workspace/chipset_pipeline_release/opensource/component_code/vendor/huawei/extra/build/build_script/kirin_kernel_release/kernel/include/linux/dcache.h"
	.file	51 "/mnt/disk/jenkins/ci/workspace/chipset_pipeline_release/opensource/component_code/vendor/huawei/extra/build/build_script/kirin_kernel_release/kernel/include/linux/list_bl.h"
	.file	52 "/mnt/disk/jenkins/ci/workspace/chipset_pipeline_release/opensource/component_code/vendor/huawei/extra/build/build_script/kirin_kernel_release/kernel/include/linux/lockref.h"
	.file	53 "/mnt/disk/jenkins/ci/workspace/chipset_pipeline_release/opensource/component_code/vendor/huawei/extra/build/build_script/kirin_kernel_release/kernel/include/linux/path.h"
	.file	54 "/mnt/disk/jenkins/ci/workspace/chipset_pipeline_release/opensource/component_code/vendor/huawei/extra/build/build_script/kirin_kernel_release/kernel/include/uapi/asm-generic/int-ll64.h"
	.file	55 "/mnt/disk/jenkins/ci/workspace/chipset_pipeline_release/opensource/component_code/vendor/huawei/extra/build/build_script/kirin_kernel_release/kernel/include/linux/completion.h"
	.file	56 "/mnt/disk/jenkins/ci/workspace/chipset_pipeline_release/opensource/component_code/vendor/huawei/extra/build/build_script/kirin_kernel_release/kernel/include/linux/wait.h"
	.file	57 "/mnt/disk/jenkins/ci/workspace/chipset_pipeline_release/opensource/component_code/vendor/huawei/extra/build/build_script/kirin_kernel_release/kernel/include/linux/export.h"
	.file	58 "/mnt/disk/jenkins/ci/workspace/chipset_pipeline_release/opensource/component_code/vendor/huawei/extra/build/build_script/kirin_kernel_release/kernel/include/linux/moduleparam.h"
	.file	59 "/mnt/disk/jenkins/ci/workspace/chipset_pipeline_release/opensource/component_code/vendor/huawei/extra/build/build_script/kirin_kernel_release/kernel/arch/arm64/include/asm/extable.h"
	.file	60 "/mnt/disk/jenkins/ci/workspace/chipset_pipeline_release/opensource/component_code/vendor/huawei/extra/build/build_script/kirin_kernel_release/kernel/include/linux/rbtree_latch.h"
	.file	61 "/mnt/disk/jenkins/ci/workspace/chipset_pipeline_release/opensource/component_code/vendor/huawei/extra/build/build_script/kirin_kernel_release/kernel/include/uapi/linux/elf.h"
	.file	62 "/mnt/disk/jenkins/ci/workspace/chipset_pipeline_release/opensource/component_code/vendor/huawei/extra/build/build_script/kirin_kernel_release/kernel/arch/arm64/include/asm/module.h"
	.file	63 "/mnt/disk/jenkins/ci/workspace/chipset_pipeline_release/opensource/component_code/vendor/huawei/extra/build/build_script/kirin_kernel_release/kernel/include/uapi/linux/types.h"
	.file	64 "/mnt/disk/jenkins/ci/workspace/chipset_pipeline_release/opensource/component_code/vendor/huawei/extra/build/build_script/kirin_kernel_release/kernel/include/asm-generic/bug.h"
	.file	65 "/mnt/disk/jenkins/ci/workspace/chipset_pipeline_release/opensource/component_code/vendor/huawei/extra/build/build_script/kirin_kernel_release/kernel/include/linux/tracepoint-defs.h"
	.file	66 "/mnt/disk/jenkins/ci/workspace/chipset_pipeline_release/opensource/component_code/vendor/huawei/extra/build/build_script/kirin_kernel_release/kernel/include/linux/jump_label.h"
	.file	67 "/mnt/disk/jenkins/ci/workspace/chipset_pipeline_release/opensource/component_code/vendor/huawei/extra/build/build_script/kirin_kernel_release/kernel/include/linux/lockdep.h"
	.file	68 "/mnt/disk/jenkins/ci/workspace/chipset_pipeline_release/opensource/component_code/vendor/huawei/extra/build/build_script/kirin_kernel_release/kernel/include/linux/projid.h"
	.file	69 "/mnt/disk/jenkins/ci/workspace/chipset_pipeline_release/opensource/component_code/vendor/huawei/extra/build/build_script/kirin_kernel_release/kernel/include/linux/time64.h"
	.file	70 "/mnt/disk/jenkins/ci/workspace/chipset_pipeline_release/opensource/component_code/vendor/huawei/extra/build/build_script/kirin_kernel_release/kernel/include/linux/shrinker.h"
	.file	71 "/mnt/disk/jenkins/ci/workspace/chipset_pipeline_release/opensource/component_code/vendor/huawei/extra/build/build_script/kirin_kernel_release/kernel/include/linux/rwsem.h"
	.file	72 "/mnt/disk/jenkins/ci/workspace/chipset_pipeline_release/opensource/component_code/vendor/huawei/extra/build/build_script/kirin_kernel_release/kernel/include/linux/genhd.h"
	.file	73 "/mnt/disk/jenkins/ci/workspace/chipset_pipeline_release/opensource/component_code/vendor/huawei/extra/build/build_script/kirin_kernel_release/kernel/include/linux/nfs_fs_i.h"
	.file	74 "/mnt/disk/jenkins/ci/workspace/chipset_pipeline_release/opensource/component_code/vendor/huawei/extra/build/build_script/kirin_kernel_release/kernel/include/linux/rwlock_types.h"
	.file	75 "/mnt/disk/jenkins/ci/workspace/chipset_pipeline_release/opensource/component_code/vendor/huawei/extra/build/build_script/kirin_kernel_release/kernel/include/linux/cred.h"
	.file	76 "/mnt/disk/jenkins/ci/workspace/chipset_pipeline_release/opensource/component_code/vendor/huawei/extra/build/build_script/kirin_kernel_release/kernel/include/linux/capability.h"
	.file	77 "/mnt/disk/jenkins/ci/workspace/chipset_pipeline_release/opensource/component_code/vendor/huawei/extra/build/build_script/kirin_kernel_release/kernel/include/linux/refcount.h"
	.file	78 "/mnt/disk/jenkins/ci/workspace/chipset_pipeline_release/opensource/component_code/vendor/huawei/extra/build/build_script/kirin_kernel_release/kernel/include/linux/key.h"
	.file	79 "/mnt/disk/jenkins/ci/workspace/chipset_pipeline_release/opensource/component_code/vendor/huawei/extra/build/build_script/kirin_kernel_release/kernel/include/linux/assoc_array.h"
	.file	80 "/mnt/disk/jenkins/ci/workspace/chipset_pipeline_release/opensource/component_code/vendor/huawei/extra/build/build_script/kirin_kernel_release/kernel/include/linux/sched/user.h"
	.file	81 "/mnt/disk/jenkins/ci/workspace/chipset_pipeline_release/opensource/component_code/vendor/huawei/extra/build/build_script/kirin_kernel_release/kernel/include/linux/errseq.h"
	.file	82 "/mnt/disk/jenkins/ci/workspace/chipset_pipeline_release/opensource/component_code/vendor/huawei/extra/build/build_script/kirin_kernel_release/kernel/include/linux/pm_wakeup.h"
	.file	83 "/mnt/disk/jenkins/ci/workspace/chipset_pipeline_release/opensource/component_code/vendor/huawei/extra/build/build_script/kirin_kernel_release/kernel/include/linux/timer.h"
	.file	84 "/mnt/disk/jenkins/ci/workspace/chipset_pipeline_release/opensource/component_code/vendor/huawei/extra/build/build_script/kirin_kernel_release/kernel/include/linux/workqueue.h"
	.file	85 "/mnt/disk/jenkins/ci/workspace/chipset_pipeline_release/opensource/component_code/vendor/huawei/extra/build/build_script/kirin_kernel_release/kernel/include/linux/pinctrl/devinfo.h"
	.file	86 "/mnt/disk/jenkins/ci/workspace/chipset_pipeline_release/opensource/component_code/vendor/huawei/extra/build/build_script/kirin_kernel_release/kernel/arch/arm64/include/asm/device.h"
	.file	87 "/mnt/disk/jenkins/ci/workspace/chipset_pipeline_release/opensource/component_code/vendor/huawei/extra/build/build_script/kirin_kernel_release/kernel/include/linux/klist.h"
	.file	88 "/mnt/disk/jenkins/ci/workspace/chipset_pipeline_release/opensource/component_code/vendor/huawei/extra/build/build_script/kirin_kernel_release/kernel/include/linux/kref.h"
	.file	89 "/mnt/disk/jenkins/ci/workspace/chipset_pipeline_release/opensource/component_code/vendor/huawei/extra/build/build_script/kirin_kernel_release/kernel/include/linux/percpu-refcount.h"
	.file	90 "/mnt/disk/jenkins/ci/workspace/chipset_pipeline_release/opensource/component_code/vendor/huawei/extra/build/build_script/kirin_kernel_release/kernel/include/linux/backing-dev-defs.h"
	.file	91 "/mnt/disk/jenkins/ci/workspace/chipset_pipeline_release/opensource/component_code/vendor/huawei/extra/build/build_script/kirin_kernel_release/kernel/include/linux/percpu_counter.h"
	.file	92 "/mnt/disk/jenkins/ci/workspace/chipset_pipeline_release/opensource/component_code/vendor/huawei/extra/build/build_script/kirin_kernel_release/kernel/include/linux/flex_proportions.h"
	.file	93 "/mnt/disk/jenkins/ci/workspace/chipset_pipeline_release/opensource/component_code/vendor/huawei/extra/build/build_script/kirin_kernel_release/kernel/include/linux/percpu-rwsem.h"
	.file	94 "/mnt/disk/jenkins/ci/workspace/chipset_pipeline_release/opensource/component_code/vendor/huawei/extra/build/build_script/kirin_kernel_release/kernel/include/linux/rcuwait.h"
	.file	95 "/mnt/disk/jenkins/ci/workspace/chipset_pipeline_release/opensource/component_code/vendor/huawei/extra/build/build_script/kirin_kernel_release/kernel/include/linux/uuid.h"
	.file	96 "/mnt/disk/jenkins/ci/workspace/chipset_pipeline_release/opensource/component_code/vendor/huawei/extra/build/build_script/kirin_kernel_release/kernel/include/linux/list_lru.h"
	.file	97 "/mnt/disk/jenkins/ci/workspace/chipset_pipeline_release/opensource/component_code/vendor/huawei/extra/build/build_script/kirin_kernel_release/kernel/include/linux/delayed_call.h"
	.file	98 "/mnt/disk/jenkins/ci/workspace/chipset_pipeline_release/opensource/component_code/vendor/huawei/extra/build/build_script/kirin_kernel_release/kernel/include/uapi/linux/time.h"
	.file	99 "/mnt/disk/jenkins/ci/workspace/chipset_pipeline_release/opensource/component_code/vendor/huawei/extra/build/build_script/kirin_kernel_release/kernel/include/linux/stat.h"
	.file	100 "/mnt/disk/jenkins/ci/workspace/chipset_pipeline_release/opensource/component_code/vendor/huawei/extra/build/build_script/kirin_kernel_release/kernel/include/uapi/linux/fiemap.h"
	.file	101 "/mnt/disk/jenkins/ci/workspace/chipset_pipeline_release/opensource/component_code/vendor/huawei/extra/build/build_script/kirin_kernel_release/kernel/include/linux/mmzone.h"
	.file	102 "/mnt/disk/jenkins/ci/workspace/chipset_pipeline_release/opensource/component_code/vendor/huawei/extra/build/build_script/kirin_kernel_release/kernel/include/linux/ioport.h"
	.file	103 "/mnt/disk/jenkins/ci/workspace/chipset_pipeline_release/opensource/component_code/vendor/huawei/extra/build/build_script/kirin_kernel_release/kernel/arch/arm64/include/asm/page.h"
	.file	104 "/mnt/disk/jenkins/ci/workspace/chipset_pipeline_release/opensource/component_code/vendor/huawei/extra/build/build_script/kirin_kernel_release/kernel/include/linux/mm_types_task.h"
	.file	105 "/mnt/disk/jenkins/ci/workspace/chipset_pipeline_release/opensource/component_code/vendor/huawei/extra/build/build_script/kirin_kernel_release/kernel/arch/arm64/include/asm/mmu.h"
	.file	106 "/mnt/disk/jenkins/ci/workspace/chipset_pipeline_release/opensource/component_code/vendor/huawei/extra/build/build_script/kirin_kernel_release/kernel/include/linux/uprobes.h"
	.file	107 "/mnt/disk/jenkins/ci/workspace/chipset_pipeline_release/opensource/component_code/vendor/huawei/extra/build/build_script/kirin_kernel_release/kernel/arch/arm64/include/asm/compat.h"
	.file	108 "/mnt/disk/jenkins/ci/workspace/chipset_pipeline_release/opensource/component_code/vendor/huawei/extra/build/build_script/kirin_kernel_release/kernel/include/uapi/asm-generic/signal.h"
	.file	109 "/mnt/disk/jenkins/ci/workspace/chipset_pipeline_release/opensource/component_code/vendor/huawei/extra/build/build_script/kirin_kernel_release/kernel/include/linux/signal_types.h"
	.file	110 "/mnt/disk/jenkins/ci/workspace/chipset_pipeline_release/opensource/component_code/vendor/huawei/extra/build/build_script/kirin_kernel_release/kernel/include/linux/seccomp.h"
	.file	111 "/mnt/disk/jenkins/ci/workspace/chipset_pipeline_release/opensource/component_code/vendor/huawei/extra/build/build_script/kirin_kernel_release/kernel/include/linux/bvec.h"
	.file	112 "/mnt/disk/jenkins/ci/workspace/chipset_pipeline_release/opensource/component_code/vendor/huawei/extra/build/build_script/kirin_kernel_release/kernel/include/linux/iocontext.h"
	.file	113 "/mnt/disk/jenkins/ci/workspace/chipset_pipeline_release/opensource/component_code/vendor/huawei/extra/build/build_script/kirin_kernel_release/kernel/include/linux/bio.h"
	.file	114 "/mnt/disk/jenkins/ci/workspace/chipset_pipeline_release/opensource/component_code/vendor/huawei/extra/build/build_script/kirin_kernel_release/kernel/include/linux/mempool.h"
	.file	115 "/mnt/disk/jenkins/ci/workspace/chipset_pipeline_release/opensource/component_code/vendor/huawei/extra/build/build_script/kirin_kernel_release/kernel/include/uapi/asm-generic/siginfo.h"
	.file	116 "/mnt/disk/jenkins/ci/workspace/chipset_pipeline_release/opensource/component_code/vendor/huawei/extra/build/build_script/kirin_kernel_release/kernel/include/linux/task_io_accounting.h"
	.file	117 "/mnt/disk/jenkins/ci/workspace/chipset_pipeline_release/opensource/component_code/vendor/huawei/extra/build/build_script/kirin_kernel_release/kernel/include/linux/nodemask.h"
	.file	118 "/mnt/disk/jenkins/ci/workspace/chipset_pipeline_release/opensource/component_code/vendor/huawei/extra/build/build_script/kirin_kernel_release/kernel/arch/arm64/include/asm/processor.h"
	.file	119 "/mnt/disk/jenkins/ci/workspace/chipset_pipeline_release/opensource/component_code/vendor/huawei/extra/build/build_script/kirin_kernel_release/kernel/arch/arm64/include/uapi/asm/ptrace.h"
	.file	120 "/mnt/disk/jenkins/ci/workspace/chipset_pipeline_release/opensource/component_code/vendor/huawei/extra/build/build_script/kirin_kernel_release/kernel/arch/arm64/include/asm/fpsimd.h"
	.file	121 "/mnt/disk/jenkins/ci/workspace/chipset_pipeline_release/opensource/component_code/vendor/huawei/extra/build/build_script/kirin_kernel_release/kernel/include/linux/blk-mq.h"
	.file	122 "/mnt/disk/jenkins/ci/workspace/chipset_pipeline_release/opensource/component_code/vendor/huawei/extra/build/build_script/kirin_kernel_release/kernel/block/blk.h"
	.file	123 "/mnt/disk/jenkins/ci/workspace/chipset_pipeline_release/opensource/component_code/vendor/huawei/extra/build/build_script/kirin_kernel_release/kernel/include/linux/sbitmap.h"
	.file	124 "/mnt/disk/jenkins/ci/workspace/chipset_pipeline_release/opensource/component_code/vendor/huawei/extra/build/build_script/kirin_kernel_release/kernel/block/blk-mq-tag.h"
	.file	125 "/mnt/disk/jenkins/ci/workspace/chipset_pipeline_release/opensource/component_code/vendor/huawei/extra/build/build_script/kirin_kernel_release/kernel/include/linux/srcutree.h"
	.file	126 "/mnt/disk/jenkins/ci/workspace/chipset_pipeline_release/opensource/component_code/vendor/huawei/extra/build/build_script/kirin_kernel_release/kernel/include/linux/rcu_segcblist.h"
	.file	127 "/mnt/disk/jenkins/ci/workspace/chipset_pipeline_release/opensource/component_code/vendor/huawei/extra/build/build_script/kirin_kernel_release/kernel/block/blk-stat.h"
	.file	128 "/mnt/disk/jenkins/ci/workspace/chipset_pipeline_release/opensource/component_code/vendor/huawei/extra/build/build_script/kirin_kernel_release/kernel/include/linux/bsg.h"
	.globl	hisi_blk_dump_request   // -- Begin function hisi_blk_dump_request
	.p2align	2
	.type	hisi_blk_dump_request,@function
hisi_blk_dump_request:                  // @hisi_blk_dump_request
.Lfunc_begin0:
	.loc	4 127 0                 // kernel/block/hisi-blk-dump.c:127:0
	.cfi_sections .debug_frame
	.cfi_startproc
// %bb.0:
	stp	x28, x27, [sp, #-96]!   // 16-byte Folded Spill
	stp	x26, x25, [sp, #16]     // 16-byte Folded Spill
	stp	x24, x23, [sp, #32]     // 16-byte Folded Spill
	stp	x22, x21, [sp, #48]     // 16-byte Folded Spill
	stp	x20, x19, [sp, #64]     // 16-byte Folded Spill
	stp	x29, x30, [sp, #80]     // 16-byte Folded Spill
	add	x29, sp, #80            // =80
	sub	sp, sp, #560            // =560
	.cfi_def_cfa w29, 16
	.cfi_offset w30, -8
	.cfi_offset w29, -16
	.cfi_offset w19, -24
	.cfi_offset w20, -32
	.cfi_offset w21, -40
	.cfi_offset w22, -48
	.cfi_offset w23, -56
	.cfi_offset w24, -64
	.cfi_offset w25, -72
	.cfi_offset w26, -80
	.cfi_offset w27, -88
	.cfi_offset w28, -96
	adrp	x8, __stack_chk_guard
	ldr	x8, [x8, :lo12:__stack_chk_guard]
.Ltmp0:
	//DEBUG_VALUE: hisi_blk_dump_request:rq <- $x20
	//DEBUG_VALUE: hisi_blk_dump_request:s <- $w19
	.loc	4 126 44 prologue_end   // kernel/block/hisi-blk-dump.c:126:44
	add	x22, sp, #8             // =8
.Ltmp1:
	//DEBUG_VALUE: hisi_blk_dump_request:rq <- $x0
	//DEBUG_VALUE: hisi_blk_dump_request:s <- $w1
	.loc	4 0 44 is_stmt 0        // kernel/block/hisi-blk-dump.c:0:44
	mov	w19, w1
	mov	x20, x0
	str	x8, [x22]
.Ltmp2:
	//DEBUG_VALUE: hisi_blk_dump_request:count <- 0
	//DEBUG_VALUE: hisi_blk_dump_request:cmp_type <- 0
	.loc	4 134 3 is_stmt 1       // kernel/block/hisi-blk-dump.c:134:3
	ldr	w1, [x0, #84]
.Ltmp3:
	.loc	4 133 15                // kernel/block/hisi-blk-dump.c:133:15
	add	x2, sp, #20             // =20
	.loc	4 134 3                 // kernel/block/hisi-blk-dump.c:134:3
	and	x0, x1, #0xff
.Ltmp4:
	.loc	4 133 15                // kernel/block/hisi-blk-dump.c:133:15
	bl	hisi_blk_io_type
.Ltmp5:
	.loc	21 389 24               // kernel/include/linux/blkdev.h:389:24
	ldr	w10, [x20, #84]
.Ltmp6:
	.loc	21 454 9                // kernel/include/linux/blkdev.h:454:9
	adrp	x8, .L.str.20
	adrp	x9, .L.str.19
	add	x8, x8, :lo12:.L.str.20
	add	x9, x9, :lo12:.L.str.19
	cmp	w19, #1                 // =1
	csel	x19, x9, x8, eq
.Ltmp7:
	//DEBUG_VALUE: blk_rq_is_scsi:rq <- $x20
	//DEBUG_VALUE: hisi_blk_dump_request:prefix <- $x19
	.loc	21 389 24               // kernel/include/linux/blkdev.h:389:24
	and	w8, w10, #0xfe
.Ltmp8:
	//DEBUG_VALUE: blk_op_is_scsi:op <- $w8
	.loc	4 137 6                 // kernel/block/hisi-blk-dump.c:137:6
	adrp	x11, .L.str.2
	adrp	x12, .L.str.1
.Ltmp9:
	.loc	21 379 30               // kernel/include/linux/blkdev.h:379:30
	orr	w8, w8, #0x1
.Ltmp10:
	.loc	4 137 6                 // kernel/block/hisi-blk-dump.c:137:6
	add	x11, x11, :lo12:.L.str.2
	add	x12, x12, :lo12:.L.str.1
	.loc	4 147 17                // kernel/block/hisi-blk-dump.c:147:17
	ldr	w7, [x20, #276]
	.loc	4 137 6                 // kernel/block/hisi-blk-dump.c:137:6
	cmp	w8, #35                 // =35
	.loc	4 146 18                // kernel/block/hisi-blk-dump.c:146:18
	ldp	w5, w10, [x20, #104]
	.loc	4 137 6                 // kernel/block/hisi-blk-dump.c:137:6
	csel	x9, x12, x11, eq
	cmp	w8, #33                 // =33
	adrp	x8, .L.str
	add	x8, x8, :lo12:.L.str
	.loc	4 144 11                // kernel/block/hisi-blk-dump.c:144:11
	adrp	x2, .L.str.3
	.loc	4 133 15                // kernel/block/hisi-blk-dump.c:133:15
	mov	x4, x0
.Ltmp11:
	//DEBUG_VALUE: hisi_blk_prefix_str:s <- $w19
	//DEBUG_VALUE: hisi_blk_dump_request:type <- $x4
	.loc	4 137 6                 // kernel/block/hisi-blk-dump.c:137:6
	csel	x6, x8, x9, eq
.Ltmp12:
	//DEBUG_VALUE: hisi_blk_dump_request:cmp_type <- $x6
	.loc	4 144 11                // kernel/block/hisi-blk-dump.c:144:11
	add	x2, x2, :lo12:.L.str.3
	add	x0, sp, #32             // =32
	orr	w1, wzr, #0x200
	mov	x3, x20
	str	w10, [sp]
	orr	w24, wzr, #0x200
	add	x25, sp, #32            // =32
	bl	snprintf
.Ltmp13:
	.loc	4 151 4                 // kernel/block/hisi-blk-dump.c:151:4
	ldr	x8, [x20, #264]
	.loc	4 149 24                // kernel/block/hisi-blk-dump.c:149:24
	mov	w9, w0
	.loc	4 149 11 is_stmt 0      // kernel/block/hisi-blk-dump.c:149:11
	adrp	x2, .L.str.4
	.loc	4 144 11 is_stmt 1      // kernel/block/hisi-blk-dump.c:144:11
	mov	w21, w0
.Ltmp14:
	//DEBUG_VALUE: hisi_blk_dump_request:count <- $w21
	.loc	4 149 24                // kernel/block/hisi-blk-dump.c:149:24
	add	x0, x25, x9
	.loc	4 149 55 is_stmt 0      // kernel/block/hisi-blk-dump.c:149:55
	sub	x1, x24, x9
	.loc	4 151 4 is_stmt 1       // kernel/block/hisi-blk-dump.c:151:4
	and	x3, x8, #0x1
	.loc	4 151 17 is_stmt 0      // kernel/block/hisi-blk-dump.c:151:17
	and	x4, x8, #0x2
	.loc	4 149 11 is_stmt 1      // kernel/block/hisi-blk-dump.c:149:11
	add	x2, x2, :lo12:.L.str.4
	bl	snprintf
.Ltmp15:
	.loc	4 153 19                // kernel/block/hisi-blk-dump.c:153:19
	ldr	x8, [x20, #232]
.Ltmp16:
	.loc	4 149 8                 // kernel/block/hisi-blk-dump.c:149:8
	add	w23, w0, w21
.Ltmp17:
	//DEBUG_VALUE: hisi_blk_dump_request:count <- $w23
	.loc	4 0 0 is_stmt 0         // kernel/block/hisi-blk-dump.c:0:0
	add	x0, x25, x23
	sub	x1, x24, x23
.Ltmp18:
	.loc	4 153 6 is_stmt 1       // kernel/block/hisi-blk-dump.c:153:6
	cbz	x8, .LBB0_2
.Ltmp19:
// %bb.1:
	//DEBUG_VALUE: hisi_blk_dump_request:count <- $w23
	//DEBUG_VALUE: hisi_blk_dump_request:prefix <- $x19
	.loc	4 162 22                // kernel/block/hisi-blk-dump.c:162:22
	ldr	w3, [x20, #240]
	.loc	4 160 12                // kernel/block/hisi-blk-dump.c:160:12
	adrp	x2, .L.str.5
	.loc	4 162 32                // kernel/block/hisi-blk-dump.c:162:32
	add	x4, x20, #248           // =248
	.loc	4 160 12                // kernel/block/hisi-blk-dump.c:160:12
	add	x2, x2, :lo12:.L.str.5
	bl	snprintf
	b	.LBB0_3
.Ltmp20:
.LBB0_2:
	//DEBUG_VALUE: hisi_blk_dump_request:count <- $w23
	//DEBUG_VALUE: hisi_blk_dump_request:prefix <- $x19
	.loc	4 165 12                // kernel/block/hisi-blk-dump.c:165:12
	adrp	x2, .L.str.6
	add	x2, x2, :lo12:.L.str.6
	bl	snprintf
.Ltmp21:
.LBB0_3:
	//DEBUG_VALUE: hisi_blk_dump_request:count <- $w23
	//DEBUG_VALUE: hisi_blk_dump_request:prefix <- $x19
	.loc	4 169 2                 // kernel/block/hisi-blk-dump.c:169:2
	add	x24, x20, #296          // =296
	adrp	x25, req_stage_cfg
	adrp	x20, .L.str.7
	mov	x21, xzr
.Ltmp22:
	.loc	4 0 0 is_stmt 0         // kernel/block/hisi-blk-dump.c:0:0
	add	w23, w0, w23
.Ltmp23:
	//DEBUG_VALUE: hisi_blk_dump_request:i <- 0
	//DEBUG_VALUE: hisi_blk_dump_request:count <- $w23
	add	x25, x25, :lo12:req_stage_cfg
	add	x26, sp, #32            // =32
	orr	w27, wzr, #0x200
	add	x20, x20, :lo12:.L.str.7
.Ltmp24:
.LBB0_4:                                // =>This Inner Loop Header: Depth=1
	//DEBUG_VALUE: hisi_blk_dump_request:count <- $w23
	//DEBUG_VALUE: hisi_blk_dump_request:prefix <- $x19
	//DEBUG_VALUE: hisi_blk_dump_request:count <- $w23
	//DEBUG_VALUE: hisi_blk_dump_request:i <- undef
	.loc	4 170 8 is_stmt 1       // kernel/block/hisi-blk-dump.c:170:8
	ldr	x4, [x24, x21]
.Ltmp25:
	.loc	4 170 7 is_stmt 0       // kernel/block/hisi-blk-dump.c:170:7
	cbz	x4, .LBB0_6
.Ltmp26:
// %bb.5:                               //   in Loop: Header=BB0_4 Depth=1
	//DEBUG_VALUE: hisi_blk_dump_request:count <- $w23
	//DEBUG_VALUE: hisi_blk_dump_request:prefix <- $x19
	.loc	4 174 34 is_stmt 1      // kernel/block/hisi-blk-dump.c:174:34
	ldr	x3, [x25]
	.loc	4 172 25                // kernel/block/hisi-blk-dump.c:172:25
	mov	w8, w23
	add	x0, x26, x8
	.loc	4 173 35                // kernel/block/hisi-blk-dump.c:173:35
	sub	x1, x27, x8
	.loc	4 172 12                // kernel/block/hisi-blk-dump.c:172:12
	mov	x2, x20
	bl	snprintf
	.loc	4 172 9 is_stmt 0       // kernel/block/hisi-blk-dump.c:172:9
	add	w23, w0, w23
.Ltmp27:
	//DEBUG_VALUE: hisi_blk_dump_request:count <- $w23
.LBB0_6:                                //   in Loop: Header=BB0_4 Depth=1
	//DEBUG_VALUE: hisi_blk_dump_request:count <- $w23
	//DEBUG_VALUE: hisi_blk_dump_request:prefix <- $x19
	//DEBUG_VALUE: hisi_blk_dump_request:count <- $w23
	//DEBUG_VALUE: hisi_blk_dump_request:i <- [DW_OP_plus_uconst 1, DW_OP_stack_value] undef
	.loc	4 169 16 is_stmt 1      // kernel/block/hisi-blk-dump.c:169:16
	add	x21, x21, #8            // =8
.Ltmp28:
	.loc	4 169 2 is_stmt 0       // kernel/block/hisi-blk-dump.c:169:2
	cmp	x21, #120               // =120
.Ltmp29:
	.loc	4 169 16                // kernel/block/hisi-blk-dump.c:169:16
	add	x25, x25, #16           // =16
.Ltmp30:
	.loc	4 169 2                 // kernel/block/hisi-blk-dump.c:169:2
	b.ne	.LBB0_4
.Ltmp31:
// %bb.7:
	//DEBUG_VALUE: hisi_blk_dump_request:count <- $w23
	//DEBUG_VALUE: hisi_blk_dump_request:prefix <- $x19
	.loc	4 179 2 is_stmt 1       // kernel/block/hisi-blk-dump.c:179:2
	adrp	x0, .L.str.8
	add	x0, x0, :lo12:.L.str.8
	add	x2, sp, #32             // =32
	mov	x1, x19
	.loc	4 178 33                // kernel/block/hisi-blk-dump.c:178:33
	strb	wzr, [sp, #543]
	.loc	4 179 2                 // kernel/block/hisi-blk-dump.c:179:2
	bl	printk
	adrp	x9, __stack_chk_guard
	ldr	x8, [x22]
	ldr	x9, [x9, :lo12:__stack_chk_guard]
	cmp	x9, x8
	b.ne	.LBB0_9
.Ltmp32:
// %bb.8:
	//DEBUG_VALUE: hisi_blk_dump_request:count <- $w23
	//DEBUG_VALUE: hisi_blk_dump_request:prefix <- $x19
	.loc	4 180 1                 // kernel/block/hisi-blk-dump.c:180:1
	add	sp, sp, #560            // =560
	ldp	x29, x30, [sp, #80]     // 16-byte Folded Reload
	ldp	x20, x19, [sp, #64]     // 16-byte Folded Reload
.Ltmp33:
	ldp	x22, x21, [sp, #48]     // 16-byte Folded Reload
	ldp	x24, x23, [sp, #32]     // 16-byte Folded Reload
.Ltmp34:
	ldp	x26, x25, [sp, #16]     // 16-byte Folded Reload
	ldp	x28, x27, [sp], #96     // 16-byte Folded Reload
	ret
.Ltmp35:
.LBB0_9:
	//DEBUG_VALUE: hisi_blk_dump_request:count <- $w23
	//DEBUG_VALUE: hisi_blk_dump_request:prefix <- $x19
	.loc	4 0 1 is_stmt 0         // kernel/block/hisi-blk-dump.c:0:1
	bl	__stack_chk_fail
.Lfunc_end0:
	.size	hisi_blk_dump_request, .Lfunc_end0-hisi_blk_dump_request
	.cfi_endproc
                                        // -- End function
	.p2align	2               // -- Begin function hisi_blk_io_type
	.type	hisi_blk_io_type,@function
hisi_blk_io_type:                       // @hisi_blk_io_type
.Lfunc_begin1:
	.loc	4 111 0 is_stmt 1       // kernel/block/hisi-blk-dump.c:111:0
	.cfi_startproc
// %bb.0:
	//DEBUG_VALUE: hisi_blk_io_type:op <- $x0
	//DEBUG_VALUE: hisi_blk_io_type:flag <- $x1
	//DEBUG_VALUE: hisi_blk_io_type:type_buf <- $x2
	//DEBUG_VALUE: hisi_blk_io_type_op:op <- $x0
	//DEBUG_VALUE: hisi_blk_io_type_op:type_buf <- $x2
	stp	x20, x19, [sp, #-32]!   // 16-byte Folded Spill
	stp	x29, x30, [sp, #16]     // 16-byte Folded Spill
	add	x29, sp, #16            // =16
	.cfi_def_cfa w29, 16
	.cfi_offset w30, -8
	.cfi_offset w29, -16
	.cfi_offset w19, -24
	.cfi_offset w20, -32
	mov	x19, x2
.Ltmp36:
	//DEBUG_VALUE: hisi_blk_io_type_op:len <- 10
	//DEBUG_VALUE: hisi_blk_io_type:offset <- 0
	//DEBUG_VALUE: hisi_blk_io_type:len <- 10
	//DEBUG_VALUE: hisi_blk_io_type_op:type_buf <- $x19
	//DEBUG_VALUE: hisi_blk_io_type_op:op <- $x0
	//DEBUG_VALUE: hisi_blk_io_type:type_buf <- $x19
	//DEBUG_VALUE: hisi_blk_io_type:op <- $x0
	.loc	4 39 2 prologue_end     // kernel/block/hisi-blk-dump.c:39:2
	cmp	x0, #7                  // =7
	mov	x20, x1
.Ltmp37:
	//DEBUG_VALUE: hisi_blk_io_type:flag <- $x20
	b.hi	.LBB1_6
.Ltmp38:
// %bb.1:
	//DEBUG_VALUE: hisi_blk_io_type:flag <- $x20
	//DEBUG_VALUE: hisi_blk_io_type:type_buf <- $x19
	//DEBUG_VALUE: hisi_blk_io_type_op:type_buf <- $x19
	//DEBUG_VALUE: hisi_blk_io_type_op:op <- $x0
	//DEBUG_VALUE: hisi_blk_io_type:op <- $x0
	.loc	4 0 2 is_stmt 0         // kernel/block/hisi-blk-dump.c:0:2
	adrp	x8, .LJTI1_0
	add	x8, x8, :lo12:.LJTI1_0
	adr	x9, .LBB1_2
	ldrb	w10, [x8, x0]
	add	x9, x9, x10, lsl #2
	br	x9
.Ltmp39:
.LBB1_2:
	//DEBUG_VALUE: hisi_blk_io_type:flag <- $x20
	//DEBUG_VALUE: hisi_blk_io_type:type_buf <- $x19
	//DEBUG_VALUE: hisi_blk_io_type_op:type_buf <- $x19
	//DEBUG_VALUE: hisi_blk_io_type_op:op <- $x0
	//DEBUG_VALUE: hisi_blk_io_type:op <- $x0
	mov	w8, #82
	b	.LBB1_10
.Ltmp40:
.LBB1_3:
	//DEBUG_VALUE: hisi_blk_io_type:flag <- $x20
	//DEBUG_VALUE: hisi_blk_io_type:type_buf <- $x19
	//DEBUG_VALUE: hisi_blk_io_type_op:type_buf <- $x19
	//DEBUG_VALUE: hisi_blk_io_type_op:op <- $x0
	//DEBUG_VALUE: hisi_blk_io_type:op <- $x0
	mov	w8, #87
	b	.LBB1_10
.Ltmp41:
.LBB1_4:
	//DEBUG_VALUE: hisi_blk_io_type:flag <- $x20
	//DEBUG_VALUE: hisi_blk_io_type:type_buf <- $x19
	//DEBUG_VALUE: hisi_blk_io_type_op:type_buf <- $x19
	//DEBUG_VALUE: hisi_blk_io_type_op:op <- $x0
	//DEBUG_VALUE: hisi_blk_io_type:op <- $x0
	mov	w8, #70
	b	.LBB1_10
.Ltmp42:
.LBB1_5:
	//DEBUG_VALUE: hisi_blk_io_type:flag <- $x20
	//DEBUG_VALUE: hisi_blk_io_type:type_buf <- $x19
	//DEBUG_VALUE: hisi_blk_io_type_op:type_buf <- $x19
	//DEBUG_VALUE: hisi_blk_io_type_op:op <- $x0
	//DEBUG_VALUE: hisi_blk_io_type:op <- $x0
	mov	w8, #68
	b	.LBB1_10
.Ltmp43:
.LBB1_6:
	//DEBUG_VALUE: hisi_blk_io_type:flag <- $x20
	//DEBUG_VALUE: hisi_blk_io_type:type_buf <- $x19
	//DEBUG_VALUE: hisi_blk_io_type_op:type_buf <- $x19
	//DEBUG_VALUE: hisi_blk_io_type_op:op <- $x0
	//DEBUG_VALUE: hisi_blk_io_type:op <- $x0
	.loc	4 59 3 is_stmt 1        // kernel/block/hisi-blk-dump.c:59:3
	adrp	x0, .L.str.18
.Ltmp44:
	adrp	x1, .L__func__.hisi_blk_io_type_op
	add	x0, x0, :lo12:.L.str.18
	add	x1, x1, :lo12:.L__func__.hisi_blk_io_type_op
	bl	printk
.Ltmp45:
	.loc	4 0 0 is_stmt 0         // kernel/block/hisi-blk-dump.c:0:0
	mov	w8, wzr
.Ltmp46:
	//DEBUG_VALUE: hisi_blk_io_type:offset <- $w8
	.loc	4 115 49 is_stmt 1      // kernel/block/hisi-blk-dump.c:115:49
	add	x9, x19, x8
.Ltmp47:
	//DEBUG_VALUE: hisi_blk_io_type_flag:offset <- 0
	//DEBUG_VALUE: hisi_blk_io_type_flag:flag <- $x20
	//DEBUG_VALUE: hisi_blk_io_type_flag:type_buf <- $x9
	.loc	4 70 23                 // kernel/block/hisi-blk-dump.c:70:23
	tbz	w20, #18, .LBB1_11
.Ltmp48:
.LBB1_7:
	//DEBUG_VALUE: hisi_blk_io_type_flag:type_buf <- $x9
	//DEBUG_VALUE: hisi_blk_io_type_flag:flag <- $x20
	//DEBUG_VALUE: hisi_blk_io_type:offset <- $w8
	//DEBUG_VALUE: hisi_blk_io_type:flag <- $x20
	//DEBUG_VALUE: hisi_blk_io_type:type_buf <- $x19
	.loc	4 0 23 is_stmt 0        // kernel/block/hisi-blk-dump.c:0:23
	mov	w10, #65
.Ltmp49:
	.loc	4 71 20 is_stmt 1       // kernel/block/hisi-blk-dump.c:71:20
	strb	w10, [x9]
	orr	w10, wzr, #0x1
.Ltmp50:
	//DEBUG_VALUE: hisi_blk_io_type_flag:offset <- 1
	.loc	4 0 20 is_stmt 0        // kernel/block/hisi-blk-dump.c:0:20
	mov	w11, #10
.Ltmp51:
	//DEBUG_VALUE: hisi_blk_io_type_flag:offset <- $w10
	.loc	4 74 24 is_stmt 1       // kernel/block/hisi-blk-dump.c:74:24
	tbnz	w20, #11, .LBB1_12
	b	.LBB1_13
.Ltmp52:
.LBB1_8:
	//DEBUG_VALUE: hisi_blk_io_type:flag <- $x20
	//DEBUG_VALUE: hisi_blk_io_type:type_buf <- $x19
	//DEBUG_VALUE: hisi_blk_io_type_op:type_buf <- $x19
	//DEBUG_VALUE: hisi_blk_io_type_op:op <- $x0
	//DEBUG_VALUE: hisi_blk_io_type:op <- $x0
	.loc	4 0 24 is_stmt 0        // kernel/block/hisi-blk-dump.c:0:24
	mov	w8, #69
	b	.LBB1_10
.Ltmp53:
.LBB1_9:
	//DEBUG_VALUE: hisi_blk_io_type:flag <- $x20
	//DEBUG_VALUE: hisi_blk_io_type:type_buf <- $x19
	//DEBUG_VALUE: hisi_blk_io_type_op:type_buf <- $x19
	//DEBUG_VALUE: hisi_blk_io_type_op:op <- $x0
	//DEBUG_VALUE: hisi_blk_io_type:op <- $x0
	mov	w8, #84
.Ltmp54:
.LBB1_10:
	//DEBUG_VALUE: hisi_blk_io_type:flag <- $x20
	//DEBUG_VALUE: hisi_blk_io_type:type_buf <- $x19
	//DEBUG_VALUE: hisi_blk_io_type_op:type_buf <- $x19
	//DEBUG_VALUE: hisi_blk_io_type_op:op <- $x0
	//DEBUG_VALUE: hisi_blk_io_type:op <- $x0
	strb	w8, [x19]
	orr	w8, wzr, #0x1
.Ltmp55:
	//DEBUG_VALUE: hisi_blk_io_type:offset <- $w8
	.loc	4 115 49 is_stmt 1      // kernel/block/hisi-blk-dump.c:115:49
	add	x9, x19, x8
.Ltmp56:
	//DEBUG_VALUE: hisi_blk_io_type_flag:offset <- 0
	//DEBUG_VALUE: hisi_blk_io_type_flag:flag <- $x20
	//DEBUG_VALUE: hisi_blk_io_type_flag:type_buf <- $x9
	.loc	4 70 23                 // kernel/block/hisi-blk-dump.c:70:23
	tbnz	w20, #18, .LBB1_7
.Ltmp57:
.LBB1_11:
	//DEBUG_VALUE: hisi_blk_io_type_flag:type_buf <- $x9
	//DEBUG_VALUE: hisi_blk_io_type_flag:flag <- $x20
	//DEBUG_VALUE: hisi_blk_io_type:offset <- $w8
	//DEBUG_VALUE: hisi_blk_io_type:flag <- $x20
	//DEBUG_VALUE: hisi_blk_io_type:type_buf <- $x19
	.loc	4 0 0 is_stmt 0         // kernel/block/hisi-blk-dump.c:0:0
	mov	w10, wzr
	mov	w11, #10
.Ltmp58:
	//DEBUG_VALUE: hisi_blk_io_type_flag:offset <- $w10
	.loc	4 74 24 is_stmt 1       // kernel/block/hisi-blk-dump.c:74:24
	tbz	w20, #11, .LBB1_13
.Ltmp59:
.LBB1_12:
	//DEBUG_VALUE: hisi_blk_io_type_flag:offset <- $w10
	//DEBUG_VALUE: hisi_blk_io_type_flag:type_buf <- $x9
	//DEBUG_VALUE: hisi_blk_io_type_flag:flag <- $x20
	//DEBUG_VALUE: hisi_blk_io_type:offset <- $w8
	//DEBUG_VALUE: hisi_blk_io_type:flag <- $x20
	//DEBUG_VALUE: hisi_blk_io_type:type_buf <- $x19
	.loc	4 0 24 is_stmt 0        // kernel/block/hisi-blk-dump.c:0:24
	mov	w12, #83
.Ltmp60:
	.loc	4 75 20 is_stmt 1       // kernel/block/hisi-blk-dump.c:75:20
	strb	w12, [x9, w10, uxtw]
	.loc	4 76 9                  // kernel/block/hisi-blk-dump.c:76:9
	add	w10, w10, #1            // =1
.Ltmp61:
	//DEBUG_VALUE: hisi_blk_io_type_flag:offset <- $w10
.LBB1_13:
	//DEBUG_VALUE: hisi_blk_io_type_flag:offset <- $w10
	//DEBUG_VALUE: hisi_blk_io_type_flag:type_buf <- $x9
	//DEBUG_VALUE: hisi_blk_io_type_flag:flag <- $x20
	//DEBUG_VALUE: hisi_blk_io_type:offset <- $w8
	//DEBUG_VALUE: hisi_blk_io_type:flag <- $x20
	//DEBUG_VALUE: hisi_blk_io_type:type_buf <- $x19
	.loc	4 0 0 is_stmt 0         // kernel/block/hisi-blk-dump.c:0:0
	sub	w11, w11, w8
.Ltmp62:
	//DEBUG_VALUE: hisi_blk_io_type_flag:len <- $w11
	//DEBUG_VALUE: hisi_blk_io_type_flag:offset <- $w10
	.loc	4 78 24 is_stmt 1       // kernel/block/hisi-blk-dump.c:78:24
	tbz	w20, #12, .LBB1_16
.Ltmp63:
// %bb.14:
	//DEBUG_VALUE: hisi_blk_io_type_flag:len <- $w11
	//DEBUG_VALUE: hisi_blk_io_type_flag:offset <- $w10
	//DEBUG_VALUE: hisi_blk_io_type_flag:type_buf <- $x9
	//DEBUG_VALUE: hisi_blk_io_type_flag:flag <- $x20
	//DEBUG_VALUE: hisi_blk_io_type:offset <- $w8
	//DEBUG_VALUE: hisi_blk_io_type:flag <- $x20
	//DEBUG_VALUE: hisi_blk_io_type:type_buf <- $x19
	cmp	w10, w11
	b.ge	.LBB1_16
.Ltmp64:
// %bb.15:
	//DEBUG_VALUE: hisi_blk_io_type_flag:len <- $w11
	//DEBUG_VALUE: hisi_blk_io_type_flag:offset <- $w10
	//DEBUG_VALUE: hisi_blk_io_type_flag:type_buf <- $x9
	//DEBUG_VALUE: hisi_blk_io_type_flag:flag <- $x20
	//DEBUG_VALUE: hisi_blk_io_type:offset <- $w8
	//DEBUG_VALUE: hisi_blk_io_type:flag <- $x20
	//DEBUG_VALUE: hisi_blk_io_type:type_buf <- $x19
	.loc	4 0 24 is_stmt 0        // kernel/block/hisi-blk-dump.c:0:24
	mov	w12, #77
.Ltmp65:
	.loc	4 79 20 is_stmt 1       // kernel/block/hisi-blk-dump.c:79:20
	strb	w12, [x9, w10, uxtw]
	.loc	4 80 9                  // kernel/block/hisi-blk-dump.c:80:9
	add	w10, w10, #1            // =1
.Ltmp66:
	//DEBUG_VALUE: hisi_blk_io_type_flag:offset <- $w10
.LBB1_16:
	//DEBUG_VALUE: hisi_blk_io_type_flag:len <- $w11
	//DEBUG_VALUE: hisi_blk_io_type_flag:offset <- $w10
	//DEBUG_VALUE: hisi_blk_io_type_flag:type_buf <- $x9
	//DEBUG_VALUE: hisi_blk_io_type_flag:flag <- $x20
	//DEBUG_VALUE: hisi_blk_io_type:offset <- $w8
	//DEBUG_VALUE: hisi_blk_io_type:flag <- $x20
	//DEBUG_VALUE: hisi_blk_io_type:type_buf <- $x19
	//DEBUG_VALUE: hisi_blk_io_type_flag:offset <- $w10
	.loc	4 82 28                 // kernel/block/hisi-blk-dump.c:82:28
	tbz	w20, #19, .LBB1_19
.Ltmp67:
// %bb.17:
	//DEBUG_VALUE: hisi_blk_io_type_flag:len <- $w11
	//DEBUG_VALUE: hisi_blk_io_type_flag:offset <- $w10
	//DEBUG_VALUE: hisi_blk_io_type_flag:type_buf <- $x9
	//DEBUG_VALUE: hisi_blk_io_type_flag:flag <- $x20
	//DEBUG_VALUE: hisi_blk_io_type:offset <- $w8
	//DEBUG_VALUE: hisi_blk_io_type:flag <- $x20
	//DEBUG_VALUE: hisi_blk_io_type:type_buf <- $x19
	cmp	w10, w11
	b.ge	.LBB1_19
.Ltmp68:
// %bb.18:
	//DEBUG_VALUE: hisi_blk_io_type_flag:len <- $w11
	//DEBUG_VALUE: hisi_blk_io_type_flag:offset <- $w10
	//DEBUG_VALUE: hisi_blk_io_type_flag:type_buf <- $x9
	//DEBUG_VALUE: hisi_blk_io_type_flag:flag <- $x20
	//DEBUG_VALUE: hisi_blk_io_type:offset <- $w8
	//DEBUG_VALUE: hisi_blk_io_type:flag <- $x20
	//DEBUG_VALUE: hisi_blk_io_type:type_buf <- $x19
	.loc	4 0 28 is_stmt 0        // kernel/block/hisi-blk-dump.c:0:28
	mov	w11, #70
.Ltmp69:
	.loc	4 83 20 is_stmt 1       // kernel/block/hisi-blk-dump.c:83:20
	strb	w11, [x9, w10, uxtw]
	.loc	4 84 9                  // kernel/block/hisi-blk-dump.c:84:9
	add	w10, w10, #1            // =1
.Ltmp70:
	//DEBUG_VALUE: hisi_blk_io_type_flag:offset <- $w10
.LBB1_19:
	//DEBUG_VALUE: hisi_blk_io_type:offset <- $w8
	//DEBUG_VALUE: hisi_blk_io_type:flag <- $x20
	//DEBUG_VALUE: hisi_blk_io_type:type_buf <- $x19
	.loc	4 115 9                 // kernel/block/hisi-blk-dump.c:115:9
	add	w8, w10, w8
.Ltmp71:
	//DEBUG_VALUE: hisi_blk_io_type:offset <- $w8
	.loc	4 0 9 is_stmt 0         // kernel/block/hisi-blk-dump.c:0:9
	mov	w11, #10
	mov	w9, wzr
	.loc	4 117 18 is_stmt 1      // kernel/block/hisi-blk-dump.c:117:18
	add	x10, x19, x8
	.loc	4 117 32 is_stmt 0      // kernel/block/hisi-blk-dump.c:117:32
	sub	w11, w11, w8
.Ltmp72:
	//DEBUG_VALUE: hisi_blk_io_type_priv_flag:offset <- 0
	//DEBUG_VALUE: hisi_blk_io_type_priv_flag:flag <- $x20
	//DEBUG_VALUE: hisi_blk_io_type_priv_flag:len <- $w11
	//DEBUG_VALUE: hisi_blk_io_type_priv_flag:type_buf <- $x10
	.loc	4 94 22 is_stmt 1       // kernel/block/hisi-blk-dump.c:94:22
	tbz	w20, #22, .LBB1_22
.Ltmp73:
// %bb.20:
	//DEBUG_VALUE: hisi_blk_io_type_priv_flag:type_buf <- $x10
	//DEBUG_VALUE: hisi_blk_io_type_priv_flag:len <- $w11
	//DEBUG_VALUE: hisi_blk_io_type_priv_flag:flag <- $x20
	//DEBUG_VALUE: hisi_blk_io_type:offset <- $w8
	//DEBUG_VALUE: hisi_blk_io_type:flag <- $x20
	//DEBUG_VALUE: hisi_blk_io_type:type_buf <- $x19
	cmp	w11, #1                 // =1
	b.lt	.LBB1_22
.Ltmp74:
// %bb.21:
	//DEBUG_VALUE: hisi_blk_io_type_priv_flag:type_buf <- $x10
	//DEBUG_VALUE: hisi_blk_io_type_priv_flag:len <- $w11
	//DEBUG_VALUE: hisi_blk_io_type_priv_flag:flag <- $x20
	//DEBUG_VALUE: hisi_blk_io_type:offset <- $w8
	//DEBUG_VALUE: hisi_blk_io_type:flag <- $x20
	//DEBUG_VALUE: hisi_blk_io_type:type_buf <- $x19
	.loc	4 0 22 is_stmt 0        // kernel/block/hisi-blk-dump.c:0:22
	mov	w9, #72
.Ltmp75:
	.loc	4 95 20 is_stmt 1       // kernel/block/hisi-blk-dump.c:95:20
	strb	w9, [x10]
	orr	w9, wzr, #0x1
.Ltmp76:
	//DEBUG_VALUE: hisi_blk_io_type_priv_flag:offset <- 1
.LBB1_22:
	//DEBUG_VALUE: hisi_blk_io_type_priv_flag:type_buf <- $x10
	//DEBUG_VALUE: hisi_blk_io_type_priv_flag:len <- $w11
	//DEBUG_VALUE: hisi_blk_io_type_priv_flag:flag <- $x20
	//DEBUG_VALUE: hisi_blk_io_type:offset <- $w8
	//DEBUG_VALUE: hisi_blk_io_type:flag <- $x20
	//DEBUG_VALUE: hisi_blk_io_type:type_buf <- $x19
	//DEBUG_VALUE: hisi_blk_io_type_priv_flag:offset <- $w9
	.loc	4 98 22                 // kernel/block/hisi-blk-dump.c:98:22
	tbz	w20, #24, .LBB1_25
.Ltmp77:
// %bb.23:
	//DEBUG_VALUE: hisi_blk_io_type_priv_flag:offset <- $w9
	//DEBUG_VALUE: hisi_blk_io_type_priv_flag:type_buf <- $x10
	//DEBUG_VALUE: hisi_blk_io_type_priv_flag:len <- $w11
	//DEBUG_VALUE: hisi_blk_io_type_priv_flag:flag <- $x20
	//DEBUG_VALUE: hisi_blk_io_type:offset <- $w8
	//DEBUG_VALUE: hisi_blk_io_type:flag <- $x20
	//DEBUG_VALUE: hisi_blk_io_type:type_buf <- $x19
	cmp	w9, w11
	b.ge	.LBB1_25
.Ltmp78:
// %bb.24:
	//DEBUG_VALUE: hisi_blk_io_type_priv_flag:offset <- $w9
	//DEBUG_VALUE: hisi_blk_io_type_priv_flag:type_buf <- $x10
	//DEBUG_VALUE: hisi_blk_io_type_priv_flag:len <- $w11
	//DEBUG_VALUE: hisi_blk_io_type_priv_flag:flag <- $x20
	//DEBUG_VALUE: hisi_blk_io_type:offset <- $w8
	//DEBUG_VALUE: hisi_blk_io_type:flag <- $x20
	//DEBUG_VALUE: hisi_blk_io_type:type_buf <- $x19
	.loc	4 0 22 is_stmt 0        // kernel/block/hisi-blk-dump.c:0:22
	mov	w12, #67
.Ltmp79:
	.loc	4 99 20 is_stmt 1       // kernel/block/hisi-blk-dump.c:99:20
	strb	w12, [x10, w9, uxtw]
	.loc	4 100 9                 // kernel/block/hisi-blk-dump.c:100:9
	add	w9, w9, #1              // =1
.Ltmp80:
	//DEBUG_VALUE: hisi_blk_io_type_priv_flag:offset <- $w9
.LBB1_25:
	//DEBUG_VALUE: hisi_blk_io_type_priv_flag:offset <- $w9
	//DEBUG_VALUE: hisi_blk_io_type_priv_flag:type_buf <- $x10
	//DEBUG_VALUE: hisi_blk_io_type_priv_flag:len <- $w11
	//DEBUG_VALUE: hisi_blk_io_type_priv_flag:flag <- $x20
	//DEBUG_VALUE: hisi_blk_io_type:offset <- $w8
	//DEBUG_VALUE: hisi_blk_io_type:flag <- $x20
	//DEBUG_VALUE: hisi_blk_io_type:type_buf <- $x19
	//DEBUG_VALUE: hisi_blk_io_type_priv_flag:offset <- $w9
	.loc	4 102 22                // kernel/block/hisi-blk-dump.c:102:22
	tbz	w20, #23, .LBB1_28
.Ltmp81:
// %bb.26:
	//DEBUG_VALUE: hisi_blk_io_type_priv_flag:offset <- $w9
	//DEBUG_VALUE: hisi_blk_io_type_priv_flag:type_buf <- $x10
	//DEBUG_VALUE: hisi_blk_io_type_priv_flag:len <- $w11
	//DEBUG_VALUE: hisi_blk_io_type_priv_flag:flag <- $x20
	//DEBUG_VALUE: hisi_blk_io_type:offset <- $w8
	//DEBUG_VALUE: hisi_blk_io_type:flag <- $x20
	//DEBUG_VALUE: hisi_blk_io_type:type_buf <- $x19
	cmp	w9, w11
	b.ge	.LBB1_28
.Ltmp82:
// %bb.27:
	//DEBUG_VALUE: hisi_blk_io_type_priv_flag:offset <- $w9
	//DEBUG_VALUE: hisi_blk_io_type_priv_flag:type_buf <- $x10
	//DEBUG_VALUE: hisi_blk_io_type_priv_flag:len <- $w11
	//DEBUG_VALUE: hisi_blk_io_type_priv_flag:flag <- $x20
	//DEBUG_VALUE: hisi_blk_io_type:offset <- $w8
	//DEBUG_VALUE: hisi_blk_io_type:flag <- $x20
	//DEBUG_VALUE: hisi_blk_io_type:type_buf <- $x19
	.loc	4 0 22 is_stmt 0        // kernel/block/hisi-blk-dump.c:0:22
	mov	w11, #90
.Ltmp83:
	.loc	4 103 20 is_stmt 1      // kernel/block/hisi-blk-dump.c:103:20
	strb	w11, [x10, w9, uxtw]
	.loc	4 104 9                 // kernel/block/hisi-blk-dump.c:104:9
	add	w9, w9, #1              // =1
.Ltmp84:
	//DEBUG_VALUE: hisi_blk_io_type_priv_flag:offset <- $w9
.LBB1_28:
	//DEBUG_VALUE: hisi_blk_io_type:offset <- $w8
	//DEBUG_VALUE: hisi_blk_io_type:flag <- $x20
	//DEBUG_VALUE: hisi_blk_io_type:type_buf <- $x19
	.loc	4 116 9                 // kernel/block/hisi-blk-dump.c:116:9
	add	w8, w9, w8
.Ltmp85:
	//DEBUG_VALUE: hisi_blk_io_type:offset <- $w8
	.loc	4 118 19                // kernel/block/hisi-blk-dump.c:118:19
	strb	wzr, [x19, w8, uxtw]
	.loc	4 120 2                 // kernel/block/hisi-blk-dump.c:120:2
	ldp	x29, x30, [sp, #16]     // 16-byte Folded Reload
	mov	x0, x19
	ldp	x20, x19, [sp], #32     // 16-byte Folded Reload
.Ltmp86:
	ret
.Ltmp87:
.Lfunc_end1:
	.size	hisi_blk_io_type, .Lfunc_end1-hisi_blk_io_type
	.cfi_endproc
	.section	.rodata,"a",@progbits
.LJTI1_0:
	.byte	(.LBB1_2-.LBB1_2)>>2
	.byte	(.LBB1_3-.LBB1_2)>>2
	.byte	(.LBB1_4-.LBB1_2)>>2
	.byte	(.LBB1_5-.LBB1_2)>>2
	.byte	(.LBB1_6-.LBB1_2)>>2
	.byte	(.LBB1_8-.LBB1_2)>>2
	.byte	(.LBB1_6-.LBB1_2)>>2
	.byte	(.LBB1_9-.LBB1_2)>>2
                                        // -- End function
	.text
	.globl	hisi_blk_dump_bio       // -- Begin function hisi_blk_dump_bio
	.p2align	2
	.type	hisi_blk_dump_bio,@function
hisi_blk_dump_bio:                      // @hisi_blk_dump_bio
.Lfunc_begin2:
	.loc	4 186 0                 // kernel/block/hisi-blk-dump.c:186:0
	.cfi_startproc
// %bb.0:
	str	x28, [sp, #-80]!        // 8-byte Folded Spill
	stp	x24, x23, [sp, #16]     // 16-byte Folded Spill
	stp	x22, x21, [sp, #32]     // 16-byte Folded Spill
	stp	x20, x19, [sp, #48]     // 16-byte Folded Spill
	stp	x29, x30, [sp, #64]     // 16-byte Folded Spill
	add	x29, sp, #64            // =64
	sub	sp, sp, #544            // =544
	.cfi_def_cfa w29, 16
	.cfi_offset w30, -8
	.cfi_offset w29, -16
	.cfi_offset w19, -24
	.cfi_offset w20, -32
	.cfi_offset w21, -40
	.cfi_offset w22, -48
	.cfi_offset w23, -56
	.cfi_offset w24, -64
	.cfi_offset w28, -80
	adrp	x8, __stack_chk_guard
	ldr	x8, [x8, :lo12:__stack_chk_guard]
.Ltmp88:
	//DEBUG_VALUE: hisi_blk_dump_bio:bio <- $x20
	//DEBUG_VALUE: hisi_blk_dump_bio:s <- $w19
	.loc	4 185 42 prologue_end   // kernel/block/hisi-blk-dump.c:185:42
	mov	x23, sp
.Ltmp89:
	//DEBUG_VALUE: hisi_blk_dump_bio:bio <- $x0
	//DEBUG_VALUE: hisi_blk_dump_bio:s <- $w1
	.loc	4 0 42 is_stmt 0        // kernel/block/hisi-blk-dump.c:0:42
	mov	w19, w1
	mov	x20, x0
	str	x8, [x23]
.Ltmp90:
	//DEBUG_VALUE: hisi_blk_dump_bio:hisi_bio <- [DW_OP_plus_uconst 88, DW_OP_stack_value] $x20
	//DEBUG_VALUE: hisi_blk_dump_bio:count <- 0
	.loc	4 193 3 is_stmt 1       // kernel/block/hisi-blk-dump.c:193:3
	ldr	w1, [x0, #16]
.Ltmp91:
	.loc	4 192 15                // kernel/block/hisi-blk-dump.c:192:15
	add	x2, sp, #12             // =12
	.loc	4 193 3                 // kernel/block/hisi-blk-dump.c:193:3
	and	x0, x1, #0xff
.Ltmp92:
	.loc	4 192 15                // kernel/block/hisi-blk-dump.c:192:15
	bl	hisi_blk_io_type
	.loc	4 198 28                // kernel/block/hisi-blk-dump.c:198:28
	ldr	w5, [x20, #48]
.Ltmp93:
	.loc	21 454 9                // kernel/include/linux/blkdev.h:454:9
	adrp	x8, .L.str.20
	adrp	x9, .L.str.19
.Ltmp94:
	.loc	4 196 11                // kernel/block/hisi-blk-dump.c:196:11
	adrp	x2, .L.str.9
	.loc	4 192 15                // kernel/block/hisi-blk-dump.c:192:15
	mov	x4, x0
.Ltmp95:
	//DEBUG_VALUE: hisi_blk_prefix_str:s <- $w19
	//DEBUG_VALUE: hisi_blk_dump_bio:type <- $x4
	.loc	21 454 9                // kernel/include/linux/blkdev.h:454:9
	add	x8, x8, :lo12:.L.str.20
	add	x9, x9, :lo12:.L.str.19
	//DEBUG_VALUE: hisi_blk_prefix_str:s <- $w19
	cmp	w19, #1                 // =1
.Ltmp96:
	.loc	4 196 11                // kernel/block/hisi-blk-dump.c:196:11
	add	x2, x2, :lo12:.L.str.9
	add	x0, sp, #24             // =24
	orr	w1, wzr, #0x200
	mov	x3, x20
.Ltmp97:
	.loc	21 454 9                // kernel/include/linux/blkdev.h:454:9
	csel	x21, x9, x8, eq
.Ltmp98:
	//DEBUG_VALUE: hisi_blk_dump_bio:prefix <- $x21
	.loc	21 0 9 is_stmt 0        // kernel/include/linux/blkdev.h:0:9
	add	x24, sp, #24            // =24
.Ltmp99:
	.loc	4 196 11 is_stmt 1      // kernel/block/hisi-blk-dump.c:196:11
	bl	snprintf
.Ltmp100:
	.loc	4 200 16                // kernel/block/hisi-blk-dump.c:200:16
	ldr	x8, [x20, #104]
.Ltmp101:
	.loc	4 196 11                // kernel/block/hisi-blk-dump.c:196:11
	mov	w22, w0
.Ltmp102:
	//DEBUG_VALUE: hisi_blk_dump_bio:count <- $w22
	.loc	4 200 6                 // kernel/block/hisi-blk-dump.c:200:6
	cbz	x8, .LBB2_2
.Ltmp103:
// %bb.1:
	//DEBUG_VALUE: hisi_blk_dump_bio:count <- $w22
	//DEBUG_VALUE: hisi_blk_dump_bio:prefix <- $x21
	//DEBUG_VALUE: hisi_blk_dump_bio:hisi_bio <- [DW_OP_plus_uconst 88, DW_OP_stack_value] $x20
	//DEBUG_VALUE: hisi_blk_dump_bio:hisi_bio <- [DW_OP_plus_uconst 88, DW_OP_stack_value] $x20
	.loc	4 203 14                // kernel/block/hisi-blk-dump.c:203:14
	ldr	w3, [x20, #112]
	.loc	4 201 25                // kernel/block/hisi-blk-dump.c:201:25
	sxtw	x8, w22
	orr	w9, wzr, #0x200
	.loc	4 201 12 is_stmt 0      // kernel/block/hisi-blk-dump.c:201:12
	adrp	x2, .L.str.10
	.loc	4 201 25                // kernel/block/hisi-blk-dump.c:201:25
	add	x0, x24, x8
	.loc	4 201 56                // kernel/block/hisi-blk-dump.c:201:56
	sub	x1, x9, x8
	.loc	4 203 24 is_stmt 1      // kernel/block/hisi-blk-dump.c:203:24
	add	x4, x20, #120           // =120
	.loc	4 201 12                // kernel/block/hisi-blk-dump.c:201:12
	add	x2, x2, :lo12:.L.str.10
	bl	snprintf
	.loc	4 201 9 is_stmt 0       // kernel/block/hisi-blk-dump.c:201:9
	add	w22, w0, w22
.Ltmp104:
	//DEBUG_VALUE: hisi_blk_dump_bio:count <- $w22
.LBB2_2:
	//DEBUG_VALUE: hisi_blk_dump_bio:count <- $w22
	//DEBUG_VALUE: hisi_blk_dump_bio:prefix <- $x21
	//DEBUG_VALUE: hisi_blk_dump_bio:hisi_bio <- [DW_OP_plus_uconst 88, DW_OP_stack_value] $x20
	//DEBUG_VALUE: hisi_blk_dump_bio:count <- $w22
	.loc	4 209 24 is_stmt 1      // kernel/block/hisi-blk-dump.c:209:24
	sxtw	x8, w22
	orr	w9, wzr, #0x200
	.loc	4 209 11 is_stmt 0      // kernel/block/hisi-blk-dump.c:209:11
	adrp	x2, .L.str.6
	.loc	4 209 24                // kernel/block/hisi-blk-dump.c:209:24
	add	x0, x24, x8
	.loc	4 209 55                // kernel/block/hisi-blk-dump.c:209:55
	sub	x1, x9, x8
	.loc	4 209 11                // kernel/block/hisi-blk-dump.c:209:11
	add	x2, x2, :lo12:.L.str.6
	bl	snprintf
.Ltmp105:
	.loc	4 212 9 is_stmt 1       // kernel/block/hisi-blk-dump.c:212:9
	ldr	x4, [x20, #144]
.Ltmp106:
	.loc	4 209 8                 // kernel/block/hisi-blk-dump.c:209:8
	add	w22, w0, w22
.Ltmp107:
	//DEBUG_VALUE: hisi_blk_dump_bio:i <- 0
	//DEBUG_VALUE: hisi_blk_dump_bio:count <- $w22
	.loc	4 212 7                 // kernel/block/hisi-blk-dump.c:212:7
	cbz	x4, .LBB2_4
.Ltmp108:
// %bb.3:
	//DEBUG_VALUE: hisi_blk_dump_bio:count <- $w22
	//DEBUG_VALUE: hisi_blk_dump_bio:prefix <- $x21
	//DEBUG_VALUE: hisi_blk_dump_bio:hisi_bio <- [DW_OP_plus_uconst 88, DW_OP_stack_value] $x20
	.loc	4 215 35                // kernel/block/hisi-blk-dump.c:215:35
	adrp	x10, bio_stage_cfg
	ldr	x3, [x10, :lo12:bio_stage_cfg]
	.loc	4 214 25                // kernel/block/hisi-blk-dump.c:214:25
	sxtw	x8, w22
	add	x9, sp, #24             // =24
	add	x0, x9, x8
	orr	w9, wzr, #0x200
	.loc	4 214 12 is_stmt 0      // kernel/block/hisi-blk-dump.c:214:12
	adrp	x2, .L.str.11
	.loc	4 214 56                // kernel/block/hisi-blk-dump.c:214:56
	sub	x1, x9, x8
	.loc	4 214 12                // kernel/block/hisi-blk-dump.c:214:12
	add	x2, x2, :lo12:.L.str.11
	bl	snprintf
	.loc	4 214 9                 // kernel/block/hisi-blk-dump.c:214:9
	add	w22, w0, w22
.Ltmp109:
	//DEBUG_VALUE: hisi_blk_dump_bio:count <- $w22
.LBB2_4:
	//DEBUG_VALUE: hisi_blk_dump_bio:count <- $w22
	//DEBUG_VALUE: hisi_blk_dump_bio:prefix <- $x21
	//DEBUG_VALUE: hisi_blk_dump_bio:hisi_bio <- [DW_OP_plus_uconst 88, DW_OP_stack_value] $x20
	//DEBUG_VALUE: hisi_blk_dump_bio:count <- $w22
	//DEBUG_VALUE: hisi_blk_dump_bio:i <- 1
	//DEBUG_VALUE: hisi_blk_dump_bio:i <- [DW_OP_plus_uconst 1, DW_OP_stack_value] undef
	.loc	4 212 9 is_stmt 1       // kernel/block/hisi-blk-dump.c:212:9
	ldr	x4, [x20, #152]
.Ltmp110:
	.loc	4 212 7 is_stmt 0       // kernel/block/hisi-blk-dump.c:212:7
	cbz	x4, .LBB2_6
.Ltmp111:
// %bb.5:
	//DEBUG_VALUE: hisi_blk_dump_bio:count <- $w22
	//DEBUG_VALUE: hisi_blk_dump_bio:prefix <- $x21
	//DEBUG_VALUE: hisi_blk_dump_bio:hisi_bio <- [DW_OP_plus_uconst 88, DW_OP_stack_value] $x20
	.loc	4 215 35 is_stmt 1      // kernel/block/hisi-blk-dump.c:215:35
	adrp	x10, bio_stage_cfg+16
	ldr	x3, [x10, :lo12:bio_stage_cfg+16]
	.loc	4 214 25                // kernel/block/hisi-blk-dump.c:214:25
	sxtw	x8, w22
	add	x9, sp, #24             // =24
	add	x0, x9, x8
	orr	w9, wzr, #0x200
	.loc	4 214 12 is_stmt 0      // kernel/block/hisi-blk-dump.c:214:12
	adrp	x2, .L.str.11
	.loc	4 214 56                // kernel/block/hisi-blk-dump.c:214:56
	sub	x1, x9, x8
	.loc	4 214 12                // kernel/block/hisi-blk-dump.c:214:12
	add	x2, x2, :lo12:.L.str.11
	bl	snprintf
	.loc	4 214 9                 // kernel/block/hisi-blk-dump.c:214:9
	add	w22, w0, w22
.Ltmp112:
	//DEBUG_VALUE: hisi_blk_dump_bio:count <- $w22
.LBB2_6:
	//DEBUG_VALUE: hisi_blk_dump_bio:count <- $w22
	//DEBUG_VALUE: hisi_blk_dump_bio:prefix <- $x21
	//DEBUG_VALUE: hisi_blk_dump_bio:hisi_bio <- [DW_OP_plus_uconst 88, DW_OP_stack_value] $x20
	//DEBUG_VALUE: hisi_blk_dump_bio:count <- $w22
	//DEBUG_VALUE: hisi_blk_dump_bio:i <- 2
	//DEBUG_VALUE: hisi_blk_dump_bio:i <- [DW_OP_plus_uconst 1, DW_OP_stack_value] undef
	.loc	4 212 9 is_stmt 1       // kernel/block/hisi-blk-dump.c:212:9
	ldr	x4, [x20, #160]
	cbz	x4, .LBB2_8
.Ltmp113:
// %bb.7:
	//DEBUG_VALUE: hisi_blk_dump_bio:count <- $w22
	//DEBUG_VALUE: hisi_blk_dump_bio:prefix <- $x21
	//DEBUG_VALUE: hisi_blk_dump_bio:hisi_bio <- [DW_OP_plus_uconst 88, DW_OP_stack_value] $x20
	.loc	4 215 35                // kernel/block/hisi-blk-dump.c:215:35
	adrp	x10, bio_stage_cfg+32
	ldr	x3, [x10, :lo12:bio_stage_cfg+32]
	.loc	4 214 25                // kernel/block/hisi-blk-dump.c:214:25
	sxtw	x8, w22
	add	x9, sp, #24             // =24
	add	x0, x9, x8
	orr	w9, wzr, #0x200
	.loc	4 214 12 is_stmt 0      // kernel/block/hisi-blk-dump.c:214:12
	adrp	x2, .L.str.11
	.loc	4 214 56                // kernel/block/hisi-blk-dump.c:214:56
	sub	x1, x9, x8
	.loc	4 214 12                // kernel/block/hisi-blk-dump.c:214:12
	add	x2, x2, :lo12:.L.str.11
	bl	snprintf
	.loc	4 214 9                 // kernel/block/hisi-blk-dump.c:214:9
	add	w22, w0, w22
.Ltmp114:
	//DEBUG_VALUE: hisi_blk_dump_bio:count <- $w22
.LBB2_8:
	//DEBUG_VALUE: hisi_blk_dump_bio:count <- $w22
	//DEBUG_VALUE: hisi_blk_dump_bio:prefix <- $x21
	//DEBUG_VALUE: hisi_blk_dump_bio:hisi_bio <- [DW_OP_plus_uconst 88, DW_OP_stack_value] $x20
	//DEBUG_VALUE: hisi_blk_dump_bio:count <- $w22
	//DEBUG_VALUE: hisi_blk_dump_bio:i <- 3
	//DEBUG_VALUE: hisi_blk_dump_bio:i <- [DW_OP_plus_uconst 1, DW_OP_stack_value] undef
	.loc	4 212 9 is_stmt 1       // kernel/block/hisi-blk-dump.c:212:9
	ldr	x4, [x20, #168]
	cbz	x4, .LBB2_10
.Ltmp115:
// %bb.9:
	//DEBUG_VALUE: hisi_blk_dump_bio:count <- $w22
	//DEBUG_VALUE: hisi_blk_dump_bio:prefix <- $x21
	//DEBUG_VALUE: hisi_blk_dump_bio:hisi_bio <- [DW_OP_plus_uconst 88, DW_OP_stack_value] $x20
	.loc	4 215 35                // kernel/block/hisi-blk-dump.c:215:35
	adrp	x10, bio_stage_cfg+48
	ldr	x3, [x10, :lo12:bio_stage_cfg+48]
	.loc	4 214 25                // kernel/block/hisi-blk-dump.c:214:25
	sxtw	x8, w22
	add	x9, sp, #24             // =24
	add	x0, x9, x8
	orr	w9, wzr, #0x200
	.loc	4 214 12 is_stmt 0      // kernel/block/hisi-blk-dump.c:214:12
	adrp	x2, .L.str.11
	.loc	4 214 56                // kernel/block/hisi-blk-dump.c:214:56
	sub	x1, x9, x8
	.loc	4 214 12                // kernel/block/hisi-blk-dump.c:214:12
	add	x2, x2, :lo12:.L.str.11
	bl	snprintf
	.loc	4 214 9                 // kernel/block/hisi-blk-dump.c:214:9
	add	w22, w0, w22
.Ltmp116:
	//DEBUG_VALUE: hisi_blk_dump_bio:count <- $w22
.LBB2_10:
	//DEBUG_VALUE: hisi_blk_dump_bio:count <- $w22
	//DEBUG_VALUE: hisi_blk_dump_bio:prefix <- $x21
	//DEBUG_VALUE: hisi_blk_dump_bio:hisi_bio <- [DW_OP_plus_uconst 88, DW_OP_stack_value] $x20
	//DEBUG_VALUE: hisi_blk_dump_bio:count <- $w22
	//DEBUG_VALUE: hisi_blk_dump_bio:i <- [DW_OP_plus_uconst 1, DW_OP_stack_value] undef
	.loc	4 0 9                   // kernel/block/hisi-blk-dump.c:0:9
	add	x8, sp, #24             // =24
	.loc	4 218 13 is_stmt 1      // kernel/block/hisi-blk-dump.c:218:13
	strb	wzr, [x8, w22, sxtw]
	.loc	4 219 2                 // kernel/block/hisi-blk-dump.c:219:2
	bl	ktime_get
	mov	x3, x0
	adrp	x0, .L.str.12
	add	x0, x0, :lo12:.L.str.12
	add	x2, sp, #24             // =24
	mov	x1, x21
	bl	printk
.Ltmp117:
	.loc	4 221 20                // kernel/block/hisi-blk-dump.c:221:20
	ldr	x0, [x20, #96]
.Ltmp118:
	.loc	4 221 6 is_stmt 0       // kernel/block/hisi-blk-dump.c:221:6
	cbz	x0, .LBB2_12
.Ltmp119:
// %bb.11:
	//DEBUG_VALUE: hisi_blk_dump_bio:count <- $w22
	//DEBUG_VALUE: hisi_blk_dump_bio:prefix <- $x21
	//DEBUG_VALUE: hisi_blk_dump_bio:hisi_bio <- [DW_OP_plus_uconst 88, DW_OP_stack_value] $x20
	.loc	4 222 3 is_stmt 1       // kernel/block/hisi-blk-dump.c:222:3
	mov	w1, w19
	bl	hisi_blk_dump_request
.Ltmp120:
.LBB2_12:
	//DEBUG_VALUE: hisi_blk_dump_bio:count <- $w22
	//DEBUG_VALUE: hisi_blk_dump_bio:prefix <- $x21
	//DEBUG_VALUE: hisi_blk_dump_bio:hisi_bio <- [DW_OP_plus_uconst 88, DW_OP_stack_value] $x20
	.loc	4 0 3 is_stmt 0         // kernel/block/hisi-blk-dump.c:0:3
	adrp	x9, __stack_chk_guard
	ldr	x8, [x23]
	ldr	x9, [x9, :lo12:__stack_chk_guard]
	cmp	x9, x8
	b.ne	.LBB2_14
.Ltmp121:
// %bb.13:
	//DEBUG_VALUE: hisi_blk_dump_bio:count <- $w22
	//DEBUG_VALUE: hisi_blk_dump_bio:prefix <- $x21
	//DEBUG_VALUE: hisi_blk_dump_bio:hisi_bio <- [DW_OP_plus_uconst 88, DW_OP_stack_value] $x20
	.loc	4 223 1 is_stmt 1       // kernel/block/hisi-blk-dump.c:223:1
	add	sp, sp, #544            // =544
	ldp	x29, x30, [sp, #64]     // 16-byte Folded Reload
	ldp	x20, x19, [sp, #48]     // 16-byte Folded Reload
.Ltmp122:
	ldp	x22, x21, [sp, #32]     // 16-byte Folded Reload
.Ltmp123:
	ldp	x24, x23, [sp, #16]     // 16-byte Folded Reload
	ldr	x28, [sp], #80          // 8-byte Folded Reload
	ret
.Ltmp124:
.LBB2_14:
	//DEBUG_VALUE: hisi_blk_dump_bio:count <- $w22
	//DEBUG_VALUE: hisi_blk_dump_bio:prefix <- $x21
	//DEBUG_VALUE: hisi_blk_dump_bio:hisi_bio <- [DW_OP_plus_uconst 88, DW_OP_stack_value] $x20
	.loc	4 0 1 is_stmt 0         // kernel/block/hisi-blk-dump.c:0:1
	bl	__stack_chk_fail
.Lfunc_end2:
	.size	hisi_blk_dump_bio, .Lfunc_end2-hisi_blk_dump_bio
	.cfi_endproc
                                        // -- End function
	.globl	hisi_blk_dump_queue_status2 // -- Begin function hisi_blk_dump_queue_status2
	.p2align	2
	.type	hisi_blk_dump_queue_status2,@function
hisi_blk_dump_queue_status2:            // @hisi_blk_dump_queue_status2
.Lfunc_begin3:
	.loc	4 270 0 is_stmt 1       // kernel/block/hisi-blk-dump.c:270:0
	.cfi_startproc
// %bb.0:
	//DEBUG_VALUE: hisi_blk_dump_queue_status2:q <- $x0
	//DEBUG_VALUE: hisi_blk_dump_queue_status2:buf <- $x1
	//DEBUG_VALUE: hisi_blk_dump_queue_status2:len <- $w2
	str	x28, [sp, #-80]!        // 8-byte Folded Spill
	stp	x24, x23, [sp, #16]     // 16-byte Folded Spill
	stp	x22, x21, [sp, #32]     // 16-byte Folded Spill
	stp	x20, x19, [sp, #48]     // 16-byte Folded Spill
	stp	x29, x30, [sp, #64]     // 16-byte Folded Spill
	add	x29, sp, #64            // =64
	sub	sp, sp, #528            // =528
	.cfi_def_cfa w29, 16
	.cfi_offset w30, -8
	.cfi_offset w29, -16
	.cfi_offset w19, -24
	.cfi_offset w20, -32
	.cfi_offset w21, -40
	.cfi_offset w22, -48
	.cfi_offset w23, -56
	.cfi_offset w24, -64
	.cfi_offset w28, -80
.Ltmp125:
	.loc	4 242 2 prologue_end    // kernel/block/hisi-blk-dump.c:242:2
	adrp	x9, .L.str.21
	adrp	x8, __stack_chk_guard
	add	x9, x9, :lo12:.L.str.21
	ldr	x8, [x8, :lo12:__stack_chk_guard]
.Ltmp126:
	//DEBUG_VALUE: hisi_blk_dump_queue_status2:len <- $w22
	//DEBUG_VALUE: hisi_blk_dump_queue_status2:buf <- $x19
	//DEBUG_VALUE: hisi_blk_dump_queue_status2:q <- $x21
	ldur	x10, [x9, #7]
	ldr	x9, [x9]
	mov	w22, w2
.Ltmp127:
	.loc	4 0 2 is_stmt 0         // kernel/block/hisi-blk-dump.c:0:2
	mov	x19, x1
.Ltmp128:
	mov	x21, x0
.Ltmp129:
	stur	x8, [x29, #-72]
.Ltmp130:
	//DEBUG_VALUE: __hisi_blk_dump_printf:str <- undef
	//DEBUG_VALUE: __hisi_blk_dump_printf:str <- undef
	//DEBUG_VALUE: __hisi_blk_dump_printf:str <- undef
	//DEBUG_VALUE: hisi_blk_q_dump_header:len <- undef
	//DEBUG_VALUE: hisi_blk_q_dump_header:buf <- $x19
	//DEBUG_VALUE: hisi_blk_q_dump_header:q <- undef
	//DEBUG_VALUE: hisi_blk_dump_queue_status2:offset <- 0
	.loc	4 242 2                 // kernel/block/hisi-blk-dump.c:242:2
	stur	x10, [sp, #15]
	str	x9, [sp, #8]
.Ltmp131:
	//DEBUG_VALUE: __hisi_blk_dump_printf:offset <- 0
	//DEBUG_VALUE: __hisi_blk_dump_printf:len <- undef
	//DEBUG_VALUE: __hisi_blk_dump_printf:buf <- $x19
	.loc	4 229 10 is_stmt 1      // kernel/block/hisi-blk-dump.c:229:10
	cbz	x1, .LBB3_3
.Ltmp132:
// %bb.1:
	//DEBUG_VALUE: __hisi_blk_dump_printf:buf <- $x19
	//DEBUG_VALUE: hisi_blk_q_dump_header:buf <- $x19
	cmp	w22, #1                 // =1
	b.lt	.LBB3_3
.Ltmp133:
// %bb.2:
	//DEBUG_VALUE: __hisi_blk_dump_printf:buf <- $x19
	//DEBUG_VALUE: hisi_blk_q_dump_header:buf <- $x19
	.loc	4 230 13                // kernel/block/hisi-blk-dump.c:230:13
	adrp	x2, .L.str.22
	.loc	4 230 27 is_stmt 0      // kernel/block/hisi-blk-dump.c:230:27
	sxtw	x1, w22
	.loc	4 230 13                // kernel/block/hisi-blk-dump.c:230:13
	add	x2, x2, :lo12:.L.str.22
	add	x3, sp, #8              // =8
	mov	x0, x19
	bl	snprintf
	mov	w20, w0
.Ltmp134:
	//DEBUG_VALUE: __hisi_blk_dump_printf:offset <- $w20
	.loc	4 0 13                  // kernel/block/hisi-blk-dump.c:0:13
	b	.LBB3_4
.Ltmp135:
.LBB3_3:
	//DEBUG_VALUE: __hisi_blk_dump_printf:buf <- $x19
	//DEBUG_VALUE: hisi_blk_q_dump_header:buf <- $x19
	.loc	4 232 3 is_stmt 1       // kernel/block/hisi-blk-dump.c:232:3
	adrp	x0, .L.str.23
	add	x0, x0, :lo12:.L.str.23
	add	x1, sp, #8              // =8
	bl	printk
.Ltmp136:
	.loc	4 0 0 is_stmt 0         // kernel/block/hisi-blk-dump.c:0:0
	mov	w20, wzr
.Ltmp137:
.LBB3_4:
	//DEBUG_VALUE: __hisi_blk_dump_printf:buf <- $x19
	//DEBUG_VALUE: hisi_blk_q_dump_header:buf <- $x19
	//DEBUG_VALUE: hisi_blk_dump_queue_status2:offset <- $w20
	//DEBUG_VALUE: __hisi_blk_dump_printf:offset <- $w20
	.loc	4 252 20 is_stmt 1      // kernel/block/hisi-blk-dump.c:252:20
	ldr	w8, [x21, #1684]
.Ltmp138:
	.loc	4 274 62                // kernel/block/hisi-blk-dump.c:274:62
	sub	w24, w22, w20
.Ltmp139:
	//DEBUG_VALUE: hisi_blk_q_dump_opt_features:offset <- 0
	//DEBUG_VALUE: hisi_blk_q_dump_opt_features:q <- $x21
	//DEBUG_VALUE: __hisi_blk_dump_printf:len <- $w24
	.loc	4 252 6                 // kernel/block/hisi-blk-dump.c:252:6
	cbz	w8, .LBB3_6
.Ltmp140:
// %bb.5:
	//DEBUG_VALUE: hisi_blk_q_dump_opt_features:q <- $x21
	//DEBUG_VALUE: hisi_blk_dump_queue_status2:offset <- $w20
	.loc	4 255 18                // kernel/block/hisi-blk-dump.c:255:18
	ldr	w3, [x21, #1688]
	.loc	4 253 3                 // kernel/block/hisi-blk-dump.c:253:3
	adrp	x2, .L.str.24
	add	x2, x2, :lo12:.L.str.24
	add	x0, sp, #8              // =8
	orr	w1, wzr, #0x200
	bl	snprintf
	b	.LBB3_7
.Ltmp141:
.LBB3_6:
	//DEBUG_VALUE: hisi_blk_q_dump_opt_features:q <- $x21
	//DEBUG_VALUE: hisi_blk_dump_queue_status2:offset <- $w20
	.loc	4 257 3                 // kernel/block/hisi-blk-dump.c:257:3
	adrp	x8, .L.str.25
	add	x8, x8, :lo12:.L.str.25
	ldur	x9, [x8, #21]
	ldp	x11, x10, [x8, #8]
	ldr	x8, [x8]
	stur	x9, [sp, #29]
	stp	x11, x10, [sp, #16]
	str	x8, [sp, #8]
.Ltmp142:
.LBB3_7:
	//DEBUG_VALUE: hisi_blk_q_dump_opt_features:q <- $x21
	//DEBUG_VALUE: hisi_blk_dump_queue_status2:offset <- $w20
	.loc	4 229 10                // kernel/block/hisi-blk-dump.c:229:10
	cmp	w24, #1                 // =1
.Ltmp143:
	.loc	4 0 0 is_stmt 0         // kernel/block/hisi-blk-dump.c:0:0
	add	x23, x19, w20, sxtw
.Ltmp144:
	//DEBUG_VALUE: __hisi_blk_dump_printf:offset <- 0
	//DEBUG_VALUE: hisi_blk_q_dump_opt_features:buf <- $x23
	//DEBUG_VALUE: __hisi_blk_dump_printf:buf <- $x23
	.loc	4 229 10                // kernel/block/hisi-blk-dump.c:229:10
	b.lt	.LBB3_10
.Ltmp145:
// %bb.8:
	//DEBUG_VALUE: __hisi_blk_dump_printf:buf <- $x23
	//DEBUG_VALUE: hisi_blk_q_dump_opt_features:buf <- $x23
	//DEBUG_VALUE: hisi_blk_q_dump_opt_features:q <- $x21
	//DEBUG_VALUE: hisi_blk_dump_queue_status2:offset <- $w20
	cbz	x23, .LBB3_10
.Ltmp146:
// %bb.9:
	//DEBUG_VALUE: __hisi_blk_dump_printf:buf <- $x23
	//DEBUG_VALUE: hisi_blk_q_dump_opt_features:buf <- $x23
	//DEBUG_VALUE: hisi_blk_q_dump_opt_features:q <- $x21
	//DEBUG_VALUE: hisi_blk_dump_queue_status2:offset <- $w20
	.loc	4 230 13 is_stmt 1      // kernel/block/hisi-blk-dump.c:230:13
	adrp	x2, .L.str.22
	.loc	4 230 27 is_stmt 0      // kernel/block/hisi-blk-dump.c:230:27
	sxtw	x1, w24
	.loc	4 230 13                // kernel/block/hisi-blk-dump.c:230:13
	add	x2, x2, :lo12:.L.str.22
	add	x3, sp, #8              // =8
	mov	x0, x23
	bl	snprintf
	mov	w22, w0
.Ltmp147:
	//DEBUG_VALUE: __hisi_blk_dump_printf:offset <- $w22
	.loc	4 0 13                  // kernel/block/hisi-blk-dump.c:0:13
	b	.LBB3_11
.Ltmp148:
.LBB3_10:
	//DEBUG_VALUE: __hisi_blk_dump_printf:buf <- $x23
	//DEBUG_VALUE: hisi_blk_q_dump_opt_features:buf <- $x23
	//DEBUG_VALUE: hisi_blk_q_dump_opt_features:q <- $x21
	//DEBUG_VALUE: hisi_blk_dump_queue_status2:offset <- $w20
	.loc	4 232 3 is_stmt 1       // kernel/block/hisi-blk-dump.c:232:3
	adrp	x0, .L.str.23
	add	x0, x0, :lo12:.L.str.23
	add	x1, sp, #8              // =8
	bl	printk
.Ltmp149:
	.loc	4 0 0 is_stmt 0         // kernel/block/hisi-blk-dump.c:0:0
	mov	w22, wzr
.Ltmp150:
.LBB3_11:
	//DEBUG_VALUE: __hisi_blk_dump_printf:buf <- $x23
	//DEBUG_VALUE: hisi_blk_q_dump_opt_features:buf <- $x23
	//DEBUG_VALUE: hisi_blk_q_dump_opt_features:q <- $x21
	//DEBUG_VALUE: hisi_blk_dump_queue_status2:offset <- $w20
	//DEBUG_VALUE: hisi_blk_q_dump_opt_features:offset <- $w22
	//DEBUG_VALUE: __hisi_blk_dump_printf:offset <- $w22
	.loc	4 262 17 is_stmt 1      // kernel/block/hisi-blk-dump.c:262:17
	ldr	w8, [x21, #1680]
	.loc	4 262 3 is_stmt 0       // kernel/block/hisi-blk-dump.c:262:3
	adrp	x9, .L.str.27
	adrp	x10, .L.str.28
	add	x9, x9, :lo12:.L.str.27
	add	x10, x10, :lo12:.L.str.28
	cmp	w8, #0                  // =0
	.loc	4 261 2 is_stmt 1       // kernel/block/hisi-blk-dump.c:261:2
	adrp	x2, .L.str.26
	.loc	4 262 3                 // kernel/block/hisi-blk-dump.c:262:3
	csel	x3, x10, x9, eq
	.loc	4 261 2                 // kernel/block/hisi-blk-dump.c:261:2
	add	x2, x2, :lo12:.L.str.26
	add	x0, sp, #8              // =8
	orr	w1, wzr, #0x200
	bl	snprintf
	.loc	4 263 49                // kernel/block/hisi-blk-dump.c:263:49
	sub	w8, w24, w22
.Ltmp151:
	//DEBUG_VALUE: __hisi_blk_dump_printf:offset <- 0
	//DEBUG_VALUE: __hisi_blk_dump_printf:len <- $w8
	.loc	4 229 10                // kernel/block/hisi-blk-dump.c:229:10
	cmp	w8, #1                  // =1
	b.lt	.LBB3_14
.Ltmp152:
// %bb.12:
	//DEBUG_VALUE: __hisi_blk_dump_printf:len <- $w8
	//DEBUG_VALUE: hisi_blk_q_dump_opt_features:offset <- $w22
	//DEBUG_VALUE: hisi_blk_q_dump_opt_features:buf <- $x23
	//DEBUG_VALUE: hisi_blk_q_dump_opt_features:q <- $x21
	//DEBUG_VALUE: hisi_blk_dump_queue_status2:offset <- $w20
	.loc	4 0 0 is_stmt 0         // kernel/block/hisi-blk-dump.c:0:0
	add	x0, x23, w22, sxtw
.Ltmp153:
	//DEBUG_VALUE: __hisi_blk_dump_printf:buf <- $x0
	.loc	4 229 10                // kernel/block/hisi-blk-dump.c:229:10
	cbz	x0, .LBB3_14
.Ltmp154:
// %bb.13:
	//DEBUG_VALUE: __hisi_blk_dump_printf:buf <- $x0
	//DEBUG_VALUE: __hisi_blk_dump_printf:len <- $w8
	//DEBUG_VALUE: hisi_blk_q_dump_opt_features:offset <- $w22
	//DEBUG_VALUE: hisi_blk_q_dump_opt_features:buf <- $x23
	//DEBUG_VALUE: hisi_blk_q_dump_opt_features:q <- $x21
	//DEBUG_VALUE: hisi_blk_dump_queue_status2:offset <- $w20
	.loc	4 230 13 is_stmt 1      // kernel/block/hisi-blk-dump.c:230:13
	adrp	x2, .L.str.22
	.loc	4 230 27 is_stmt 0      // kernel/block/hisi-blk-dump.c:230:27
	sxtw	x1, w8
	.loc	4 230 13                // kernel/block/hisi-blk-dump.c:230:13
	add	x2, x2, :lo12:.L.str.22
	add	x3, sp, #8              // =8
	bl	snprintf
.Ltmp155:
	//DEBUG_VALUE: __hisi_blk_dump_printf:offset <- $w0
	.loc	4 0 13                  // kernel/block/hisi-blk-dump.c:0:13
	b	.LBB3_15
.Ltmp156:
.LBB3_14:
	//DEBUG_VALUE: __hisi_blk_dump_printf:len <- $w8
	//DEBUG_VALUE: hisi_blk_q_dump_opt_features:offset <- $w22
	//DEBUG_VALUE: hisi_blk_q_dump_opt_features:buf <- $x23
	//DEBUG_VALUE: hisi_blk_q_dump_opt_features:q <- $x21
	//DEBUG_VALUE: hisi_blk_dump_queue_status2:offset <- $w20
	.loc	4 232 3 is_stmt 1       // kernel/block/hisi-blk-dump.c:232:3
	adrp	x0, .L.str.23
	add	x0, x0, :lo12:.L.str.23
	add	x1, sp, #8              // =8
	bl	printk
.Ltmp157:
	.loc	4 0 0 is_stmt 0         // kernel/block/hisi-blk-dump.c:0:0
	mov	w0, wzr
.Ltmp158:
.LBB3_15:
	//DEBUG_VALUE: hisi_blk_q_dump_opt_features:offset <- $w22
	//DEBUG_VALUE: hisi_blk_q_dump_opt_features:buf <- $x23
	//DEBUG_VALUE: hisi_blk_q_dump_opt_features:q <- $x21
	//DEBUG_VALUE: hisi_blk_dump_queue_status2:offset <- $w20
	//DEBUG_VALUE: hisi_blk_q_dump_opt_features:offset <- undef
	//DEBUG_VALUE: __hisi_blk_dump_printf:offset <- $w0
	.loc	4 263 9 is_stmt 1       // kernel/block/hisi-blk-dump.c:263:9
	add	w8, w22, w20
.Ltmp159:
	.loc	4 274 9                 // kernel/block/hisi-blk-dump.c:274:9
	add	w0, w8, w0
.Ltmp160:
	//DEBUG_VALUE: hisi_blk_dump_queue_status2:offset <- $w0
	.loc	4 275 6                 // kernel/block/hisi-blk-dump.c:275:6
	cbz	x19, .LBB3_17
.Ltmp161:
// %bb.16:
	//DEBUG_VALUE: hisi_blk_dump_queue_status2:offset <- $w0
	.loc	4 276 15                // kernel/block/hisi-blk-dump.c:276:15
	strb	wzr, [x19, w0, sxtw]
.Ltmp162:
.LBB3_17:
	//DEBUG_VALUE: hisi_blk_dump_queue_status2:offset <- $w0
	.loc	4 0 15 is_stmt 0        // kernel/block/hisi-blk-dump.c:0:15
	adrp	x9, __stack_chk_guard
	ldur	x8, [x29, #-72]
	ldr	x9, [x9, :lo12:__stack_chk_guard]
	cmp	x9, x8
	b.ne	.LBB3_19
.Ltmp163:
// %bb.18:
	//DEBUG_VALUE: hisi_blk_dump_queue_status2:offset <- $w0
	.loc	4 278 2 is_stmt 1       // kernel/block/hisi-blk-dump.c:278:2
	add	sp, sp, #528            // =528
	ldp	x29, x30, [sp, #64]     // 16-byte Folded Reload
	ldp	x20, x19, [sp, #48]     // 16-byte Folded Reload
	ldp	x22, x21, [sp, #32]     // 16-byte Folded Reload
	ldp	x24, x23, [sp, #16]     // 16-byte Folded Reload
	ldr	x28, [sp], #80          // 8-byte Folded Reload
	ret
.Ltmp164:
.LBB3_19:
	//DEBUG_VALUE: hisi_blk_dump_queue_status2:offset <- $w0
	.loc	4 0 2 is_stmt 0         // kernel/block/hisi-blk-dump.c:0:2
	bl	__stack_chk_fail
.Ltmp165:
.Lfunc_end3:
	.size	hisi_blk_dump_queue_status2, .Lfunc_end3-hisi_blk_dump_queue_status2
	.cfi_endproc
                                        // -- End function
	.globl	hisi_blk_dump_queue_status // -- Begin function hisi_blk_dump_queue_status
	.p2align	2
	.type	hisi_blk_dump_queue_status,@function
hisi_blk_dump_queue_status:             // @hisi_blk_dump_queue_status
.Lfunc_begin4:
	.loc	4 286 0 is_stmt 1       // kernel/block/hisi-blk-dump.c:286:0
	.cfi_startproc
// %bb.0:
	//DEBUG_VALUE: hisi_blk_dump_queue_status:q <- $x0
	//DEBUG_VALUE: hisi_blk_dump_queue_status:s <- $w1
	//DEBUG_VALUE: hisi_blk_prefix_str:s <- $w1
	stp	x20, x19, [sp, #-32]!   // 16-byte Folded Spill
	stp	x29, x30, [sp, #16]     // 16-byte Folded Spill
	add	x29, sp, #16            // =16
	.cfi_def_cfa w29, 16
	.cfi_offset w30, -8
	.cfi_offset w29, -16
	.cfi_offset w19, -24
	.cfi_offset w20, -32
.Ltmp166:
	//DEBUG_VALUE: hisi_blk_dump_queue_status:prefix <- undef
	.loc	4 289 21 prologue_end   // kernel/block/hisi-blk-dump.c:289:21
	ldr	x8, [x0, #1536]
.Ltmp167:
	.loc	4 289 6 is_stmt 0       // kernel/block/hisi-blk-dump.c:289:6
	cbz	x8, .LBB4_6
.Ltmp168:
// %bb.1:
	//DEBUG_VALUE: hisi_blk_prefix_str:s <- $w1
	//DEBUG_VALUE: hisi_blk_dump_queue_status:s <- $w1
	//DEBUG_VALUE: hisi_blk_dump_queue_status:q <- $x0
	.loc	4 292 2 is_stmt 1       // kernel/block/hisi-blk-dump.c:292:2
	ldrb	w11, [x0, #1544]
.Ltmp169:
	.loc	21 454 9                // kernel/include/linux/blkdev.h:454:9
	adrp	x9, .L.str.20
	adrp	x10, .L.str.19
.Ltmp170:
	.file	129 "/mnt/disk/jenkins/ci/workspace/chipset_pipeline_release/opensource/component_code/vendor/huawei/extra/build/build_script/kirin_kernel_release/kernel/include/linux/compiler.h"
	.loc	129 183 2               // kernel/include/linux/compiler.h:183:2
	ldr	w4, [x8, #1016]
.Ltmp171:
	//DEBUG_VALUE: __read_once_size:p <- [DW_OP_plus_uconst 1020, DW_OP_stack_value] $x8
	//DEBUG_VALUE: __read_once_size:size <- 4
	//DEBUG_VALUE: __read_once_size:res <- undef
	.loc	129 183 2 is_stmt 0     // kernel/include/linux/compiler.h:183:2
	ldr	w5, [x8, #1020]
.Ltmp172:
	.loc	21 454 9 is_stmt 1      // kernel/include/linux/blkdev.h:454:9
	add	x9, x9, :lo12:.L.str.20
	add	x10, x10, :lo12:.L.str.19
	cmp	w1, #1                  // =1
.Ltmp173:
	.loc	4 292 2                 // kernel/block/hisi-blk-dump.c:292:2
	add	x2, x8, #12             // =12
	adrp	x12, .L.str.14
	adrp	x8, .L.str.15
.Ltmp174:
	.loc	4 0 2 is_stmt 0         // kernel/block/hisi-blk-dump.c:0:2
	mov	x19, x0
.Ltmp175:
	//DEBUG_VALUE: hisi_blk_dump_queue_status:q <- $x19
	mov	w20, w1
.Ltmp176:
	//DEBUG_VALUE: hisi_blk_dump_queue_status:s <- $w20
	//DEBUG_VALUE: hisi_blk_prefix_str:s <- $w20
	.loc	4 292 2                 // kernel/block/hisi-blk-dump.c:292:2
	add	x12, x12, :lo12:.L.str.14
.Ltmp177:
	.loc	21 454 9 is_stmt 1      // kernel/include/linux/blkdev.h:454:9
	csel	x1, x10, x9, eq
.Ltmp178:
	//DEBUG_VALUE: hisi_blk_dump_queue_status:prefix <- $x1
	.loc	4 292 2                 // kernel/block/hisi-blk-dump.c:292:2
	add	x8, x8, :lo12:.L.str.15
	cmp	w11, #0                 // =0
	adrp	x0, .L.str.13
	csel	x3, x8, x12, eq
.Ltmp179:
	//DEBUG_VALUE: __read_once_size:p <- [DW_OP_plus_uconst 1016, DW_OP_stack_value] undef
	//DEBUG_VALUE: __read_once_size:size <- 4
	//DEBUG_VALUE: __read_once_size:res <- undef
	add	x0, x0, :lo12:.L.str.13
	bl	printk
.Ltmp180:
	.loc	21 454 9                // kernel/include/linux/blkdev.h:454:9
	cmp	w20, #1                 // =1
.Ltmp181:
	.loc	4 302 6                 // kernel/block/hisi-blk-dump.c:302:6
	b.ne	.LBB4_3
.Ltmp182:
// %bb.2:
	//DEBUG_VALUE: hisi_blk_dump_queue_status:s <- $w20
	//DEBUG_VALUE: hisi_blk_dump_queue_status:q <- $x19
	.loc	4 303 3                 // kernel/block/hisi-blk-dump.c:303:3
	mov	x0, x19
	mov	x1, xzr
	mov	w2, wzr
	bl	hisi_blk_dump_queue_status2
.Ltmp183:
.LBB4_3:
	//DEBUG_VALUE: hisi_blk_dump_queue_status:s <- $w20
	//DEBUG_VALUE: hisi_blk_dump_queue_status:q <- $x19
	.loc	4 305 9                 // kernel/block/hisi-blk-dump.c:305:9
	ldr	x8, [x19, #1800]
	.loc	4 305 24 is_stmt 0      // kernel/block/hisi-blk-dump.c:305:24
	cbz	x8, .LBB4_6
.Ltmp184:
// %bb.4:
	//DEBUG_VALUE: hisi_blk_dump_queue_status:s <- $w20
	//DEBUG_VALUE: hisi_blk_dump_queue_status:q <- $x19
	.loc	4 305 46                // kernel/block/hisi-blk-dump.c:305:46
	ldr	x8, [x8, #160]
.Ltmp185:
	.loc	4 305 6                 // kernel/block/hisi-blk-dump.c:305:6
	cbz	x8, .LBB4_6
.Ltmp186:
// %bb.5:
	//DEBUG_VALUE: hisi_blk_dump_queue_status:s <- $w20
	//DEBUG_VALUE: hisi_blk_dump_queue_status:q <- $x19
	.loc	4 306 3 is_stmt 1       // kernel/block/hisi-blk-dump.c:306:3
	mov	x0, x19
	mov	w1, w20
	blr	x8
.Ltmp187:
.LBB4_6:
	.loc	4 308 1                 // kernel/block/hisi-blk-dump.c:308:1
	ldp	x29, x30, [sp, #16]     // 16-byte Folded Reload
	ldp	x20, x19, [sp], #32     // 16-byte Folded Reload
	ret
.Ltmp188:
.Lfunc_end4:
	.size	hisi_blk_dump_queue_status, .Lfunc_end4-hisi_blk_dump_queue_status
	.cfi_endproc
                                        // -- End function
	.globl	hisi_blk_dump_lld_status // -- Begin function hisi_blk_dump_lld_status
	.p2align	2
	.type	hisi_blk_dump_lld_status,@function
hisi_blk_dump_lld_status:               // @hisi_blk_dump_lld_status
.Lfunc_begin5:
	.loc	4 422 0                 // kernel/block/hisi-blk-dump.c:422:0
	.cfi_startproc
// %bb.0:
	//DEBUG_VALUE: hisi_blk_dump_lld_status:lld <- $x0
	//DEBUG_VALUE: hisi_blk_dump_lld_status:buf <- $x1
	//DEBUG_VALUE: hisi_blk_dump_lld_status:len <- $w2
	stp	x28, x27, [sp, #-96]!   // 16-byte Folded Spill
	stp	x26, x25, [sp, #16]     // 16-byte Folded Spill
	stp	x24, x23, [sp, #32]     // 16-byte Folded Spill
	stp	x22, x21, [sp, #48]     // 16-byte Folded Spill
	stp	x20, x19, [sp, #64]     // 16-byte Folded Spill
	stp	x29, x30, [sp, #80]     // 16-byte Folded Spill
	add	x29, sp, #80            // =80
	sub	sp, sp, #528            // =528
	.cfi_def_cfa w29, 16
	.cfi_offset w30, -8
	.cfi_offset w29, -16
	.cfi_offset w19, -24
	.cfi_offset w20, -32
	.cfi_offset w21, -40
	.cfi_offset w22, -48
	.cfi_offset w23, -56
	.cfi_offset w24, -64
	.cfi_offset w25, -72
	.cfi_offset w26, -80
	.cfi_offset w27, -88
	.cfi_offset w28, -96
.Ltmp189:
	.loc	4 408 2 prologue_end    // kernel/block/hisi-blk-dump.c:408:2
	adrp	x9, .L.str.29
	adrp	x8, __stack_chk_guard
	add	x9, x9, :lo12:.L.str.29
	ldr	x8, [x8, :lo12:__stack_chk_guard]
.Ltmp190:
	//DEBUG_VALUE: hisi_blk_dump_lld_status:len <- $w21
	//DEBUG_VALUE: hisi_blk_dump_lld_status:buf <- $x19
	//DEBUG_VALUE: hisi_blk_dump_lld_status:lld <- $x20
	ldur	x10, [x9, #5]
	ldr	x9, [x9]
	mov	w21, w2
.Ltmp191:
	.loc	4 0 2 is_stmt 0         // kernel/block/hisi-blk-dump.c:0:2
	mov	x19, x1
.Ltmp192:
	mov	x20, x0
.Ltmp193:
	stur	x8, [x29, #-96]
.Ltmp194:
	//DEBUG_VALUE: hisi_blk_lld_dump_header:offset <- 0
	//DEBUG_VALUE: __hisi_blk_dump_printf:str <- undef
	//DEBUG_VALUE: __hisi_blk_dump_printf:str <- undef
	//DEBUG_VALUE: __hisi_blk_dump_printf:str <- undef
	//DEBUG_VALUE: __hisi_blk_dump_printf:str <- undef
	//DEBUG_VALUE: __hisi_blk_dump_printf:str <- undef
	//DEBUG_VALUE: __hisi_blk_dump_printf:str <- undef
	//DEBUG_VALUE: __hisi_blk_dump_printf:str <- undef
	//DEBUG_VALUE: __hisi_blk_dump_printf:str <- undef
	//DEBUG_VALUE: __hisi_blk_dump_printf:str <- undef
	//DEBUG_VALUE: __hisi_blk_dump_printf:str <- undef
	//DEBUG_VALUE: __hisi_blk_dump_printf:str <- undef
	//DEBUG_VALUE: __hisi_blk_dump_printf:str <- undef
	//DEBUG_VALUE: hisi_blk_lld_dump_header:len <- undef
	//DEBUG_VALUE: hisi_blk_lld_dump_header:buf <- $x19
	//DEBUG_VALUE: hisi_blk_lld_dump_header:lld <- undef
	//DEBUG_VALUE: hisi_blk_dump_lld_status:offset <- 0
	.loc	4 408 2                 // kernel/block/hisi-blk-dump.c:408:2
	stur	x10, [sp, #5]
	str	x9, [sp]
.Ltmp195:
	//DEBUG_VALUE: __hisi_blk_dump_printf:offset <- 0
	//DEBUG_VALUE: __hisi_blk_dump_printf:len <- undef
	//DEBUG_VALUE: __hisi_blk_dump_printf:buf <- $x19
	.loc	4 229 10 is_stmt 1      // kernel/block/hisi-blk-dump.c:229:10
	cbz	x1, .LBB5_3
.Ltmp196:
// %bb.1:
	//DEBUG_VALUE: __hisi_blk_dump_printf:buf <- $x19
	//DEBUG_VALUE: hisi_blk_lld_dump_header:buf <- $x19
	cmp	w21, #1                 // =1
	b.lt	.LBB5_3
.Ltmp197:
// %bb.2:
	//DEBUG_VALUE: __hisi_blk_dump_printf:buf <- $x19
	//DEBUG_VALUE: hisi_blk_lld_dump_header:buf <- $x19
	.loc	4 230 13                // kernel/block/hisi-blk-dump.c:230:13
	adrp	x2, .L.str.22
	.loc	4 230 27 is_stmt 0      // kernel/block/hisi-blk-dump.c:230:27
	sxtw	x1, w21
	.loc	4 230 13                // kernel/block/hisi-blk-dump.c:230:13
	add	x2, x2, :lo12:.L.str.22
	mov	x3, sp
	mov	x0, x19
	bl	snprintf
	mov	w22, w0
.Ltmp198:
	//DEBUG_VALUE: __hisi_blk_dump_printf:offset <- $w22
	.loc	4 0 13                  // kernel/block/hisi-blk-dump.c:0:13
	b	.LBB5_4
.Ltmp199:
.LBB5_3:
	//DEBUG_VALUE: __hisi_blk_dump_printf:buf <- $x19
	//DEBUG_VALUE: hisi_blk_lld_dump_header:buf <- $x19
	.loc	4 232 3 is_stmt 1       // kernel/block/hisi-blk-dump.c:232:3
	adrp	x0, .L.str.23
	add	x0, x0, :lo12:.L.str.23
	mov	x1, sp
	bl	printk
.Ltmp200:
	.loc	4 0 0 is_stmt 0         // kernel/block/hisi-blk-dump.c:0:0
	mov	w22, wzr
.Ltmp201:
.LBB5_4:
	//DEBUG_VALUE: __hisi_blk_dump_printf:buf <- $x19
	//DEBUG_VALUE: hisi_blk_lld_dump_header:buf <- $x19
	//DEBUG_VALUE: hisi_blk_lld_dump_header:offset <- $w22
	//DEBUG_VALUE: __hisi_blk_dump_printf:offset <- $w22
	.loc	4 412 8 is_stmt 1       // kernel/block/hisi-blk-dump.c:412:8
	ldr	x8, [x20, #24]
	.loc	4 412 3 is_stmt 0       // kernel/block/hisi-blk-dump.c:412:3
	adrp	x24, .L.str.27
	adrp	x25, .L.str.28
	add	x24, x24, :lo12:.L.str.27
	add	x25, x25, :lo12:.L.str.28
	tst	x8, #0x1
	.loc	4 411 2 is_stmt 1       // kernel/block/hisi-blk-dump.c:411:2
	adrp	x2, .L.str.30
	.loc	4 412 3                 // kernel/block/hisi-blk-dump.c:412:3
	csel	x3, x25, x24, eq
	.loc	4 411 2                 // kernel/block/hisi-blk-dump.c:411:2
	add	x2, x2, :lo12:.L.str.30
	mov	x0, sp
	orr	w1, wzr, #0x200
	bl	snprintf
	.loc	4 413 53                // kernel/block/hisi-blk-dump.c:413:53
	sub	w8, w21, w22
.Ltmp202:
	//DEBUG_VALUE: __hisi_blk_dump_printf:offset <- 0
	//DEBUG_VALUE: __hisi_blk_dump_printf:len <- $w8
	.loc	4 229 10                // kernel/block/hisi-blk-dump.c:229:10
	cmp	w8, #1                  // =1
	b.lt	.LBB5_7
.Ltmp203:
// %bb.5:
	//DEBUG_VALUE: __hisi_blk_dump_printf:len <- $w8
	//DEBUG_VALUE: hisi_blk_lld_dump_header:offset <- $w22
	//DEBUG_VALUE: hisi_blk_lld_dump_header:buf <- $x19
	.loc	4 0 0 is_stmt 0         // kernel/block/hisi-blk-dump.c:0:0
	add	x0, x19, w22, sxtw
.Ltmp204:
	//DEBUG_VALUE: __hisi_blk_dump_printf:buf <- $x0
	.loc	4 229 10                // kernel/block/hisi-blk-dump.c:229:10
	cbz	x0, .LBB5_7
.Ltmp205:
// %bb.6:
	//DEBUG_VALUE: __hisi_blk_dump_printf:buf <- $x0
	//DEBUG_VALUE: __hisi_blk_dump_printf:len <- $w8
	//DEBUG_VALUE: hisi_blk_lld_dump_header:offset <- $w22
	//DEBUG_VALUE: hisi_blk_lld_dump_header:buf <- $x19
	.loc	4 230 13 is_stmt 1      // kernel/block/hisi-blk-dump.c:230:13
	adrp	x2, .L.str.22
	.loc	4 230 27 is_stmt 0      // kernel/block/hisi-blk-dump.c:230:27
	sxtw	x1, w8
	.loc	4 230 13                // kernel/block/hisi-blk-dump.c:230:13
	add	x2, x2, :lo12:.L.str.22
	mov	x3, sp
	bl	snprintf
.Ltmp206:
	//DEBUG_VALUE: __hisi_blk_dump_printf:offset <- $w0
	.loc	4 0 13                  // kernel/block/hisi-blk-dump.c:0:13
	b	.LBB5_8
.Ltmp207:
.LBB5_7:
	//DEBUG_VALUE: __hisi_blk_dump_printf:len <- $w8
	//DEBUG_VALUE: hisi_blk_lld_dump_header:offset <- $w22
	//DEBUG_VALUE: hisi_blk_lld_dump_header:buf <- $x19
	.loc	4 232 3 is_stmt 1       // kernel/block/hisi-blk-dump.c:232:3
	adrp	x0, .L.str.23
	add	x0, x0, :lo12:.L.str.23
	mov	x1, sp
	bl	printk
.Ltmp208:
	.loc	4 0 0 is_stmt 0         // kernel/block/hisi-blk-dump.c:0:0
	mov	w0, wzr
.Ltmp209:
.LBB5_8:
	//DEBUG_VALUE: hisi_blk_lld_dump_header:offset <- $w22
	//DEBUG_VALUE: hisi_blk_lld_dump_header:buf <- $x19
	//DEBUG_VALUE: __hisi_blk_dump_printf:offset <- $w0
	.loc	4 315 6 is_stmt 1       // kernel/block/hisi-blk-dump.c:315:6
	ldrb	w8, [x20, #24]
.Ltmp210:
	.loc	4 413 9                 // kernel/block/hisi-blk-dump.c:413:9
	add	w22, w0, w22
.Ltmp211:
	//DEBUG_VALUE: hisi_blk_lld_dump_header:offset <- $w22
	//DEBUG_VALUE: hisi_blk_dump_lld_status:offset <- $w22
	.loc	4 426 61                // kernel/block/hisi-blk-dump.c:426:61
	sub	w23, w21, w22
.Ltmp212:
	//DEBUG_VALUE: hisi_blk_lld_dump_latency:lld <- $x20
	//DEBUG_VALUE: hisi_blk_lld_dump_latency:len <- $w23
	//DEBUG_VALUE: __hisi_blk_dump_printf:len <- $w23
	.loc	4 315 6                 // kernel/block/hisi-blk-dump.c:315:6
	tbnz	w8, #1, .LBB5_12
.Ltmp213:
// %bb.9:
	//DEBUG_VALUE: __hisi_blk_dump_printf:len <- $w23
	//DEBUG_VALUE: hisi_blk_lld_dump_latency:len <- $w23
	//DEBUG_VALUE: hisi_blk_lld_dump_latency:lld <- $x20
	//DEBUG_VALUE: hisi_blk_dump_lld_status:offset <- $w22
	.loc	4 320 3                 // kernel/block/hisi-blk-dump.c:320:3
	adrp	x8, .L.str.32
	add	x8, x8, :lo12:.L.str.32
	ldr	x10, [x8]
	ldp	x8, x9, [x8, #8]
	mov	w11, #10
	strh	w11, [sp, #24]
	str	x10, [sp]
	stp	x8, x9, [sp, #8]
.Ltmp214:
	//DEBUG_VALUE: __hisi_blk_dump_printf:offset <- 0
	.loc	4 229 10                // kernel/block/hisi-blk-dump.c:229:10
	cmp	w23, #1                 // =1
	b.lt	.LBB5_13
.Ltmp215:
.LBB5_10:
	//DEBUG_VALUE: __hisi_blk_dump_printf:len <- $w23
	//DEBUG_VALUE: hisi_blk_lld_dump_latency:len <- $w23
	//DEBUG_VALUE: hisi_blk_lld_dump_latency:lld <- $x20
	//DEBUG_VALUE: hisi_blk_dump_lld_status:offset <- $w22
	.loc	4 0 0 is_stmt 0         // kernel/block/hisi-blk-dump.c:0:0
	add	x0, x19, w22, sxtw
.Ltmp216:
	//DEBUG_VALUE: hisi_blk_lld_dump_latency:buf <- $x0
	//DEBUG_VALUE: __hisi_blk_dump_printf:buf <- $x0
	.loc	4 229 10                // kernel/block/hisi-blk-dump.c:229:10
	cbz	x0, .LBB5_13
.Ltmp217:
// %bb.11:
	//DEBUG_VALUE: __hisi_blk_dump_printf:buf <- $x0
	//DEBUG_VALUE: hisi_blk_lld_dump_latency:buf <- $x0
	//DEBUG_VALUE: __hisi_blk_dump_printf:len <- $w23
	//DEBUG_VALUE: hisi_blk_lld_dump_latency:len <- $w23
	//DEBUG_VALUE: hisi_blk_lld_dump_latency:lld <- $x20
	//DEBUG_VALUE: hisi_blk_dump_lld_status:offset <- $w22
	.loc	4 230 13 is_stmt 1      // kernel/block/hisi-blk-dump.c:230:13
	adrp	x2, .L.str.22
	.loc	4 230 27 is_stmt 0      // kernel/block/hisi-blk-dump.c:230:27
	sxtw	x1, w23
	.loc	4 230 13                // kernel/block/hisi-blk-dump.c:230:13
	add	x2, x2, :lo12:.L.str.22
	mov	x3, sp
	bl	snprintf
.Ltmp218:
	//DEBUG_VALUE: __hisi_blk_dump_printf:offset <- $w0
	.loc	4 0 13                  // kernel/block/hisi-blk-dump.c:0:13
	b	.LBB5_14
.Ltmp219:
.LBB5_12:
	//DEBUG_VALUE: __hisi_blk_dump_printf:len <- $w23
	//DEBUG_VALUE: hisi_blk_lld_dump_latency:len <- $w23
	//DEBUG_VALUE: hisi_blk_lld_dump_latency:lld <- $x20
	//DEBUG_VALUE: hisi_blk_dump_lld_status:offset <- $w22
	.loc	4 318 9 is_stmt 1       // kernel/block/hisi-blk-dump.c:318:9
	ldr	w3, [x20, #48]
	.loc	4 316 3                 // kernel/block/hisi-blk-dump.c:316:3
	adrp	x2, .L.str.31
	add	x2, x2, :lo12:.L.str.31
	mov	x0, sp
	orr	w1, wzr, #0x200
	bl	snprintf
.Ltmp220:
	//DEBUG_VALUE: __hisi_blk_dump_printf:offset <- 0
	.loc	4 229 10                // kernel/block/hisi-blk-dump.c:229:10
	cmp	w23, #1                 // =1
	b.ge	.LBB5_10
.Ltmp221:
.LBB5_13:
	//DEBUG_VALUE: __hisi_blk_dump_printf:len <- $w23
	//DEBUG_VALUE: hisi_blk_lld_dump_latency:len <- $w23
	//DEBUG_VALUE: hisi_blk_lld_dump_latency:lld <- $x20
	//DEBUG_VALUE: hisi_blk_dump_lld_status:offset <- $w22
	.loc	4 232 3                 // kernel/block/hisi-blk-dump.c:232:3
	adrp	x0, .L.str.23
	add	x0, x0, :lo12:.L.str.23
	mov	x1, sp
	bl	printk
.Ltmp222:
	.loc	4 0 0 is_stmt 0         // kernel/block/hisi-blk-dump.c:0:0
	mov	w0, wzr
.Ltmp223:
.LBB5_14:
	//DEBUG_VALUE: __hisi_blk_dump_printf:len <- $w23
	//DEBUG_VALUE: hisi_blk_lld_dump_latency:len <- $w23
	//DEBUG_VALUE: hisi_blk_lld_dump_latency:lld <- $x20
	//DEBUG_VALUE: hisi_blk_dump_lld_status:offset <- $w22
	//DEBUG_VALUE: __hisi_blk_dump_printf:offset <- $w0
	.loc	4 350 8 is_stmt 1       // kernel/block/hisi-blk-dump.c:350:8
	ldr	x8, [x20, #24]
	.loc	4 349 2                 // kernel/block/hisi-blk-dump.c:349:2
	adrp	x2, .L.str.33
.Ltmp224:
	.loc	4 426 9                 // kernel/block/hisi-blk-dump.c:426:9
	add	w26, w0, w22
.Ltmp225:
	//DEBUG_VALUE: hisi_blk_dump_lld_status:offset <- $w26
	.loc	4 349 2                 // kernel/block/hisi-blk-dump.c:349:2
	add	x2, x2, :lo12:.L.str.33
	.loc	4 350 3                 // kernel/block/hisi-blk-dump.c:350:3
	tst	x8, #0x8
	csel	x3, x25, x24, eq
	.loc	4 349 2                 // kernel/block/hisi-blk-dump.c:349:2
	mov	x0, sp
.Ltmp226:
	orr	w1, wzr, #0x200
.Ltmp227:
	.loc	4 427 48                // kernel/block/hisi-blk-dump.c:427:48
	add	x22, x19, w26, sxtw
	.loc	4 427 62 is_stmt 0      // kernel/block/hisi-blk-dump.c:427:62
	sub	w27, w21, w26
.Ltmp228:
	//DEBUG_VALUE: hisi_blk_lld_dump_busyidle:offset <- 0
	//DEBUG_VALUE: hisi_blk_lld_dump_busyidle:lld <- $x20
	//DEBUG_VALUE: hisi_blk_lld_dump_busyidle:len <- $w27
	//DEBUG_VALUE: hisi_blk_lld_dump_busyidle:buf <- $x22
	.loc	4 349 2 is_stmt 1       // kernel/block/hisi-blk-dump.c:349:2
	bl	snprintf
.Ltmp229:
	//DEBUG_VALUE: __hisi_blk_dump_printf:offset <- 0
	//DEBUG_VALUE: __hisi_blk_dump_printf:len <- $w27
	//DEBUG_VALUE: __hisi_blk_dump_printf:buf <- $x22
	.loc	4 229 10                // kernel/block/hisi-blk-dump.c:229:10
	cmp	w27, #1                 // =1
	b.lt	.LBB5_17
.Ltmp230:
// %bb.15:
	//DEBUG_VALUE: __hisi_blk_dump_printf:buf <- $x22
	//DEBUG_VALUE: __hisi_blk_dump_printf:len <- $w27
	//DEBUG_VALUE: hisi_blk_lld_dump_busyidle:buf <- $x22
	//DEBUG_VALUE: hisi_blk_lld_dump_busyidle:len <- $w27
	//DEBUG_VALUE: hisi_blk_lld_dump_busyidle:lld <- $x20
	//DEBUG_VALUE: hisi_blk_dump_lld_status:offset <- $w26
	cbz	x22, .LBB5_17
.Ltmp231:
// %bb.16:
	//DEBUG_VALUE: __hisi_blk_dump_printf:buf <- $x22
	//DEBUG_VALUE: __hisi_blk_dump_printf:len <- $w27
	//DEBUG_VALUE: hisi_blk_lld_dump_busyidle:buf <- $x22
	//DEBUG_VALUE: hisi_blk_lld_dump_busyidle:len <- $w27
	//DEBUG_VALUE: hisi_blk_lld_dump_busyidle:lld <- $x20
	//DEBUG_VALUE: hisi_blk_dump_lld_status:offset <- $w26
	.loc	4 230 13                // kernel/block/hisi-blk-dump.c:230:13
	adrp	x2, .L.str.22
	.loc	4 230 27 is_stmt 0      // kernel/block/hisi-blk-dump.c:230:27
	sxtw	x1, w27
	.loc	4 230 13                // kernel/block/hisi-blk-dump.c:230:13
	add	x2, x2, :lo12:.L.str.22
	mov	x3, sp
	mov	x0, x22
	bl	snprintf
	mov	w23, w0
.Ltmp232:
	//DEBUG_VALUE: __hisi_blk_dump_printf:offset <- $w23
	.loc	4 0 13                  // kernel/block/hisi-blk-dump.c:0:13
	b	.LBB5_18
.Ltmp233:
.LBB5_17:
	//DEBUG_VALUE: __hisi_blk_dump_printf:buf <- $x22
	//DEBUG_VALUE: __hisi_blk_dump_printf:len <- $w27
	//DEBUG_VALUE: hisi_blk_lld_dump_busyidle:buf <- $x22
	//DEBUG_VALUE: hisi_blk_lld_dump_busyidle:len <- $w27
	//DEBUG_VALUE: hisi_blk_lld_dump_busyidle:lld <- $x20
	//DEBUG_VALUE: hisi_blk_dump_lld_status:offset <- $w26
	.loc	4 232 3 is_stmt 1       // kernel/block/hisi-blk-dump.c:232:3
	adrp	x0, .L.str.23
	add	x0, x0, :lo12:.L.str.23
	mov	x1, sp
	bl	printk
.Ltmp234:
	.loc	4 0 0 is_stmt 0         // kernel/block/hisi-blk-dump.c:0:0
	mov	w23, wzr
.Ltmp235:
.LBB5_18:
	//DEBUG_VALUE: __hisi_blk_dump_printf:buf <- $x22
	//DEBUG_VALUE: __hisi_blk_dump_printf:len <- $w27
	//DEBUG_VALUE: hisi_blk_lld_dump_busyidle:buf <- $x22
	//DEBUG_VALUE: hisi_blk_lld_dump_busyidle:len <- $w27
	//DEBUG_VALUE: hisi_blk_lld_dump_busyidle:lld <- $x20
	//DEBUG_VALUE: hisi_blk_dump_lld_status:offset <- $w26
	//DEBUG_VALUE: hisi_blk_lld_dump_busyidle:offset <- $w23
	//DEBUG_VALUE: __hisi_blk_dump_printf:offset <- $w23
	.loc	4 354 24 is_stmt 1      // kernel/block/hisi-blk-dump.c:354:24
	ldr	w8, [x20, #368]
	.loc	4 354 2 is_stmt 0       // kernel/block/hisi-blk-dump.c:354:2
	cmp	w8, #1                  // =1
	b.eq	.LBB5_21
.Ltmp236:
// %bb.19:
	//DEBUG_VALUE: hisi_blk_lld_dump_busyidle:offset <- $w23
	//DEBUG_VALUE: hisi_blk_lld_dump_busyidle:buf <- $x22
	//DEBUG_VALUE: hisi_blk_lld_dump_busyidle:len <- $w27
	//DEBUG_VALUE: hisi_blk_lld_dump_busyidle:lld <- $x20
	//DEBUG_VALUE: hisi_blk_dump_lld_status:offset <- $w26
	cbnz	w8, .LBB5_31
.Ltmp237:
// %bb.20:
	//DEBUG_VALUE: hisi_blk_lld_dump_busyidle:offset <- $w23
	//DEBUG_VALUE: hisi_blk_lld_dump_busyidle:buf <- $x22
	//DEBUG_VALUE: hisi_blk_lld_dump_busyidle:len <- $w27
	//DEBUG_VALUE: hisi_blk_lld_dump_busyidle:lld <- $x20
	//DEBUG_VALUE: hisi_blk_dump_lld_status:offset <- $w26
	.loc	4 356 3 is_stmt 1       // kernel/block/hisi-blk-dump.c:356:3
	adrp	x8, .L.str.34
	add	x8, x8, :lo12:.L.str.34
	b	.LBB5_22
.Ltmp238:
.LBB5_21:
	//DEBUG_VALUE: hisi_blk_lld_dump_busyidle:offset <- $w23
	//DEBUG_VALUE: hisi_blk_lld_dump_busyidle:buf <- $x22
	//DEBUG_VALUE: hisi_blk_lld_dump_busyidle:len <- $w27
	//DEBUG_VALUE: hisi_blk_lld_dump_busyidle:lld <- $x20
	//DEBUG_VALUE: hisi_blk_dump_lld_status:offset <- $w26
	.loc	4 359 3                 // kernel/block/hisi-blk-dump.c:359:3
	adrp	x8, .L.str.35
	add	x8, x8, :lo12:.L.str.35
.Ltmp239:
.LBB5_22:
	//DEBUG_VALUE: hisi_blk_lld_dump_busyidle:offset <- $w23
	//DEBUG_VALUE: hisi_blk_lld_dump_busyidle:buf <- $x22
	//DEBUG_VALUE: hisi_blk_lld_dump_busyidle:len <- $w27
	//DEBUG_VALUE: hisi_blk_lld_dump_busyidle:lld <- $x20
	//DEBUG_VALUE: hisi_blk_dump_lld_status:offset <- $w26
	.loc	4 0 0 is_stmt 0         // kernel/block/hisi-blk-dump.c:0:0
	ldur	x9, [x8, #6]
	ldr	x8, [x8]
	stur	x9, [sp, #6]
	str	x8, [sp]
.Ltmp240:
	.loc	4 364 53 is_stmt 1      // kernel/block/hisi-blk-dump.c:364:53
	sub	w8, w27, w23
.Ltmp241:
	//DEBUG_VALUE: __hisi_blk_dump_printf:offset <- 0
	//DEBUG_VALUE: __hisi_blk_dump_printf:len <- $w8
	.loc	4 229 10                // kernel/block/hisi-blk-dump.c:229:10
	cmp	w8, #1                  // =1
	b.lt	.LBB5_25
.Ltmp242:
// %bb.23:
	//DEBUG_VALUE: __hisi_blk_dump_printf:len <- $w8
	//DEBUG_VALUE: hisi_blk_lld_dump_busyidle:offset <- $w23
	//DEBUG_VALUE: hisi_blk_lld_dump_busyidle:buf <- $x22
	//DEBUG_VALUE: hisi_blk_lld_dump_busyidle:len <- $w27
	//DEBUG_VALUE: hisi_blk_lld_dump_busyidle:lld <- $x20
	//DEBUG_VALUE: hisi_blk_dump_lld_status:offset <- $w26
	.loc	4 0 0 is_stmt 0         // kernel/block/hisi-blk-dump.c:0:0
	add	x0, x22, w23, sxtw
.Ltmp243:
	//DEBUG_VALUE: __hisi_blk_dump_printf:buf <- $x0
	.loc	4 229 10                // kernel/block/hisi-blk-dump.c:229:10
	cbz	x0, .LBB5_25
.Ltmp244:
// %bb.24:
	//DEBUG_VALUE: __hisi_blk_dump_printf:buf <- $x0
	//DEBUG_VALUE: __hisi_blk_dump_printf:len <- $w8
	//DEBUG_VALUE: hisi_blk_lld_dump_busyidle:offset <- $w23
	//DEBUG_VALUE: hisi_blk_lld_dump_busyidle:buf <- $x22
	//DEBUG_VALUE: hisi_blk_lld_dump_busyidle:len <- $w27
	//DEBUG_VALUE: hisi_blk_lld_dump_busyidle:lld <- $x20
	//DEBUG_VALUE: hisi_blk_dump_lld_status:offset <- $w26
	.loc	4 230 13 is_stmt 1      // kernel/block/hisi-blk-dump.c:230:13
	adrp	x2, .L.str.22
	.loc	4 230 27 is_stmt 0      // kernel/block/hisi-blk-dump.c:230:27
	sxtw	x1, w8
	.loc	4 230 13                // kernel/block/hisi-blk-dump.c:230:13
	add	x2, x2, :lo12:.L.str.22
	mov	x3, sp
	bl	snprintf
.Ltmp245:
	//DEBUG_VALUE: __hisi_blk_dump_printf:offset <- $w0
	.loc	4 0 13                  // kernel/block/hisi-blk-dump.c:0:13
	b	.LBB5_26
.Ltmp246:
.LBB5_25:
	//DEBUG_VALUE: __hisi_blk_dump_printf:len <- $w8
	//DEBUG_VALUE: hisi_blk_lld_dump_busyidle:offset <- $w23
	//DEBUG_VALUE: hisi_blk_lld_dump_busyidle:buf <- $x22
	//DEBUG_VALUE: hisi_blk_lld_dump_busyidle:len <- $w27
	//DEBUG_VALUE: hisi_blk_lld_dump_busyidle:lld <- $x20
	//DEBUG_VALUE: hisi_blk_dump_lld_status:offset <- $w26
	.loc	4 232 3 is_stmt 1       // kernel/block/hisi-blk-dump.c:232:3
	adrp	x0, .L.str.23
	add	x0, x0, :lo12:.L.str.23
	mov	x1, sp
	bl	printk
.Ltmp247:
	.loc	4 0 0 is_stmt 0         // kernel/block/hisi-blk-dump.c:0:0
	mov	w0, wzr
.Ltmp248:
.LBB5_26:
	//DEBUG_VALUE: hisi_blk_lld_dump_busyidle:offset <- $w23
	//DEBUG_VALUE: hisi_blk_lld_dump_busyidle:buf <- $x22
	//DEBUG_VALUE: hisi_blk_lld_dump_busyidle:len <- $w27
	//DEBUG_VALUE: hisi_blk_lld_dump_busyidle:lld <- $x20
	//DEBUG_VALUE: hisi_blk_dump_lld_status:offset <- $w26
	//DEBUG_VALUE: __hisi_blk_dump_printf:offset <- $w0
	.loc	129 183 2 is_stmt 1     // kernel/include/linux/compiler.h:183:2
	ldr	w3, [x20, #296]
.Ltmp249:
	.loc	4 366 2                 // kernel/block/hisi-blk-dump.c:366:2
	adrp	x2, .L.str.36
	.loc	4 364 9                 // kernel/block/hisi-blk-dump.c:364:9
	add	w23, w0, w23
.Ltmp250:
	//DEBUG_VALUE: __read_once_size:size <- 4
	//DEBUG_VALUE: __read_once_size:res <- undef
	//DEBUG_VALUE: __read_once_size:p <- [DW_OP_plus_uconst 296, DW_OP_stack_value] $x20
	//DEBUG_VALUE: hisi_blk_lld_dump_busyidle:offset <- $w23
	.loc	4 366 2                 // kernel/block/hisi-blk-dump.c:366:2
	add	x2, x2, :lo12:.L.str.36
	mov	x0, sp
.Ltmp251:
	orr	w1, wzr, #0x200
	bl	snprintf
	.loc	4 368 53                // kernel/block/hisi-blk-dump.c:368:53
	sub	w8, w27, w23
.Ltmp252:
	//DEBUG_VALUE: __hisi_blk_dump_printf:offset <- 0
	//DEBUG_VALUE: __hisi_blk_dump_printf:len <- $w8
	.loc	4 229 10                // kernel/block/hisi-blk-dump.c:229:10
	cmp	w8, #1                  // =1
	b.lt	.LBB5_29
.Ltmp253:
// %bb.27:
	//DEBUG_VALUE: __hisi_blk_dump_printf:len <- $w8
	//DEBUG_VALUE: hisi_blk_lld_dump_busyidle:offset <- $w23
	//DEBUG_VALUE: hisi_blk_lld_dump_busyidle:buf <- $x22
	//DEBUG_VALUE: hisi_blk_lld_dump_busyidle:len <- $w27
	//DEBUG_VALUE: hisi_blk_lld_dump_busyidle:lld <- $x20
	//DEBUG_VALUE: hisi_blk_dump_lld_status:offset <- $w26
	.loc	4 0 0 is_stmt 0         // kernel/block/hisi-blk-dump.c:0:0
	add	x0, x22, w23, sxtw
.Ltmp254:
	//DEBUG_VALUE: __hisi_blk_dump_printf:buf <- $x0
	.loc	4 229 10                // kernel/block/hisi-blk-dump.c:229:10
	cbz	x0, .LBB5_29
.Ltmp255:
// %bb.28:
	//DEBUG_VALUE: __hisi_blk_dump_printf:buf <- $x0
	//DEBUG_VALUE: __hisi_blk_dump_printf:len <- $w8
	//DEBUG_VALUE: hisi_blk_lld_dump_busyidle:offset <- $w23
	//DEBUG_VALUE: hisi_blk_lld_dump_busyidle:buf <- $x22
	//DEBUG_VALUE: hisi_blk_lld_dump_busyidle:len <- $w27
	//DEBUG_VALUE: hisi_blk_lld_dump_busyidle:lld <- $x20
	//DEBUG_VALUE: hisi_blk_dump_lld_status:offset <- $w26
	.loc	4 230 13 is_stmt 1      // kernel/block/hisi-blk-dump.c:230:13
	adrp	x2, .L.str.22
	.loc	4 230 27 is_stmt 0      // kernel/block/hisi-blk-dump.c:230:27
	sxtw	x1, w8
	.loc	4 230 13                // kernel/block/hisi-blk-dump.c:230:13
	add	x2, x2, :lo12:.L.str.22
	mov	x3, sp
	bl	snprintf
.Ltmp256:
	//DEBUG_VALUE: __hisi_blk_dump_printf:offset <- $w0
	.loc	4 0 13                  // kernel/block/hisi-blk-dump.c:0:13
	b	.LBB5_30
.Ltmp257:
.LBB5_29:
	//DEBUG_VALUE: __hisi_blk_dump_printf:len <- $w8
	//DEBUG_VALUE: hisi_blk_lld_dump_busyidle:offset <- $w23
	//DEBUG_VALUE: hisi_blk_lld_dump_busyidle:buf <- $x22
	//DEBUG_VALUE: hisi_blk_lld_dump_busyidle:len <- $w27
	//DEBUG_VALUE: hisi_blk_lld_dump_busyidle:lld <- $x20
	//DEBUG_VALUE: hisi_blk_dump_lld_status:offset <- $w26
	.loc	4 232 3 is_stmt 1       // kernel/block/hisi-blk-dump.c:232:3
	adrp	x0, .L.str.23
	add	x0, x0, :lo12:.L.str.23
	mov	x1, sp
	bl	printk
.Ltmp258:
	.loc	4 0 0 is_stmt 0         // kernel/block/hisi-blk-dump.c:0:0
	mov	w0, wzr
.Ltmp259:
.LBB5_30:
	//DEBUG_VALUE: hisi_blk_lld_dump_busyidle:offset <- $w23
	//DEBUG_VALUE: hisi_blk_lld_dump_busyidle:buf <- $x22
	//DEBUG_VALUE: hisi_blk_lld_dump_busyidle:len <- $w27
	//DEBUG_VALUE: hisi_blk_lld_dump_busyidle:lld <- $x20
	//DEBUG_VALUE: hisi_blk_dump_lld_status:offset <- $w26
	//DEBUG_VALUE: __hisi_blk_dump_printf:offset <- $w0
	.loc	4 368 9 is_stmt 1       // kernel/block/hisi-blk-dump.c:368:9
	add	w23, w0, w23
.Ltmp260:
	//DEBUG_VALUE: hisi_blk_lld_dump_busyidle:offset <- $w23
.LBB5_31:
	//DEBUG_VALUE: hisi_blk_dump_lld_status:offset <- $w26
	.loc	4 331 2                 // kernel/block/hisi-blk-dump.c:331:2
	adrp	x8, .L.str.37
	add	x8, x8, :lo12:.L.str.37
	ldp	x9, x8, [x8]
.Ltmp261:
	.loc	4 427 9                 // kernel/block/hisi-blk-dump.c:427:9
	add	w26, w23, w26
.Ltmp262:
	//DEBUG_VALUE: hisi_blk_dump_lld_status:offset <- $w26
	.loc	4 429 26                // kernel/block/hisi-blk-dump.c:429:26
	sub	w27, w21, w26
.Ltmp263:
	//DEBUG_VALUE: hisi_blk_lld_dump_ioscheduler:offset <- 0
	//DEBUG_VALUE: hisi_blk_lld_dump_ioscheduler:lld <- $x20
	//DEBUG_VALUE: hisi_blk_lld_dump_ioscheduler:len <- $w27
	//DEBUG_VALUE: __hisi_blk_dump_printf:len <- $w27
	//DEBUG_VALUE: hisi_blk_lld_dump_ioscheduler:buf <- $x23
	//DEBUG_VALUE: __hisi_blk_dump_printf:buf <- $x23
	.loc	4 429 12 is_stmt 0      // kernel/block/hisi-blk-dump.c:429:12
	add	x23, x19, w26, sxtw
.Ltmp264:
	.loc	4 229 10 is_stmt 1      // kernel/block/hisi-blk-dump.c:229:10
	cmp	w27, #1                 // =1
.Ltmp265:
	.loc	4 331 2                 // kernel/block/hisi-blk-dump.c:331:2
	stp	x9, x8, [sp]
.Ltmp266:
	//DEBUG_VALUE: __hisi_blk_dump_printf:offset <- 0
	//DEBUG_VALUE: __hisi_blk_dump_printf:buf <- $x23
	//DEBUG_VALUE: __hisi_blk_dump_printf:len <- $w27
	.loc	4 229 10                // kernel/block/hisi-blk-dump.c:229:10
	b.lt	.LBB5_35
.Ltmp267:
// %bb.32:
	//DEBUG_VALUE: __hisi_blk_dump_printf:buf <- $x23
	//DEBUG_VALUE: __hisi_blk_dump_printf:len <- $w27
	//DEBUG_VALUE: hisi_blk_lld_dump_ioscheduler:len <- $w27
	//DEBUG_VALUE: hisi_blk_lld_dump_ioscheduler:lld <- $x20
	//DEBUG_VALUE: hisi_blk_dump_lld_status:offset <- $w26
	cbz	x23, .LBB5_35
.Ltmp268:
// %bb.33:
	//DEBUG_VALUE: __hisi_blk_dump_printf:buf <- $x23
	//DEBUG_VALUE: __hisi_blk_dump_printf:len <- $w27
	//DEBUG_VALUE: hisi_blk_lld_dump_ioscheduler:len <- $w27
	//DEBUG_VALUE: hisi_blk_lld_dump_ioscheduler:lld <- $x20
	//DEBUG_VALUE: hisi_blk_dump_lld_status:offset <- $w26
	.loc	4 230 13                // kernel/block/hisi-blk-dump.c:230:13
	adrp	x2, .L.str.22
	.loc	4 230 27 is_stmt 0      // kernel/block/hisi-blk-dump.c:230:27
	sxtw	x1, w27
	.loc	4 230 13                // kernel/block/hisi-blk-dump.c:230:13
	add	x2, x2, :lo12:.L.str.22
	mov	x3, sp
	mov	x0, x23
	bl	snprintf
	mov	w22, w0
.Ltmp269:
	//DEBUG_VALUE: __hisi_blk_dump_printf:offset <- $w22
	//DEBUG_VALUE: hisi_blk_lld_dump_ioscheduler:offset <- $w22
	//DEBUG_VALUE: __hisi_blk_dump_printf:offset <- $w22
	.loc	4 334 6 is_stmt 1       // kernel/block/hisi-blk-dump.c:334:6
	ldrb	w8, [x20, #24]
	tbz	w8, #5, .LBB5_36
.Ltmp270:
.LBB5_34:
	//DEBUG_VALUE: hisi_blk_lld_dump_ioscheduler:offset <- $w22
	//DEBUG_VALUE: hisi_blk_lld_dump_ioscheduler:len <- $w27
	//DEBUG_VALUE: hisi_blk_lld_dump_ioscheduler:lld <- $x20
	//DEBUG_VALUE: hisi_blk_dump_lld_status:offset <- $w26
	.loc	4 335 3                 // kernel/block/hisi-blk-dump.c:335:3
	adrp	x8, .L.str.38
	add	x8, x8, :lo12:.L.str.38
	ldr	x8, [x8]
	strb	wzr, [sp, #8]
	b	.LBB5_37
.Ltmp271:
.LBB5_35:
	//DEBUG_VALUE: __hisi_blk_dump_printf:buf <- $x23
	//DEBUG_VALUE: __hisi_blk_dump_printf:len <- $w27
	//DEBUG_VALUE: hisi_blk_lld_dump_ioscheduler:len <- $w27
	//DEBUG_VALUE: hisi_blk_lld_dump_ioscheduler:lld <- $x20
	//DEBUG_VALUE: hisi_blk_dump_lld_status:offset <- $w26
	.loc	4 232 3                 // kernel/block/hisi-blk-dump.c:232:3
	adrp	x0, .L.str.23
	add	x0, x0, :lo12:.L.str.23
	mov	x1, sp
	bl	printk
.Ltmp272:
	.loc	4 0 0 is_stmt 0         // kernel/block/hisi-blk-dump.c:0:0
	mov	w22, wzr
.Ltmp273:
	//DEBUG_VALUE: hisi_blk_lld_dump_ioscheduler:offset <- $w22
	//DEBUG_VALUE: __hisi_blk_dump_printf:offset <- $w22
	.loc	4 334 6 is_stmt 1       // kernel/block/hisi-blk-dump.c:334:6
	ldrb	w8, [x20, #24]
	tbnz	w8, #5, .LBB5_34
.Ltmp274:
.LBB5_36:
	//DEBUG_VALUE: hisi_blk_lld_dump_ioscheduler:offset <- $w22
	//DEBUG_VALUE: hisi_blk_lld_dump_ioscheduler:len <- $w27
	//DEBUG_VALUE: hisi_blk_lld_dump_ioscheduler:lld <- $x20
	//DEBUG_VALUE: hisi_blk_dump_lld_status:offset <- $w26
	.loc	4 337 3                 // kernel/block/hisi-blk-dump.c:337:3
	adrp	x8, .L.str.39
	add	x8, x8, :lo12:.L.str.39
	ldp	x8, x9, [x8]
	mov	w10, #29285
	movk	w10, #10, lsl #16
	stur	w10, [sp, #15]
	str	x9, [sp, #8]
.Ltmp275:
.LBB5_37:
	//DEBUG_VALUE: hisi_blk_lld_dump_ioscheduler:offset <- $w22
	//DEBUG_VALUE: hisi_blk_lld_dump_ioscheduler:len <- $w27
	//DEBUG_VALUE: hisi_blk_lld_dump_ioscheduler:lld <- $x20
	//DEBUG_VALUE: hisi_blk_dump_lld_status:offset <- $w26
	.loc	4 0 0 is_stmt 0         // kernel/block/hisi-blk-dump.c:0:0
	str	x8, [sp]
.Ltmp276:
	.loc	4 338 53 is_stmt 1      // kernel/block/hisi-blk-dump.c:338:53
	sub	w8, w27, w22
.Ltmp277:
	//DEBUG_VALUE: __hisi_blk_dump_printf:offset <- 0
	//DEBUG_VALUE: __hisi_blk_dump_printf:len <- $w8
	.loc	4 229 10                // kernel/block/hisi-blk-dump.c:229:10
	cmp	w8, #1                  // =1
	b.lt	.LBB5_40
.Ltmp278:
// %bb.38:
	//DEBUG_VALUE: __hisi_blk_dump_printf:len <- $w8
	//DEBUG_VALUE: hisi_blk_lld_dump_ioscheduler:offset <- $w22
	//DEBUG_VALUE: hisi_blk_lld_dump_ioscheduler:len <- $w27
	//DEBUG_VALUE: hisi_blk_lld_dump_ioscheduler:lld <- $x20
	//DEBUG_VALUE: hisi_blk_dump_lld_status:offset <- $w26
	.loc	4 0 0 is_stmt 0         // kernel/block/hisi-blk-dump.c:0:0
	add	x0, x23, w22, sxtw
.Ltmp279:
	//DEBUG_VALUE: __hisi_blk_dump_printf:buf <- $x0
	.loc	4 229 10                // kernel/block/hisi-blk-dump.c:229:10
	cbz	x0, .LBB5_40
.Ltmp280:
// %bb.39:
	//DEBUG_VALUE: __hisi_blk_dump_printf:buf <- $x0
	//DEBUG_VALUE: __hisi_blk_dump_printf:len <- $w8
	//DEBUG_VALUE: hisi_blk_lld_dump_ioscheduler:offset <- $w22
	//DEBUG_VALUE: hisi_blk_lld_dump_ioscheduler:len <- $w27
	//DEBUG_VALUE: hisi_blk_lld_dump_ioscheduler:lld <- $x20
	//DEBUG_VALUE: hisi_blk_dump_lld_status:offset <- $w26
	.loc	4 230 13 is_stmt 1      // kernel/block/hisi-blk-dump.c:230:13
	adrp	x2, .L.str.22
	.loc	4 230 27 is_stmt 0      // kernel/block/hisi-blk-dump.c:230:27
	sxtw	x1, w8
	.loc	4 230 13                // kernel/block/hisi-blk-dump.c:230:13
	add	x2, x2, :lo12:.L.str.22
	mov	x3, sp
	bl	snprintf
.Ltmp281:
	//DEBUG_VALUE: __hisi_blk_dump_printf:offset <- $w0
	.loc	4 0 13                  // kernel/block/hisi-blk-dump.c:0:13
	b	.LBB5_41
.Ltmp282:
.LBB5_40:
	//DEBUG_VALUE: __hisi_blk_dump_printf:len <- $w8
	//DEBUG_VALUE: hisi_blk_lld_dump_ioscheduler:offset <- $w22
	//DEBUG_VALUE: hisi_blk_lld_dump_ioscheduler:len <- $w27
	//DEBUG_VALUE: hisi_blk_lld_dump_ioscheduler:lld <- $x20
	//DEBUG_VALUE: hisi_blk_dump_lld_status:offset <- $w26
	.loc	4 232 3 is_stmt 1       // kernel/block/hisi-blk-dump.c:232:3
	adrp	x0, .L.str.23
	add	x0, x0, :lo12:.L.str.23
	mov	x1, sp
	bl	printk
.Ltmp283:
	.loc	4 0 0 is_stmt 0         // kernel/block/hisi-blk-dump.c:0:0
	mov	w0, wzr
.Ltmp284:
.LBB5_41:
	//DEBUG_VALUE: hisi_blk_lld_dump_ioscheduler:offset <- $w22
	//DEBUG_VALUE: hisi_blk_lld_dump_ioscheduler:len <- $w27
	//DEBUG_VALUE: hisi_blk_lld_dump_ioscheduler:lld <- $x20
	//DEBUG_VALUE: hisi_blk_dump_lld_status:offset <- $w26
	//DEBUG_VALUE: hisi_blk_lld_dump_ioscheduler:offset <- undef
	//DEBUG_VALUE: __hisi_blk_dump_printf:offset <- $w0
	.loc	4 380 9 is_stmt 1       // kernel/block/hisi-blk-dump.c:380:9
	ldr	x9, [x20, #24]
.Ltmp285:
	.loc	4 338 9                 // kernel/block/hisi-blk-dump.c:338:9
	add	w8, w22, w26
.Ltmp286:
	.loc	4 379 2                 // kernel/block/hisi-blk-dump.c:379:2
	adrp	x2, .L.str.26
.Ltmp287:
	.loc	4 428 9                 // kernel/block/hisi-blk-dump.c:428:9
	add	w23, w8, w0
.Ltmp288:
	//DEBUG_VALUE: hisi_blk_dump_lld_status:offset <- $w23
	.loc	4 380 4                 // kernel/block/hisi-blk-dump.c:380:4
	tst	x9, #0x4
	csel	x3, x25, x24, eq
	.loc	4 379 2                 // kernel/block/hisi-blk-dump.c:379:2
	add	x2, x2, :lo12:.L.str.26
	mov	x0, sp
.Ltmp289:
	orr	w1, wzr, #0x200
.Ltmp290:
	.loc	4 431 12                // kernel/block/hisi-blk-dump.c:431:12
	add	x22, x19, w23, sxtw
	.loc	4 431 26 is_stmt 0      // kernel/block/hisi-blk-dump.c:431:26
	sub	w26, w21, w23
.Ltmp291:
	//DEBUG_VALUE: hisi_blk_lld_dump_opt_feature:offset <- 0
	//DEBUG_VALUE: hisi_blk_lld_dump_opt_feature:lld <- $x20
	//DEBUG_VALUE: hisi_blk_lld_dump_opt_feature:len <- $w26
	//DEBUG_VALUE: hisi_blk_lld_dump_opt_feature:buf <- $x22
	.loc	4 379 2 is_stmt 1       // kernel/block/hisi-blk-dump.c:379:2
	bl	snprintf
.Ltmp292:
	//DEBUG_VALUE: __hisi_blk_dump_printf:offset <- 0
	//DEBUG_VALUE: __hisi_blk_dump_printf:len <- $w26
	//DEBUG_VALUE: __hisi_blk_dump_printf:buf <- $x22
	.loc	4 229 10                // kernel/block/hisi-blk-dump.c:229:10
	cmp	w26, #1                 // =1
	b.lt	.LBB5_44
.Ltmp293:
// %bb.42:
	//DEBUG_VALUE: __hisi_blk_dump_printf:buf <- $x22
	//DEBUG_VALUE: __hisi_blk_dump_printf:len <- $w26
	//DEBUG_VALUE: hisi_blk_lld_dump_opt_feature:buf <- $x22
	//DEBUG_VALUE: hisi_blk_lld_dump_opt_feature:len <- $w26
	//DEBUG_VALUE: hisi_blk_lld_dump_opt_feature:lld <- $x20
	//DEBUG_VALUE: hisi_blk_dump_lld_status:offset <- $w23
	cbz	x22, .LBB5_44
.Ltmp294:
// %bb.43:
	//DEBUG_VALUE: __hisi_blk_dump_printf:buf <- $x22
	//DEBUG_VALUE: __hisi_blk_dump_printf:len <- $w26
	//DEBUG_VALUE: hisi_blk_lld_dump_opt_feature:buf <- $x22
	//DEBUG_VALUE: hisi_blk_lld_dump_opt_feature:len <- $w26
	//DEBUG_VALUE: hisi_blk_lld_dump_opt_feature:lld <- $x20
	//DEBUG_VALUE: hisi_blk_dump_lld_status:offset <- $w23
	.loc	4 230 13                // kernel/block/hisi-blk-dump.c:230:13
	adrp	x2, .L.str.22
	.loc	4 230 27 is_stmt 0      // kernel/block/hisi-blk-dump.c:230:27
	sxtw	x1, w26
	.loc	4 230 13                // kernel/block/hisi-blk-dump.c:230:13
	add	x2, x2, :lo12:.L.str.22
	mov	x3, sp
	mov	x0, x22
	bl	snprintf
	mov	w21, w0
.Ltmp295:
	//DEBUG_VALUE: __hisi_blk_dump_printf:offset <- $w21
	.loc	4 0 13                  // kernel/block/hisi-blk-dump.c:0:13
	b	.LBB5_45
.Ltmp296:
.LBB5_44:
	//DEBUG_VALUE: __hisi_blk_dump_printf:buf <- $x22
	//DEBUG_VALUE: __hisi_blk_dump_printf:len <- $w26
	//DEBUG_VALUE: hisi_blk_lld_dump_opt_feature:buf <- $x22
	//DEBUG_VALUE: hisi_blk_lld_dump_opt_feature:len <- $w26
	//DEBUG_VALUE: hisi_blk_lld_dump_opt_feature:lld <- $x20
	//DEBUG_VALUE: hisi_blk_dump_lld_status:offset <- $w23
	.loc	4 232 3 is_stmt 1       // kernel/block/hisi-blk-dump.c:232:3
	adrp	x0, .L.str.23
	add	x0, x0, :lo12:.L.str.23
	mov	x1, sp
	bl	printk
.Ltmp297:
	.loc	4 0 0 is_stmt 0         // kernel/block/hisi-blk-dump.c:0:0
	mov	w21, wzr
.Ltmp298:
.LBB5_45:
	//DEBUG_VALUE: __hisi_blk_dump_printf:buf <- $x22
	//DEBUG_VALUE: __hisi_blk_dump_printf:len <- $w26
	//DEBUG_VALUE: hisi_blk_lld_dump_opt_feature:buf <- $x22
	//DEBUG_VALUE: hisi_blk_lld_dump_opt_feature:len <- $w26
	//DEBUG_VALUE: hisi_blk_lld_dump_opt_feature:lld <- $x20
	//DEBUG_VALUE: hisi_blk_dump_lld_status:offset <- $w23
	//DEBUG_VALUE: hisi_blk_lld_dump_opt_feature:offset <- $w21
	//DEBUG_VALUE: __hisi_blk_dump_printf:offset <- $w21
	.loc	4 385 8 is_stmt 1       // kernel/block/hisi-blk-dump.c:385:8
	ldr	x8, [x20, #24]
	.loc	4 384 2                 // kernel/block/hisi-blk-dump.c:384:2
	adrp	x2, .L.str.40
	add	x2, x2, :lo12:.L.str.40
	mov	x0, sp
	.loc	4 385 3                 // kernel/block/hisi-blk-dump.c:385:3
	tst	x8, #0x10
	csel	x3, x25, x24, eq
	.loc	4 384 2                 // kernel/block/hisi-blk-dump.c:384:2
	orr	w1, wzr, #0x200
	bl	snprintf
	.loc	4 387 53                // kernel/block/hisi-blk-dump.c:387:53
	sub	w8, w26, w21
.Ltmp299:
	//DEBUG_VALUE: __hisi_blk_dump_printf:offset <- 0
	//DEBUG_VALUE: __hisi_blk_dump_printf:len <- $w8
	.loc	4 229 10                // kernel/block/hisi-blk-dump.c:229:10
	cmp	w8, #1                  // =1
	b.lt	.LBB5_48
.Ltmp300:
// %bb.46:
	//DEBUG_VALUE: __hisi_blk_dump_printf:len <- $w8
	//DEBUG_VALUE: hisi_blk_lld_dump_opt_feature:offset <- $w21
	//DEBUG_VALUE: hisi_blk_lld_dump_opt_feature:buf <- $x22
	//DEBUG_VALUE: hisi_blk_lld_dump_opt_feature:len <- $w26
	//DEBUG_VALUE: hisi_blk_lld_dump_opt_feature:lld <- $x20
	//DEBUG_VALUE: hisi_blk_dump_lld_status:offset <- $w23
	.loc	4 0 0 is_stmt 0         // kernel/block/hisi-blk-dump.c:0:0
	add	x0, x22, w21, sxtw
.Ltmp301:
	//DEBUG_VALUE: __hisi_blk_dump_printf:buf <- $x0
	.loc	4 229 10                // kernel/block/hisi-blk-dump.c:229:10
	cbz	x0, .LBB5_48
.Ltmp302:
// %bb.47:
	//DEBUG_VALUE: __hisi_blk_dump_printf:buf <- $x0
	//DEBUG_VALUE: __hisi_blk_dump_printf:len <- $w8
	//DEBUG_VALUE: hisi_blk_lld_dump_opt_feature:offset <- $w21
	//DEBUG_VALUE: hisi_blk_lld_dump_opt_feature:buf <- $x22
	//DEBUG_VALUE: hisi_blk_lld_dump_opt_feature:len <- $w26
	//DEBUG_VALUE: hisi_blk_lld_dump_opt_feature:lld <- $x20
	//DEBUG_VALUE: hisi_blk_dump_lld_status:offset <- $w23
	.loc	4 230 13 is_stmt 1      // kernel/block/hisi-blk-dump.c:230:13
	adrp	x2, .L.str.22
	.loc	4 230 27 is_stmt 0      // kernel/block/hisi-blk-dump.c:230:27
	sxtw	x1, w8
	.loc	4 230 13                // kernel/block/hisi-blk-dump.c:230:13
	add	x2, x2, :lo12:.L.str.22
	mov	x3, sp
	bl	snprintf
.Ltmp303:
	//DEBUG_VALUE: __hisi_blk_dump_printf:offset <- $w0
	.loc	4 0 13                  // kernel/block/hisi-blk-dump.c:0:13
	b	.LBB5_49
.Ltmp304:
.LBB5_48:
	//DEBUG_VALUE: __hisi_blk_dump_printf:len <- $w8
	//DEBUG_VALUE: hisi_blk_lld_dump_opt_feature:offset <- $w21
	//DEBUG_VALUE: hisi_blk_lld_dump_opt_feature:buf <- $x22
	//DEBUG_VALUE: hisi_blk_lld_dump_opt_feature:len <- $w26
	//DEBUG_VALUE: hisi_blk_lld_dump_opt_feature:lld <- $x20
	//DEBUG_VALUE: hisi_blk_dump_lld_status:offset <- $w23
	.loc	4 232 3 is_stmt 1       // kernel/block/hisi-blk-dump.c:232:3
	adrp	x0, .L.str.23
	add	x0, x0, :lo12:.L.str.23
	mov	x1, sp
	bl	printk
.Ltmp305:
	.loc	4 0 0 is_stmt 0         // kernel/block/hisi-blk-dump.c:0:0
	mov	w0, wzr
.Ltmp306:
.LBB5_49:
	//DEBUG_VALUE: hisi_blk_lld_dump_opt_feature:offset <- $w21
	//DEBUG_VALUE: hisi_blk_lld_dump_opt_feature:buf <- $x22
	//DEBUG_VALUE: hisi_blk_lld_dump_opt_feature:len <- $w26
	//DEBUG_VALUE: hisi_blk_lld_dump_opt_feature:lld <- $x20
	//DEBUG_VALUE: hisi_blk_dump_lld_status:offset <- $w23
	//DEBUG_VALUE: __hisi_blk_dump_printf:offset <- $w0
	.loc	4 390 8 is_stmt 1       // kernel/block/hisi-blk-dump.c:390:8
	ldr	x8, [x20, #24]
	.loc	4 389 2                 // kernel/block/hisi-blk-dump.c:389:2
	adrp	x2, .L.str.41
	.loc	4 387 9                 // kernel/block/hisi-blk-dump.c:387:9
	add	w21, w0, w21
.Ltmp307:
	//DEBUG_VALUE: hisi_blk_lld_dump_opt_feature:offset <- $w21
	.loc	4 389 2                 // kernel/block/hisi-blk-dump.c:389:2
	add	x2, x2, :lo12:.L.str.41
	.loc	4 390 3                 // kernel/block/hisi-blk-dump.c:390:3
	tst	x8, #0x80
	csel	x3, x25, x24, eq
	.loc	4 389 2                 // kernel/block/hisi-blk-dump.c:389:2
	mov	x0, sp
.Ltmp308:
	orr	w1, wzr, #0x200
	bl	snprintf
	.loc	4 391 53                // kernel/block/hisi-blk-dump.c:391:53
	sub	w8, w26, w21
.Ltmp309:
	//DEBUG_VALUE: __hisi_blk_dump_printf:offset <- 0
	//DEBUG_VALUE: __hisi_blk_dump_printf:len <- $w8
	.loc	4 229 10                // kernel/block/hisi-blk-dump.c:229:10
	cmp	w8, #1                  // =1
	b.lt	.LBB5_52
.Ltmp310:
// %bb.50:
	//DEBUG_VALUE: __hisi_blk_dump_printf:len <- $w8
	//DEBUG_VALUE: hisi_blk_lld_dump_opt_feature:offset <- $w21
	//DEBUG_VALUE: hisi_blk_lld_dump_opt_feature:buf <- $x22
	//DEBUG_VALUE: hisi_blk_lld_dump_opt_feature:len <- $w26
	//DEBUG_VALUE: hisi_blk_lld_dump_opt_feature:lld <- $x20
	//DEBUG_VALUE: hisi_blk_dump_lld_status:offset <- $w23
	.loc	4 0 0 is_stmt 0         // kernel/block/hisi-blk-dump.c:0:0
	add	x0, x22, w21, sxtw
.Ltmp311:
	//DEBUG_VALUE: __hisi_blk_dump_printf:buf <- $x0
	.loc	4 229 10                // kernel/block/hisi-blk-dump.c:229:10
	cbz	x0, .LBB5_52
.Ltmp312:
// %bb.51:
	//DEBUG_VALUE: __hisi_blk_dump_printf:buf <- $x0
	//DEBUG_VALUE: __hisi_blk_dump_printf:len <- $w8
	//DEBUG_VALUE: hisi_blk_lld_dump_opt_feature:offset <- $w21
	//DEBUG_VALUE: hisi_blk_lld_dump_opt_feature:buf <- $x22
	//DEBUG_VALUE: hisi_blk_lld_dump_opt_feature:len <- $w26
	//DEBUG_VALUE: hisi_blk_lld_dump_opt_feature:lld <- $x20
	//DEBUG_VALUE: hisi_blk_dump_lld_status:offset <- $w23
	.loc	4 230 13 is_stmt 1      // kernel/block/hisi-blk-dump.c:230:13
	adrp	x2, .L.str.22
	.loc	4 230 27 is_stmt 0      // kernel/block/hisi-blk-dump.c:230:27
	sxtw	x1, w8
	.loc	4 230 13                // kernel/block/hisi-blk-dump.c:230:13
	add	x2, x2, :lo12:.L.str.22
	mov	x3, sp
	bl	snprintf
.Ltmp313:
	//DEBUG_VALUE: __hisi_blk_dump_printf:offset <- $w0
	.loc	4 0 13                  // kernel/block/hisi-blk-dump.c:0:13
	b	.LBB5_53
.Ltmp314:
.LBB5_52:
	//DEBUG_VALUE: __hisi_blk_dump_printf:len <- $w8
	//DEBUG_VALUE: hisi_blk_lld_dump_opt_feature:offset <- $w21
	//DEBUG_VALUE: hisi_blk_lld_dump_opt_feature:buf <- $x22
	//DEBUG_VALUE: hisi_blk_lld_dump_opt_feature:len <- $w26
	//DEBUG_VALUE: hisi_blk_lld_dump_opt_feature:lld <- $x20
	//DEBUG_VALUE: hisi_blk_dump_lld_status:offset <- $w23
	.loc	4 232 3 is_stmt 1       // kernel/block/hisi-blk-dump.c:232:3
	adrp	x0, .L.str.23
	add	x0, x0, :lo12:.L.str.23
	mov	x1, sp
	bl	printk
.Ltmp315:
	.loc	4 0 0 is_stmt 0         // kernel/block/hisi-blk-dump.c:0:0
	mov	w0, wzr
.Ltmp316:
.LBB5_53:
	//DEBUG_VALUE: hisi_blk_lld_dump_opt_feature:offset <- $w21
	//DEBUG_VALUE: hisi_blk_lld_dump_opt_feature:buf <- $x22
	//DEBUG_VALUE: hisi_blk_lld_dump_opt_feature:len <- $w26
	//DEBUG_VALUE: hisi_blk_lld_dump_opt_feature:lld <- $x20
	//DEBUG_VALUE: hisi_blk_dump_lld_status:offset <- $w23
	//DEBUG_VALUE: __hisi_blk_dump_printf:offset <- $w0
	.loc	4 394 8 is_stmt 1       // kernel/block/hisi-blk-dump.c:394:8
	ldr	x8, [x20, #24]
	.loc	4 393 2                 // kernel/block/hisi-blk-dump.c:393:2
	adrp	x2, .L.str.42
	.loc	4 391 9                 // kernel/block/hisi-blk-dump.c:391:9
	add	w20, w0, w21
.Ltmp317:
	//DEBUG_VALUE: hisi_blk_lld_dump_opt_feature:offset <- $w20
	.loc	4 393 2                 // kernel/block/hisi-blk-dump.c:393:2
	add	x2, x2, :lo12:.L.str.42
	.loc	4 394 3                 // kernel/block/hisi-blk-dump.c:394:3
	tst	x8, #0x100
	csel	x3, x25, x24, eq
	.loc	4 393 2                 // kernel/block/hisi-blk-dump.c:393:2
	mov	x0, sp
.Ltmp318:
	orr	w1, wzr, #0x200
	bl	snprintf
	.loc	4 395 53                // kernel/block/hisi-blk-dump.c:395:53
	sub	w8, w26, w20
.Ltmp319:
	//DEBUG_VALUE: __hisi_blk_dump_printf:offset <- 0
	//DEBUG_VALUE: __hisi_blk_dump_printf:len <- $w8
	.loc	4 229 10                // kernel/block/hisi-blk-dump.c:229:10
	cmp	w8, #1                  // =1
	b.lt	.LBB5_56
.Ltmp320:
// %bb.54:
	//DEBUG_VALUE: __hisi_blk_dump_printf:len <- $w8
	//DEBUG_VALUE: hisi_blk_lld_dump_opt_feature:offset <- $w20
	//DEBUG_VALUE: hisi_blk_lld_dump_opt_feature:buf <- $x22
	//DEBUG_VALUE: hisi_blk_lld_dump_opt_feature:len <- $w26
	//DEBUG_VALUE: hisi_blk_dump_lld_status:offset <- $w23
	.loc	4 0 0 is_stmt 0         // kernel/block/hisi-blk-dump.c:0:0
	add	x0, x22, w20, sxtw
.Ltmp321:
	//DEBUG_VALUE: __hisi_blk_dump_printf:buf <- $x0
	.loc	4 229 10                // kernel/block/hisi-blk-dump.c:229:10
	cbz	x0, .LBB5_56
.Ltmp322:
// %bb.55:
	//DEBUG_VALUE: __hisi_blk_dump_printf:buf <- $x0
	//DEBUG_VALUE: __hisi_blk_dump_printf:len <- $w8
	//DEBUG_VALUE: hisi_blk_lld_dump_opt_feature:offset <- $w20
	//DEBUG_VALUE: hisi_blk_lld_dump_opt_feature:buf <- $x22
	//DEBUG_VALUE: hisi_blk_lld_dump_opt_feature:len <- $w26
	//DEBUG_VALUE: hisi_blk_dump_lld_status:offset <- $w23
	.loc	4 230 13 is_stmt 1      // kernel/block/hisi-blk-dump.c:230:13
	adrp	x2, .L.str.22
	.loc	4 230 27 is_stmt 0      // kernel/block/hisi-blk-dump.c:230:27
	sxtw	x1, w8
	.loc	4 230 13                // kernel/block/hisi-blk-dump.c:230:13
	add	x2, x2, :lo12:.L.str.22
	mov	x3, sp
	bl	snprintf
.Ltmp323:
	//DEBUG_VALUE: __hisi_blk_dump_printf:offset <- $w0
	.loc	4 0 13                  // kernel/block/hisi-blk-dump.c:0:13
	b	.LBB5_57
.Ltmp324:
.LBB5_56:
	//DEBUG_VALUE: __hisi_blk_dump_printf:len <- $w8
	//DEBUG_VALUE: hisi_blk_lld_dump_opt_feature:offset <- $w20
	//DEBUG_VALUE: hisi_blk_lld_dump_opt_feature:buf <- $x22
	//DEBUG_VALUE: hisi_blk_lld_dump_opt_feature:len <- $w26
	//DEBUG_VALUE: hisi_blk_dump_lld_status:offset <- $w23
	.loc	4 232 3 is_stmt 1       // kernel/block/hisi-blk-dump.c:232:3
	adrp	x0, .L.str.23
	add	x0, x0, :lo12:.L.str.23
	mov	x1, sp
	bl	printk
.Ltmp325:
	.loc	4 0 0 is_stmt 0         // kernel/block/hisi-blk-dump.c:0:0
	mov	w0, wzr
.Ltmp326:
.LBB5_57:
	//DEBUG_VALUE: hisi_blk_lld_dump_opt_feature:offset <- $w20
	//DEBUG_VALUE: hisi_blk_lld_dump_opt_feature:buf <- $x22
	//DEBUG_VALUE: hisi_blk_lld_dump_opt_feature:len <- $w26
	//DEBUG_VALUE: hisi_blk_dump_lld_status:offset <- $w23
	//DEBUG_VALUE: hisi_blk_lld_dump_opt_feature:offset <- undef
	//DEBUG_VALUE: __hisi_blk_dump_printf:offset <- $w0
	.loc	4 395 9 is_stmt 1       // kernel/block/hisi-blk-dump.c:395:9
	add	w8, w20, w23
.Ltmp327:
	.loc	4 430 9                 // kernel/block/hisi-blk-dump.c:430:9
	add	w0, w8, w0
.Ltmp328:
	//DEBUG_VALUE: hisi_blk_dump_lld_status:offset <- $w0
	.loc	4 432 6                 // kernel/block/hisi-blk-dump.c:432:6
	cbz	x19, .LBB5_59
.Ltmp329:
// %bb.58:
	//DEBUG_VALUE: hisi_blk_dump_lld_status:offset <- $w0
	.loc	4 433 15                // kernel/block/hisi-blk-dump.c:433:15
	strb	wzr, [x19, w0, sxtw]
.Ltmp330:
.LBB5_59:
	//DEBUG_VALUE: hisi_blk_dump_lld_status:offset <- $w0
	.loc	4 0 15 is_stmt 0        // kernel/block/hisi-blk-dump.c:0:15
	adrp	x9, __stack_chk_guard
	ldur	x8, [x29, #-96]
	ldr	x9, [x9, :lo12:__stack_chk_guard]
	cmp	x9, x8
	b.ne	.LBB5_61
.Ltmp331:
// %bb.60:
	//DEBUG_VALUE: hisi_blk_dump_lld_status:offset <- $w0
	.loc	4 435 2 is_stmt 1       // kernel/block/hisi-blk-dump.c:435:2
	add	sp, sp, #528            // =528
	ldp	x29, x30, [sp, #80]     // 16-byte Folded Reload
	ldp	x20, x19, [sp, #64]     // 16-byte Folded Reload
	ldp	x22, x21, [sp, #48]     // 16-byte Folded Reload
	ldp	x24, x23, [sp, #32]     // 16-byte Folded Reload
	ldp	x26, x25, [sp, #16]     // 16-byte Folded Reload
	ldp	x28, x27, [sp], #96     // 16-byte Folded Reload
	ret
.Ltmp332:
.LBB5_61:
	//DEBUG_VALUE: hisi_blk_dump_lld_status:offset <- $w0
	.loc	4 0 2 is_stmt 0         // kernel/block/hisi-blk-dump.c:0:2
	bl	__stack_chk_fail
.Ltmp333:
.Lfunc_end5:
	.size	hisi_blk_dump_lld_status, .Lfunc_end5-hisi_blk_dump_lld_status
	.cfi_endproc
                                        // -- End function
	.globl	hisi_blk_panic_notify   // -- Begin function hisi_blk_panic_notify
	.p2align	2
	.type	hisi_blk_panic_notify,@function
hisi_blk_panic_notify:                  // @hisi_blk_panic_notify
.Lfunc_begin6:
	.loc	4 505 0 is_stmt 1       // kernel/block/hisi-blk-dump.c:505:0
	.cfi_startproc
// %bb.0:
	//DEBUG_VALUE: hisi_blk_panic_notify:nb <- $x0
	//DEBUG_VALUE: hisi_blk_panic_notify:event <- $x1
	//DEBUG_VALUE: hisi_blk_panic_notify:buf <- $x2
	stp	x28, x27, [sp, #-96]!   // 16-byte Folded Spill
	stp	x26, x25, [sp, #16]     // 16-byte Folded Spill
	stp	x24, x23, [sp, #32]     // 16-byte Folded Spill
	stp	x22, x21, [sp, #48]     // 16-byte Folded Spill
	stp	x20, x19, [sp, #64]     // 16-byte Folded Spill
	stp	x29, x30, [sp, #80]     // 16-byte Folded Spill
	add	x29, sp, #80            // =80
	.cfi_def_cfa w29, 16
	.cfi_offset w30, -8
	.cfi_offset w29, -16
	.cfi_offset w19, -24
	.cfi_offset w20, -32
	.cfi_offset w21, -40
	.cfi_offset w22, -48
	.cfi_offset w23, -56
	.cfi_offset w24, -64
	.cfi_offset w25, -72
	.cfi_offset w26, -80
	.cfi_offset w27, -88
	.cfi_offset w28, -96
.Ltmp334:
	.loc	4 506 2 prologue_end    // kernel/block/hisi-blk-dump.c:506:2
	bl	ktime_get
.Ltmp335:
	mov	x2, x0
	adrp	x0, .L.str.16
	adrp	x1, .L__func__.hisi_blk_panic_notify
	add	x0, x0, :lo12:.L.str.16
	add	x1, x1, :lo12:.L__func__.hisi_blk_panic_notify
	bl	printk
.Ltmp336:
	//DEBUG_VALUE: hisi_blk_painc_dump:hisi_queue <- 0
	//DEBUG_VALUE: hisi_blk_painc_dump:q <- 0
	.loc	4 0 0 is_stmt 0         // kernel/block/hisi-blk-dump.c:0:0
	adrp	x26, dump_list
	add	x26, x26, :lo12:dump_list
	ldr	x27, [x26]
.Ltmp337:
	//DEBUG_VALUE: hisi_blk_painc_dump:hisi_queue <- [DW_OP_constu 160, DW_OP_minus, DW_OP_stack_value] $x27
	.loc	4 496 2 is_stmt 1       // kernel/block/hisi-blk-dump.c:496:2
	cmp	x27, x26
	b.eq	.LBB6_22
.Ltmp338:
// %bb.1:
	//DEBUG_VALUE: hisi_blk_painc_dump:hisi_queue <- [DW_OP_constu 160, DW_OP_minus, DW_OP_stack_value] $x27
	.loc	4 0 2 is_stmt 0         // kernel/block/hisi-blk-dump.c:0:2
	adrp	x20, .L.str.44
	adrp	x21, .L.str.13
	adrp	x22, .L.str.19
	adrp	x23, .L.str.43
	add	x20, x20, :lo12:.L.str.44
	add	x21, x21, :lo12:.L.str.13
	add	x22, x22, :lo12:.L.str.19
	add	x23, x23, :lo12:.L.str.43
.Ltmp339:
.LBB6_2:                                // =>This Loop Header: Depth=1
                                        //     Child Loop BB6_11 Depth 2
                                        //     Child Loop BB6_16 Depth 2
	//DEBUG_VALUE: hisi_blk_painc_dump:hisi_queue <- [DW_OP_constu 160, DW_OP_minus, DW_OP_stack_value] $x27
	//DEBUG_VALUE: hisi_blk_painc_dump:hisi_queue <- [DW_OP_constu 160, DW_OP_minus, DW_OP_stack_value] $x27
	//DEBUG_VALUE: __mptr <- [DW_OP_constu 160, DW_OP_minus, DW_OP_stack_value] $x27
	.loc	4 497 31 is_stmt 1      // kernel/block/hisi-blk-dump.c:497:31
	sub	x24, x27, #1696         // =1696
.Ltmp340:
	//DEBUG_VALUE: hisi_blk_dump_queue:s <- 1
	//DEBUG_VALUE: hisi_blk_dump_queue:q <- $x24
	//DEBUG_VALUE: hisi_blk_dump_queue_status:q <- $x24
	//DEBUG_VALUE: hisi_blk_dump_counted_io:q <- $x24
	//DEBUG_VALUE: hisi_blk_painc_dump:q <- $x24
	.loc	4 465 28                // kernel/block/hisi-blk-dump.c:465:28
	mov	x0, x24
	bl	hisi_blk_get_lld
.Ltmp341:
	.loc	4 467 11                // kernel/block/hisi-blk-dump.c:467:11
	ldr	x8, [x0, #40]
.Ltmp342:
	.loc	4 465 28                // kernel/block/hisi-blk-dump.c:465:28
	mov	x25, x0
.Ltmp343:
	//DEBUG_VALUE: hisi_blk_dump_queue:lld <- $x25
	//DEBUG_VALUE: hisi_blk_dump_counted_io:lld <- $x25
	.loc	4 467 6                 // kernel/block/hisi-blk-dump.c:467:6
	cbz	x8, .LBB6_4
.Ltmp344:
// %bb.3:                               //   in Loop: Header=BB6_2 Depth=1
	//DEBUG_VALUE: hisi_blk_dump_queue:lld <- $x25
	//DEBUG_VALUE: hisi_blk_painc_dump:q <- $x24
	//DEBUG_VALUE: hisi_blk_dump_queue:q <- $x24
	//DEBUG_VALUE: hisi_blk_painc_dump:hisi_queue <- [DW_OP_constu 160, DW_OP_minus, DW_OP_stack_value] $x27
	.loc	4 468 3                 // kernel/block/hisi-blk-dump.c:468:3
	mov	x0, x25
	mov	x1, xzr
	mov	w2, wzr
	bl	hisi_blk_dump_lld_status
	.loc	4 469 3                 // kernel/block/hisi-blk-dump.c:469:3
	ldp	x1, x2, [x25, #376]
	mov	x0, x23
	bl	printk
	.loc	4 471 8                 // kernel/block/hisi-blk-dump.c:471:8
	ldr	x8, [x25, #40]
	.loc	4 471 3 is_stmt 0       // kernel/block/hisi-blk-dump.c:471:3
	orr	w1, wzr, #0x1
	mov	x0, x24
	blr	x8
	.loc	4 472 16 is_stmt 1      // kernel/block/hisi-blk-dump.c:472:16
	str	xzr, [x25, #40]
.Ltmp345:
.LBB6_4:                                //   in Loop: Header=BB6_2 Depth=1
	//DEBUG_VALUE: hisi_blk_dump_queue:lld <- $x25
	//DEBUG_VALUE: hisi_blk_painc_dump:q <- $x24
	//DEBUG_VALUE: hisi_blk_dump_queue:q <- $x24
	//DEBUG_VALUE: hisi_blk_painc_dump:hisi_queue <- [DW_OP_constu 160, DW_OP_minus, DW_OP_stack_value] $x27
	//DEBUG_VALUE: hisi_blk_dump_queue_status:s <- 1
	//DEBUG_VALUE: hisi_blk_dump_queue_status:prefix <- undef
	.loc	4 289 21                // kernel/block/hisi-blk-dump.c:289:21
	ldur	x8, [x27, #-160]
.Ltmp346:
	.loc	4 289 6 is_stmt 0       // kernel/block/hisi-blk-dump.c:289:6
	cbz	x8, .LBB6_8
.Ltmp347:
// %bb.5:                               //   in Loop: Header=BB6_2 Depth=1
	//DEBUG_VALUE: hisi_blk_dump_queue:lld <- $x25
	//DEBUG_VALUE: hisi_blk_painc_dump:q <- $x24
	//DEBUG_VALUE: hisi_blk_dump_queue:q <- $x24
	//DEBUG_VALUE: hisi_blk_painc_dump:hisi_queue <- [DW_OP_constu 160, DW_OP_minus, DW_OP_stack_value] $x27
	.loc	4 292 2 is_stmt 1       // kernel/block/hisi-blk-dump.c:292:2
	ldurb	w9, [x27, #-152]
.Ltmp348:
	.loc	129 183 2               // kernel/include/linux/compiler.h:183:2
	ldr	w4, [x8, #1016]
.Ltmp349:
	//DEBUG_VALUE: __read_once_size:p <- [DW_OP_plus_uconst 1020, DW_OP_stack_value] $x8
	//DEBUG_VALUE: __read_once_size:size <- 4
	//DEBUG_VALUE: __read_once_size:res <- undef
	.loc	129 183 2 is_stmt 0     // kernel/include/linux/compiler.h:183:2
	ldr	w5, [x8, #1020]
.Ltmp350:
	.loc	4 292 2 is_stmt 1       // kernel/block/hisi-blk-dump.c:292:2
	add	x2, x8, #12             // =12
	cmp	w9, #0                  // =0
	adrp	x8, .L.str.14
.Ltmp351:
	adrp	x9, .L.str.15
	add	x8, x8, :lo12:.L.str.14
	add	x9, x9, :lo12:.L.str.15
	csel	x3, x9, x8, eq
.Ltmp352:
	//DEBUG_VALUE: __read_once_size:p <- [DW_OP_plus_uconst 1016, DW_OP_stack_value] undef
	//DEBUG_VALUE: __read_once_size:size <- 4
	//DEBUG_VALUE: __read_once_size:res <- undef
	//DEBUG_VALUE: hisi_blk_dump_queue_status:prefix <- $x22
	mov	x0, x21
	mov	x1, x22
	bl	printk
.Ltmp353:
	.loc	4 303 3                 // kernel/block/hisi-blk-dump.c:303:3
	mov	x0, x24
	mov	x1, xzr
	mov	w2, wzr
	bl	hisi_blk_dump_queue_status2
.Ltmp354:
	.loc	4 305 9                 // kernel/block/hisi-blk-dump.c:305:9
	ldr	x8, [x27, #104]
	.loc	4 305 24 is_stmt 0      // kernel/block/hisi-blk-dump.c:305:24
	cbz	x8, .LBB6_8
.Ltmp355:
// %bb.6:                               //   in Loop: Header=BB6_2 Depth=1
	//DEBUG_VALUE: hisi_blk_dump_queue_status:prefix <- $x22
	//DEBUG_VALUE: hisi_blk_dump_queue:lld <- $x25
	//DEBUG_VALUE: hisi_blk_painc_dump:q <- $x24
	//DEBUG_VALUE: hisi_blk_dump_queue:q <- $x24
	//DEBUG_VALUE: hisi_blk_painc_dump:hisi_queue <- [DW_OP_constu 160, DW_OP_minus, DW_OP_stack_value] $x27
	.loc	4 305 46                // kernel/block/hisi-blk-dump.c:305:46
	ldr	x8, [x8, #160]
.Ltmp356:
	.loc	4 305 6                 // kernel/block/hisi-blk-dump.c:305:6
	cbz	x8, .LBB6_8
.Ltmp357:
// %bb.7:                               //   in Loop: Header=BB6_2 Depth=1
	//DEBUG_VALUE: hisi_blk_dump_queue_status:prefix <- $x22
	//DEBUG_VALUE: hisi_blk_dump_queue:lld <- $x25
	//DEBUG_VALUE: hisi_blk_painc_dump:q <- $x24
	//DEBUG_VALUE: hisi_blk_dump_queue:q <- $x24
	//DEBUG_VALUE: hisi_blk_painc_dump:hisi_queue <- [DW_OP_constu 160, DW_OP_minus, DW_OP_stack_value] $x27
	.loc	4 306 3 is_stmt 1       // kernel/block/hisi-blk-dump.c:306:3
	orr	w1, wzr, #0x1
	mov	x0, x24
	blr	x8
.Ltmp358:
.LBB6_8:                                //   in Loop: Header=BB6_2 Depth=1
	//DEBUG_VALUE: hisi_blk_dump_queue:lld <- $x25
	//DEBUG_VALUE: hisi_blk_painc_dump:q <- $x24
	//DEBUG_VALUE: hisi_blk_dump_queue:q <- $x24
	//DEBUG_VALUE: hisi_blk_painc_dump:hisi_queue <- [DW_OP_constu 160, DW_OP_minus, DW_OP_stack_value] $x27
	//DEBUG_VALUE: hisi_blk_dump_counted_io:s <- 1
	.loc	129 183 2               // kernel/include/linux/compiler.h:183:2
	ldr	x8, [x25, #392]
.Ltmp359:
	.loc	4 442 33                // kernel/block/hisi-blk-dump.c:442:33
	add	x19, x25, #392          // =392
.Ltmp360:
	//DEBUG_VALUE: __read_once_size:p <- $x19
	//DEBUG_VALUE: __read_once_size:size <- 8
	//DEBUG_VALUE: __read_once_size:res <- undef
	//DEBUG_VALUE: list_empty:head <- $x19
	.loc	4 442 6 is_stmt 0       // kernel/block/hisi-blk-dump.c:442:6
	cmp	x19, x8
	b.eq	.LBB6_13
.Ltmp361:
// %bb.9:                               //   in Loop: Header=BB6_2 Depth=1
	//DEBUG_VALUE: hisi_blk_dump_queue:lld <- $x25
	//DEBUG_VALUE: hisi_blk_painc_dump:q <- $x24
	//DEBUG_VALUE: hisi_blk_dump_queue:q <- $x24
	//DEBUG_VALUE: hisi_blk_painc_dump:hisi_queue <- [DW_OP_constu 160, DW_OP_minus, DW_OP_stack_value] $x27
	//DEBUG_VALUE: pos <- 0
	.loc	4 445 3 is_stmt 1       // kernel/block/hisi-blk-dump.c:445:3
	mov	x0, x20
	bl	printk
.Ltmp362:
	//DEBUG_VALUE: __mptr <- undef
	.loc	4 0 0 is_stmt 0         // kernel/block/hisi-blk-dump.c:0:0
	ldr	x28, [x19]
.Ltmp363:
	//DEBUG_VALUE: pos <- [DW_OP_constu 288, DW_OP_minus, DW_OP_stack_value] $x28
	.loc	4 446 3 is_stmt 1       // kernel/block/hisi-blk-dump.c:446:3
	cmp	x19, x28
	b.ne	.LBB6_11
	b	.LBB6_13
.Ltmp364:
.LBB6_10:                               //   in Loop: Header=BB6_11 Depth=2
	//DEBUG_VALUE: pos <- [DW_OP_constu 288, DW_OP_minus, DW_OP_stack_value] $x28
	//DEBUG_VALUE: hisi_blk_dump_queue:lld <- $x25
	//DEBUG_VALUE: hisi_blk_painc_dump:q <- $x24
	//DEBUG_VALUE: hisi_blk_dump_queue:q <- $x24
	//DEBUG_VALUE: hisi_blk_painc_dump:hisi_queue <- [DW_OP_constu 160, DW_OP_minus, DW_OP_stack_value] $x27
	//DEBUG_VALUE: __mptr <- undef
	.loc	4 0 0 is_stmt 0         // kernel/block/hisi-blk-dump.c:0:0
	ldr	x28, [x28]
.Ltmp365:
	//DEBUG_VALUE: pos <- [DW_OP_constu 288, DW_OP_minus, DW_OP_stack_value] $x28
	.loc	4 446 3                 // kernel/block/hisi-blk-dump.c:446:3
	cmp	x19, x28
	b.eq	.LBB6_13
.Ltmp366:
.LBB6_11:                               //   Parent Loop BB6_2 Depth=1
                                        // =>  This Inner Loop Header: Depth=2
	//DEBUG_VALUE: pos <- [DW_OP_constu 288, DW_OP_minus, DW_OP_stack_value] $x28
	//DEBUG_VALUE: hisi_blk_dump_queue:lld <- $x25
	//DEBUG_VALUE: hisi_blk_painc_dump:q <- $x24
	//DEBUG_VALUE: hisi_blk_dump_queue:q <- $x24
	//DEBUG_VALUE: hisi_blk_painc_dump:hisi_queue <- [DW_OP_constu 160, DW_OP_minus, DW_OP_stack_value] $x27
	.loc	4 447 22 is_stmt 1      // kernel/block/hisi-blk-dump.c:447:22
	ldur	x8, [x28, #-200]
.Ltmp367:
	.loc	4 447 8 is_stmt 0       // kernel/block/hisi-blk-dump.c:447:8
	cmp	x8, x24
	b.ne	.LBB6_10
.Ltmp368:
// %bb.12:                              //   in Loop: Header=BB6_11 Depth=2
	//DEBUG_VALUE: pos <- [DW_OP_constu 288, DW_OP_minus, DW_OP_stack_value] $x28
	//DEBUG_VALUE: hisi_blk_dump_queue:lld <- $x25
	//DEBUG_VALUE: hisi_blk_painc_dump:q <- $x24
	//DEBUG_VALUE: hisi_blk_dump_queue:q <- $x24
	//DEBUG_VALUE: hisi_blk_painc_dump:hisi_queue <- [DW_OP_constu 160, DW_OP_minus, DW_OP_stack_value] $x27
	.loc	4 0 0                   // kernel/block/hisi-blk-dump.c:0:0
	sub	x0, x28, #288           // =288
.Ltmp369:
	.loc	4 448 5 is_stmt 1       // kernel/block/hisi-blk-dump.c:448:5
	orr	w1, wzr, #0x1
	bl	hisi_blk_dump_bio
	b	.LBB6_10
.Ltmp370:
.LBB6_13:                               //   in Loop: Header=BB6_2 Depth=1
	//DEBUG_VALUE: hisi_blk_dump_queue:lld <- $x25
	//DEBUG_VALUE: hisi_blk_painc_dump:q <- $x24
	//DEBUG_VALUE: hisi_blk_dump_queue:q <- $x24
	//DEBUG_VALUE: hisi_blk_painc_dump:hisi_queue <- [DW_OP_constu 160, DW_OP_minus, DW_OP_stack_value] $x27
	.loc	129 183 2               // kernel/include/linux/compiler.h:183:2
	ldr	x8, [x25, #408]
.Ltmp371:
	.loc	4 451 33                // kernel/block/hisi-blk-dump.c:451:33
	add	x25, x25, #408          // =408
.Ltmp372:
	//DEBUG_VALUE: __read_once_size:p <- $x25
	//DEBUG_VALUE: __read_once_size:size <- 8
	//DEBUG_VALUE: __read_once_size:res <- undef
	//DEBUG_VALUE: list_empty:head <- $x25
	.loc	4 451 6 is_stmt 0       // kernel/block/hisi-blk-dump.c:451:6
	cmp	x25, x8
	b.eq	.LBB6_18
.Ltmp373:
// %bb.14:                              //   in Loop: Header=BB6_2 Depth=1
	//DEBUG_VALUE: hisi_blk_painc_dump:q <- $x24
	//DEBUG_VALUE: hisi_blk_dump_queue:q <- $x24
	//DEBUG_VALUE: hisi_blk_painc_dump:hisi_queue <- [DW_OP_constu 160, DW_OP_minus, DW_OP_stack_value] $x27
	//DEBUG_VALUE: pos <- 0
	.loc	4 454 3 is_stmt 1       // kernel/block/hisi-blk-dump.c:454:3
	adrp	x0, .L.str.45
	add	x0, x0, :lo12:.L.str.45
	bl	printk
.Ltmp374:
	//DEBUG_VALUE: __mptr <- undef
	.loc	4 0 0 is_stmt 0         // kernel/block/hisi-blk-dump.c:0:0
	ldr	x19, [x25]
.Ltmp375:
	//DEBUG_VALUE: pos <- [DW_OP_constu 456, DW_OP_minus, DW_OP_stack_value] $x19
	.loc	4 455 3 is_stmt 1       // kernel/block/hisi-blk-dump.c:455:3
	cmp	x25, x19
	b.ne	.LBB6_16
	b	.LBB6_18
.Ltmp376:
.LBB6_15:                               //   in Loop: Header=BB6_16 Depth=2
	//DEBUG_VALUE: pos <- [DW_OP_constu 456, DW_OP_minus, DW_OP_stack_value] $x19
	//DEBUG_VALUE: hisi_blk_painc_dump:q <- $x24
	//DEBUG_VALUE: hisi_blk_dump_queue:q <- $x24
	//DEBUG_VALUE: hisi_blk_painc_dump:hisi_queue <- [DW_OP_constu 160, DW_OP_minus, DW_OP_stack_value] $x27
	//DEBUG_VALUE: __mptr <- undef
	.loc	4 0 0 is_stmt 0         // kernel/block/hisi-blk-dump.c:0:0
	ldr	x19, [x19]
.Ltmp377:
	//DEBUG_VALUE: pos <- [DW_OP_constu 456, DW_OP_minus, DW_OP_stack_value] $x19
	.loc	4 455 3                 // kernel/block/hisi-blk-dump.c:455:3
	cmp	x25, x19
	b.eq	.LBB6_18
.Ltmp378:
.LBB6_16:                               //   Parent Loop BB6_2 Depth=1
                                        // =>  This Inner Loop Header: Depth=2
	//DEBUG_VALUE: pos <- [DW_OP_constu 456, DW_OP_minus, DW_OP_stack_value] $x19
	//DEBUG_VALUE: hisi_blk_painc_dump:q <- $x24
	//DEBUG_VALUE: hisi_blk_dump_queue:q <- $x24
	//DEBUG_VALUE: hisi_blk_painc_dump:hisi_queue <- [DW_OP_constu 160, DW_OP_minus, DW_OP_stack_value] $x27
	.loc	4 456 13 is_stmt 1      // kernel/block/hisi-blk-dump.c:456:13
	sub	x8, x19, #392           // =392
	ldr	x8, [x8]
.Ltmp379:
	.loc	4 456 8 is_stmt 0       // kernel/block/hisi-blk-dump.c:456:8
	cmp	x8, x24
	b.ne	.LBB6_15
.Ltmp380:
// %bb.17:                              //   in Loop: Header=BB6_16 Depth=2
	//DEBUG_VALUE: pos <- [DW_OP_constu 456, DW_OP_minus, DW_OP_stack_value] $x19
	//DEBUG_VALUE: hisi_blk_painc_dump:q <- $x24
	//DEBUG_VALUE: hisi_blk_dump_queue:q <- $x24
	//DEBUG_VALUE: hisi_blk_painc_dump:hisi_queue <- [DW_OP_constu 160, DW_OP_minus, DW_OP_stack_value] $x27
	.loc	4 0 0                   // kernel/block/hisi-blk-dump.c:0:0
	sub	x0, x19, #456           // =456
.Ltmp381:
	.loc	4 457 5 is_stmt 1       // kernel/block/hisi-blk-dump.c:457:5
	orr	w1, wzr, #0x1
	bl	hisi_blk_dump_request
	b	.LBB6_15
.Ltmp382:
.LBB6_18:                               //   in Loop: Header=BB6_2 Depth=1
	//DEBUG_VALUE: hisi_blk_painc_dump:q <- $x24
	//DEBUG_VALUE: hisi_blk_dump_queue:q <- $x24
	//DEBUG_VALUE: hisi_blk_painc_dump:hisi_queue <- [DW_OP_constu 160, DW_OP_minus, DW_OP_stack_value] $x27
	.loc	4 478 9                 // kernel/block/hisi-blk-dump.c:478:9
	ldr	x8, [x27, #104]
	.loc	4 478 24 is_stmt 0      // kernel/block/hisi-blk-dump.c:478:24
	cbz	x8, .LBB6_21
.Ltmp383:
// %bb.19:                              //   in Loop: Header=BB6_2 Depth=1
	//DEBUG_VALUE: hisi_blk_painc_dump:q <- $x24
	//DEBUG_VALUE: hisi_blk_dump_queue:q <- $x24
	//DEBUG_VALUE: hisi_blk_painc_dump:hisi_queue <- [DW_OP_constu 160, DW_OP_minus, DW_OP_stack_value] $x27
	.loc	4 478 46                // kernel/block/hisi-blk-dump.c:478:46
	ldr	x8, [x8, #168]
.Ltmp384:
	.loc	4 478 6                 // kernel/block/hisi-blk-dump.c:478:6
	cbz	x8, .LBB6_21
.Ltmp385:
// %bb.20:                              //   in Loop: Header=BB6_2 Depth=1
	//DEBUG_VALUE: hisi_blk_painc_dump:q <- $x24
	//DEBUG_VALUE: hisi_blk_dump_queue:q <- $x24
	//DEBUG_VALUE: hisi_blk_painc_dump:hisi_queue <- [DW_OP_constu 160, DW_OP_minus, DW_OP_stack_value] $x27
	.loc	4 479 3 is_stmt 1       // kernel/block/hisi-blk-dump.c:479:3
	orr	w1, wzr, #0x1
	mov	x0, x24
	blr	x8
.Ltmp386:
.LBB6_21:                               //   in Loop: Header=BB6_2 Depth=1
	//DEBUG_VALUE: hisi_blk_painc_dump:q <- $x24
	//DEBUG_VALUE: hisi_blk_painc_dump:hisi_queue <- [DW_OP_constu 160, DW_OP_minus, DW_OP_stack_value] $x27
	//DEBUG_VALUE: __mptr <- undef
	.loc	4 0 0 is_stmt 0         // kernel/block/hisi-blk-dump.c:0:0
	ldr	x27, [x27]
.Ltmp387:
	//DEBUG_VALUE: hisi_blk_painc_dump:hisi_queue <- [DW_OP_constu 160, DW_OP_minus, DW_OP_stack_value] $x27
	.loc	4 496 2 is_stmt 1       // kernel/block/hisi-blk-dump.c:496:2
	cmp	x27, x26
	b.ne	.LBB6_2
.Ltmp388:
.LBB6_22:
	.loc	4 508 2                 // kernel/block/hisi-blk-dump.c:508:2
	adrp	x0, .L.str.17
	adrp	x1, .L__func__.hisi_blk_panic_notify
	add	x0, x0, :lo12:.L.str.17
	add	x1, x1, :lo12:.L__func__.hisi_blk_panic_notify
	bl	printk
	.loc	4 509 2                 // kernel/block/hisi-blk-dump.c:509:2
	ldp	x29, x30, [sp, #80]     // 16-byte Folded Reload
	ldp	x20, x19, [sp, #64]     // 16-byte Folded Reload
	ldp	x22, x21, [sp, #48]     // 16-byte Folded Reload
	ldp	x24, x23, [sp, #32]     // 16-byte Folded Reload
	ldp	x26, x25, [sp, #16]     // 16-byte Folded Reload
	mov	w0, wzr
	ldp	x28, x27, [sp], #96     // 16-byte Folded Reload
	ret
.Ltmp389:
.Lfunc_end6:
	.size	hisi_blk_panic_notify, .Lfunc_end6-hisi_blk_panic_notify
	.cfi_endproc
	.file	130 "/mnt/disk/jenkins/ci/workspace/chipset_pipeline_release/opensource/component_code/vendor/huawei/extra/build/build_script/kirin_kernel_release/kernel/include/linux/list.h"
                                        // -- End function
	.globl	hisi_blk_dump_register_queue // -- Begin function hisi_blk_dump_register_queue
	.p2align	2
	.type	hisi_blk_dump_register_queue,@function
hisi_blk_dump_register_queue:           // @hisi_blk_dump_register_queue
.Lfunc_begin7:
	.loc	4 516 0                 // kernel/block/hisi-blk-dump.c:516:0
	.cfi_startproc
// %bb.0:
	//DEBUG_VALUE: hisi_blk_dump_register_queue:q <- $x0
	str	x21, [sp, #-48]!        // 8-byte Folded Spill
	stp	x20, x19, [sp, #16]     // 16-byte Folded Spill
	stp	x29, x30, [sp, #32]     // 16-byte Folded Spill
	add	x29, sp, #32            // =32
	.cfi_def_cfa w29, 16
	.cfi_offset w30, -8
	.cfi_offset w29, -16
	.cfi_offset w19, -24
	.cfi_offset w20, -32
	.cfi_offset w21, -48
	mov	x19, x0
.Ltmp390:
	//DEBUG_VALUE: hisi_blk_dump_register_queue:q <- $x19
	.loc	4 517 32 prologue_end   // kernel/block/hisi-blk-dump.c:517:32
	bl	hisi_blk_get_lld
.Ltmp391:
	//DEBUG_VALUE: hisi_blk_dump_register_queue:blk_lld <- $x0
	.loc	4 519 6                 // kernel/block/hisi-blk-dump.c:519:6
	ldrb	w8, [x0, #24]
	tbz	w8, #0, .LBB7_3
.Ltmp392:
// %bb.1:
	//DEBUG_VALUE: hisi_blk_dump_register_queue:blk_lld <- $x0
	//DEBUG_VALUE: hisi_blk_dump_register_queue:q <- $x19
	.loc	129 183 2               // kernel/include/linux/compiler.h:183:2
	ldr	x8, [x19, #1696]
.Ltmp393:
	.loc	4 520 34                // kernel/block/hisi-blk-dump.c:520:34
	add	x21, x19, #1696         // =1696
.Ltmp394:
	//DEBUG_VALUE: __read_once_size:p <- $x21
	//DEBUG_VALUE: __read_once_size:size <- 8
	//DEBUG_VALUE: __read_once_size:res <- undef
	//DEBUG_VALUE: list_empty:head <- $x21
	//DEBUG_VALUE: list_add_tail:new <- $x21
	//DEBUG_VALUE: __list_add:new <- $x21
	.loc	4 520 7 is_stmt 0       // kernel/block/hisi-blk-dump.c:520:7
	cmp	x21, x8
	b.ne	.LBB7_3
.Ltmp395:
// %bb.2:
	//DEBUG_VALUE: __list_add:new <- $x21
	//DEBUG_VALUE: list_add_tail:new <- $x21
	//DEBUG_VALUE: hisi_blk_dump_register_queue:blk_lld <- $x0
	//DEBUG_VALUE: hisi_blk_dump_register_queue:q <- $x19
	.file	131 "/mnt/disk/jenkins/ci/workspace/chipset_pipeline_release/opensource/component_code/vendor/huawei/extra/build/build_script/kirin_kernel_release/kernel/include/linux/spinlock.h"
	.loc	131 317 2 is_stmt 1     // kernel/include/linux/spinlock.h:317:2
	adrp	x20, dump_list_lock
	add	x20, x20, :lo12:dump_list_lock
.Ltmp396:
	//DEBUG_VALUE: spin_lock:lock <- $x20
	mov	x0, x20
.Ltmp397:
	bl	_raw_spin_lock
.Ltmp398:
	.loc	130 93 24               // kernel/include/linux/list.h:93:24
	adrp	x8, dump_list
	add	x8, x8, :lo12:dump_list
.Ltmp399:
	//DEBUG_VALUE: list_add_tail:head <- $x8
	ldr	x9, [x8, #8]
.Ltmp400:
	//DEBUG_VALUE: __write_once_size:res <- undef
	//DEBUG_VALUE: __list_add:prev <- $x9
	//DEBUG_VALUE: __list_add:next <- $x8
	.loc	131 357 2               // kernel/include/linux/spinlock.h:357:2
	mov	x0, x20
.Ltmp401:
	.loc	130 63 13               // kernel/include/linux/list.h:63:13
	str	x21, [x8, #8]
	.loc	130 64 12               // kernel/include/linux/list.h:64:12
	str	x8, [x19, #1696]
	.loc	130 65 12               // kernel/include/linux/list.h:65:12
	str	x9, [x19, #1704]
.Ltmp402:
	//DEBUG_VALUE: __write_once_size:p <- $x9
	//DEBUG_VALUE: __write_once_size:size <- 8
	.loc	129 210 31              // kernel/include/linux/compiler.h:210:31
	str	x21, [x9]
.Ltmp403:
	//DEBUG_VALUE: spin_unlock:lock <- $x20
	.loc	131 357 2               // kernel/include/linux/spinlock.h:357:2
	bl	_raw_spin_unlock
.Ltmp404:
.LBB7_3:
	//DEBUG_VALUE: hisi_blk_dump_register_queue:q <- $x19
	.loc	4 526 1                 // kernel/block/hisi-blk-dump.c:526:1
	ldp	x29, x30, [sp, #32]     // 16-byte Folded Reload
	ldp	x20, x19, [sp, #16]     // 16-byte Folded Reload
.Ltmp405:
	ldr	x21, [sp], #48          // 8-byte Folded Reload
	ret
.Ltmp406:
.Lfunc_end7:
	.size	hisi_blk_dump_register_queue, .Lfunc_end7-hisi_blk_dump_register_queue
	.cfi_endproc
                                        // -- End function
	.globl	hisi_blk_dump_unregister_queue // -- Begin function hisi_blk_dump_unregister_queue
	.p2align	2
	.type	hisi_blk_dump_unregister_queue,@function
hisi_blk_dump_unregister_queue:         // @hisi_blk_dump_unregister_queue
.Lfunc_begin8:
	.loc	4 532 0                 // kernel/block/hisi-blk-dump.c:532:0
	.cfi_startproc
// %bb.0:
	//DEBUG_VALUE: hisi_blk_dump_unregister_queue:q <- $x0
	str	x19, [sp, #-32]!        // 8-byte Folded Spill
	stp	x29, x30, [sp, #16]     // 16-byte Folded Spill
	add	x29, sp, #16            // =16
	.cfi_def_cfa w29, 16
	.cfi_offset w30, -8
	.cfi_offset w29, -16
	.cfi_offset w19, -32
	mov	x19, x0
.Ltmp407:
	//DEBUG_VALUE: hisi_blk_dump_unregister_queue:hisi_queue_backup <- 0
	//DEBUG_VALUE: hisi_blk_dump_unregister_queue:hisi_queue <- 0
	//DEBUG_VALUE: hisi_blk_dump_unregister_queue:q_node <- 0
	//DEBUG_VALUE: hisi_blk_dump_unregister_queue:q <- $x19
	.loc	131 317 2 prologue_end  // kernel/include/linux/spinlock.h:317:2
	adrp	x0, dump_list_lock
	add	x0, x0, :lo12:dump_list_lock
.Ltmp408:
	//DEBUG_VALUE: spin_lock:lock <- $x0
	bl	_raw_spin_lock
.Ltmp409:
	.loc	131 0 2 is_stmt 0       // kernel/include/linux/spinlock.h:0:2
	adrp	x9, dump_list
	add	x9, x9, :lo12:dump_list
	mov	x8, x9
.Ltmp410:
.LBB8_1:                                // =>This Inner Loop Header: Depth=1
	//DEBUG_VALUE: hisi_blk_dump_unregister_queue:q <- $x19
	ldr	x8, [x8]
.Ltmp411:
	//DEBUG_VALUE: hisi_blk_dump_unregister_queue:hisi_queue_backup <- [DW_OP_constu 160, DW_OP_minus, DW_OP_stack_value] undef
	//DEBUG_VALUE: __mptr <- [DW_OP_constu 160, DW_OP_minus, DW_OP_stack_value] $x8
	//DEBUG_VALUE: list_del:entry <- $x8
	//DEBUG_VALUE: __list_del_entry:entry <- $x8
	.loc	4 538 2 is_stmt 1       // kernel/block/hisi-blk-dump.c:538:2
	cmp	x8, x9
	b.eq	.LBB8_4
.Ltmp412:
// %bb.2:                               //   in Loop: Header=BB8_1 Depth=1
	//DEBUG_VALUE: __mptr <- [DW_OP_constu 160, DW_OP_minus, DW_OP_stack_value] $x8
	//DEBUG_VALUE: hisi_blk_dump_unregister_queue:q <- $x19
	.loc	4 540 36                // kernel/block/hisi-blk-dump.c:540:36
	sub	x10, x8, #1696          // =1696
.Ltmp413:
	//DEBUG_VALUE: hisi_blk_dump_unregister_queue:q_node <- $x10
	.loc	4 542 7                 // kernel/block/hisi-blk-dump.c:542:7
	cmp	x10, x19
	b.ne	.LBB8_1
.Ltmp414:
// %bb.3:
	//DEBUG_VALUE: hisi_blk_dump_unregister_queue:q_node <- $x10
	//DEBUG_VALUE: hisi_blk_dump_unregister_queue:q <- $x19
	.loc	130 120 33              // kernel/include/linux/list.h:120:33
	ldp	x9, x10, [x8]
.Ltmp415:
	.loc	130 0 33 is_stmt 0      // kernel/include/linux/list.h:0:33
	mov	x11, #256
	movk	x11, #57005, lsl #48
.Ltmp416:
	.loc	130 127 14 is_stmt 1    // kernel/include/linux/list.h:127:14
	add	x12, x11, #256          // =256
.Ltmp417:
	//DEBUG_VALUE: __list_del:prev <- $x10
	//DEBUG_VALUE: __list_del:next <- $x9
	.loc	130 105 13              // kernel/include/linux/list.h:105:13
	str	x10, [x9, #8]
.Ltmp418:
	//DEBUG_VALUE: __write_once_size:p <- $x10
	//DEBUG_VALUE: __write_once_size:size <- 8
	//DEBUG_VALUE: __write_once_size:res <- undef
	.loc	129 210 31              // kernel/include/linux/compiler.h:210:31
	str	x9, [x10]
.Ltmp419:
	.loc	130 126 14              // kernel/include/linux/list.h:126:14
	stp	x11, x12, [x8]
.Ltmp420:
.LBB8_4:
	//DEBUG_VALUE: hisi_blk_dump_unregister_queue:q <- $x19
	.loc	131 357 2               // kernel/include/linux/spinlock.h:357:2
	adrp	x0, dump_list_lock
	add	x0, x0, :lo12:dump_list_lock
.Ltmp421:
	//DEBUG_VALUE: spin_unlock:lock <- $x0
	bl	_raw_spin_unlock
.Ltmp422:
	.loc	4 548 1                 // kernel/block/hisi-blk-dump.c:548:1
	ldp	x29, x30, [sp, #16]     // 16-byte Folded Reload
	ldr	x19, [sp], #32          // 8-byte Folded Reload
.Ltmp423:
	ret
.Ltmp424:
.Lfunc_end8:
	.size	hisi_blk_dump_unregister_queue, .Lfunc_end8-hisi_blk_dump_unregister_queue
	.cfi_endproc
                                        // -- End function
	.section	.init.text,"ax",@progbits
	.globl	hisi_blk_dump_init      // -- Begin function hisi_blk_dump_init
	.p2align	2
	.type	hisi_blk_dump_init,@function
hisi_blk_dump_init:                     // @hisi_blk_dump_init
.Lfunc_begin9:
	.loc	4 556 0                 // kernel/block/hisi-blk-dump.c:556:0
	.cfi_startproc
// %bb.0:
	stp	x29, x30, [sp, #-16]!   // 16-byte Folded Spill
	mov	x29, sp
	.cfi_def_cfa w29, 16
	.cfi_offset w30, -8
	.cfi_offset w29, -16
.Ltmp425:
	.loc	4 557 2 prologue_end    // kernel/block/hisi-blk-dump.c:557:2
	adrp	x0, panic_notifier_list
	adrp	x1, hisi_blk_panic_nb
	add	x0, x0, :lo12:panic_notifier_list
	add	x1, x1, :lo12:hisi_blk_panic_nb
	bl	atomic_notifier_chain_register
	.loc	4 559 1                 // kernel/block/hisi-blk-dump.c:559:1
	ldp	x29, x30, [sp], #16     // 16-byte Folded Reload
	ret
.Ltmp426:
.Lfunc_end9:
	.size	hisi_blk_dump_init, .Lfunc_end9-hisi_blk_dump_init
	.cfi_endproc
                                        // -- End function
	.text
	.globl	blk_mq_tagset_dump_register // -- Begin function blk_mq_tagset_dump_register
	.p2align	2
	.type	blk_mq_tagset_dump_register,@function
blk_mq_tagset_dump_register:            // @blk_mq_tagset_dump_register
.Lfunc_begin10:
	.loc	4 566 0                 // kernel/block/hisi-blk-dump.c:566:0
	.cfi_startproc
// %bb.0:
	//DEBUG_VALUE: blk_mq_tagset_dump_register:tag_set <- $x0
	//DEBUG_VALUE: blk_mq_tagset_dump_register:tag_set <- $x0
	//DEBUG_VALUE: blk_mq_tagset_dump_register:func <- $x1
	//DEBUG_VALUE: blk_mq_tagset_dump_register:func <- $x1
	//DEBUG_VALUE: blk_mq_tagset_dump_register:blk_lld <- [DW_OP_plus_uconst 16, DW_OP_stack_value] $x0
	//DEBUG_VALUE: blk_mq_tagset_dump_register:blk_lld <- [DW_OP_plus_uconst 16, DW_OP_stack_value] $x0
	.loc	4 570 20 prologue_end   // kernel/block/hisi-blk-dump.c:570:20
	ldr	x8, [x0, #40]
	.loc	4 569 19                // kernel/block/hisi-blk-dump.c:569:19
	str	x1, [x0, #56]
	.loc	4 570 20                // kernel/block/hisi-blk-dump.c:570:20
	orr	x8, x8, #0x1
	str	x8, [x0, #40]
	.loc	4 571 1                 // kernel/block/hisi-blk-dump.c:571:1
	ret
.Ltmp427:
.Lfunc_end10:
	.size	blk_mq_tagset_dump_register, .Lfunc_end10-blk_mq_tagset_dump_register
	.cfi_endproc
                                        // -- End function
	.globl	blk_queue_dump_register // -- Begin function blk_queue_dump_register
	.p2align	2
	.type	blk_queue_dump_register,@function
blk_queue_dump_register:                // @blk_queue_dump_register
.Lfunc_begin11:
	.loc	4 577 0                 // kernel/block/hisi-blk-dump.c:577:0
	.cfi_startproc
// %bb.0:
	//DEBUG_VALUE: blk_queue_dump_register:q <- $x0
	//DEBUG_VALUE: blk_queue_dump_register:func <- $x1
	str	x21, [sp, #-48]!        // 8-byte Folded Spill
	stp	x20, x19, [sp, #16]     // 16-byte Folded Spill
	stp	x29, x30, [sp, #32]     // 16-byte Folded Spill
	add	x29, sp, #32            // =32
	.cfi_def_cfa w29, 16
	.cfi_offset w30, -8
	.cfi_offset w29, -16
	.cfi_offset w19, -24
	.cfi_offset w20, -32
	.cfi_offset w21, -48
	mov	x20, x1
	mov	x19, x0
.Ltmp428:
	//DEBUG_VALUE: blk_queue_dump_register:func <- $x20
	//DEBUG_VALUE: blk_queue_dump_register:q <- $x19
	.loc	4 578 32 prologue_end   // kernel/block/hisi-blk-dump.c:578:32
	bl	hisi_blk_get_lld
.Ltmp429:
	//DEBUG_VALUE: blk_queue_dump_register:blk_lld <- $x0
	.loc	4 581 20                // kernel/block/hisi-blk-dump.c:581:20
	ldr	x8, [x0, #24]
	.loc	4 580 19                // kernel/block/hisi-blk-dump.c:580:19
	str	x20, [x0, #40]
	.loc	4 581 20                // kernel/block/hisi-blk-dump.c:581:20
	orr	x8, x8, #0x1
	str	x8, [x0, #24]
.Ltmp430:
	//DEBUG_VALUE: hisi_blk_dump_register_queue:q <- $x19
	.loc	4 517 32                // kernel/block/hisi-blk-dump.c:517:32
	mov	x0, x19
.Ltmp431:
	bl	hisi_blk_get_lld
.Ltmp432:
	//DEBUG_VALUE: hisi_blk_dump_register_queue:blk_lld <- $x0
	.loc	4 519 6                 // kernel/block/hisi-blk-dump.c:519:6
	ldrb	w8, [x0, #24]
	tbz	w8, #0, .LBB11_3
.Ltmp433:
// %bb.1:
	//DEBUG_VALUE: hisi_blk_dump_register_queue:blk_lld <- $x0
	//DEBUG_VALUE: hisi_blk_dump_register_queue:q <- $x19
	//DEBUG_VALUE: blk_queue_dump_register:q <- $x19
	//DEBUG_VALUE: blk_queue_dump_register:func <- $x20
	.loc	129 183 2               // kernel/include/linux/compiler.h:183:2
	ldr	x8, [x19, #1696]
.Ltmp434:
	.loc	4 520 34                // kernel/block/hisi-blk-dump.c:520:34
	add	x21, x19, #1696         // =1696
.Ltmp435:
	//DEBUG_VALUE: __read_once_size:p <- $x21
	//DEBUG_VALUE: __read_once_size:size <- 8
	//DEBUG_VALUE: __read_once_size:res <- undef
	//DEBUG_VALUE: list_empty:head <- $x21
	//DEBUG_VALUE: list_add_tail:new <- $x21
	//DEBUG_VALUE: __list_add:new <- $x21
	.loc	4 520 7 is_stmt 0       // kernel/block/hisi-blk-dump.c:520:7
	cmp	x21, x8
	b.ne	.LBB11_3
.Ltmp436:
// %bb.2:
	//DEBUG_VALUE: __list_add:new <- $x21
	//DEBUG_VALUE: list_add_tail:new <- $x21
	//DEBUG_VALUE: hisi_blk_dump_register_queue:blk_lld <- $x0
	//DEBUG_VALUE: hisi_blk_dump_register_queue:q <- $x19
	//DEBUG_VALUE: blk_queue_dump_register:q <- $x19
	//DEBUG_VALUE: blk_queue_dump_register:func <- $x20
	.loc	131 317 2 is_stmt 1     // kernel/include/linux/spinlock.h:317:2
	adrp	x20, dump_list_lock
.Ltmp437:
	add	x20, x20, :lo12:dump_list_lock
.Ltmp438:
	//DEBUG_VALUE: spin_lock:lock <- $x20
	mov	x0, x20
.Ltmp439:
	bl	_raw_spin_lock
.Ltmp440:
	.loc	130 93 24               // kernel/include/linux/list.h:93:24
	adrp	x8, dump_list
	add	x8, x8, :lo12:dump_list
.Ltmp441:
	//DEBUG_VALUE: list_add_tail:head <- $x8
	ldr	x9, [x8, #8]
.Ltmp442:
	//DEBUG_VALUE: __write_once_size:res <- undef
	//DEBUG_VALUE: __list_add:prev <- $x9
	//DEBUG_VALUE: __list_add:next <- $x8
	.loc	131 357 2               // kernel/include/linux/spinlock.h:357:2
	mov	x0, x20
.Ltmp443:
	.loc	130 63 13               // kernel/include/linux/list.h:63:13
	str	x21, [x8, #8]
	.loc	130 64 12               // kernel/include/linux/list.h:64:12
	str	x8, [x19, #1696]
	.loc	130 65 12               // kernel/include/linux/list.h:65:12
	str	x9, [x19, #1704]
.Ltmp444:
	//DEBUG_VALUE: __write_once_size:p <- $x9
	//DEBUG_VALUE: __write_once_size:size <- 8
	.loc	129 210 31              // kernel/include/linux/compiler.h:210:31
	str	x21, [x9]
.Ltmp445:
	//DEBUG_VALUE: spin_unlock:lock <- $x20
	.loc	131 357 2               // kernel/include/linux/spinlock.h:357:2
	bl	_raw_spin_unlock
.Ltmp446:
.LBB11_3:
	//DEBUG_VALUE: blk_queue_dump_register:q <- $x19
	.loc	4 583 1                 // kernel/block/hisi-blk-dump.c:583:1
	ldp	x29, x30, [sp, #32]     // 16-byte Folded Reload
	ldp	x20, x19, [sp, #16]     // 16-byte Folded Reload
.Ltmp447:
	ldr	x21, [sp], #48          // 8-byte Folded Reload
	ret
.Ltmp448:
.Lfunc_end11:
	.size	blk_queue_dump_register, .Lfunc_end11-blk_queue_dump_register
	.cfi_endproc
                                        // -- End function
	.type	.L.str,@object          // @.str
	.section	.rodata.str1.1,"aMS",@progbits,1
.L.str:
	.asciz	"TYPE_BLOCK_PC"
	.size	.L.str, 14

	.type	.L.str.1,@object        // @.str.1
.L.str.1:
	.asciz	"TYPE_DRV_PRIV"
	.size	.L.str.1, 14

	.type	.L.str.2,@object        // @.str.2
.L.str.2:
	.asciz	"TYPE_FS"
	.size	.L.str.2, 8

	.type	.L.str.3,@object        // @.str.3
.L.str.3:
	.asciz	"rq: 0x%pK, type:%s len:%u %s requeue_reason: %d tag: %d "
	.size	.L.str.3, 57

	.type	.L.str.4,@object        // @.str.4
.L.str.4:
	.asciz	"rq_hoq_flag: %llx rq_cp_flag: %llx "
	.size	.L.str.4, 36

	.type	.L.str.5,@object        // @.str.5
.L.str.5:
	.asciz	"disp_pid: %d %s\n"
	.size	.L.str.5, 17

	.type	.L.str.6,@object        // @.str.6
.L.str.6:
	.asciz	"\n"
	.size	.L.str.6, 2

	.type	.L.str.7,@object        // @.str.7
.L.str.7:
	.asciz	"%s: %lld "
	.size	.L.str.7, 10

	.type	.L.str.8,@object        // @.str.8
.L.str.8:
	.asciz	"\0013[BLK-IO]%s: %s\n"
	.size	.L.str.8, 18

	.type	.L.str.9,@object        // @.str.9
.L.str.9:
	.asciz	"bio: 0x%pK, type:%s len:%u "
	.size	.L.str.9, 28

	.type	.L.str.10,@object       // @.str.10
.L.str.10:
	.asciz	"disp_pid: %d %s"
	.size	.L.str.10, 16

	.type	.L.str.11,@object       // @.str.11
.L.str.11:
	.asciz	"<%s:%lld> "
	.size	.L.str.11, 11

	.type	.L.str.12,@object       // @.str.12
.L.str.12:
	.asciz	"\0013[BLK-IO]%s %s,current: %lld\n"
	.size	.L.str.12, 31

	.type	.L.str.13,@object       // @.str.13
.L.str.13:
	.asciz	"\0013[BLK-IO]%s: bdev %s, ptable %s, r_inflt: %d w_inflt: %d"
	.size	.L.str.13, 58

	.type	.L.str.14,@object       // @.str.14
.L.str.14:
	.asciz	"exist"
	.size	.L.str.14, 6

	.type	.L.str.15,@object       // @.str.15
.L.str.15:
	.asciz	"none"
	.size	.L.str.15, 5

	.type	.L.str.16,@object       // @.str.16
.L.str.16:
	.asciz	"\0013[BLK-IO]%s: ++ current = %lld\n"
	.size	.L.str.16, 33

	.type	.L__func__.hisi_blk_panic_notify,@object // @__func__.hisi_blk_panic_notify
.L__func__.hisi_blk_panic_notify:
	.asciz	"hisi_blk_panic_notify"
	.size	.L__func__.hisi_blk_panic_notify, 22

	.type	.L.str.17,@object       // @.str.17
.L.str.17:
	.asciz	"\0013[BLK-IO]%s: --\n"
	.size	.L.str.17, 18

	.type	dump_list_lock,@object  // @dump_list_lock
	.data
	.p2align	3
dump_list_lock:
	.zero	4
	.word	3735899821              // 0xdead4ead
	.word	4294967295              // 0xffffffff
	.zero	4
	.xword	-1
	.size	dump_list_lock, 24

	.type	dump_list,@object       // @dump_list
	.p2align	3
dump_list:
	.xword	dump_list
	.xword	dump_list
	.size	dump_list, 16

	.type	hisi_blk_panic_nb,@object // @hisi_blk_panic_nb
	.p2align	3
hisi_blk_panic_nb:
	.xword	__cfi_hisi_blk_panic_notify
	.xword	0
	.word	0                       // 0x0
	.zero	4
	.size	hisi_blk_panic_nb, 24

	.type	.L.str.18,@object       // @.str.18
	.section	.rodata.str1.1,"aMS",@progbits,1
.L.str.18:
	.asciz	"\0014[BLK-IO]%s: Unknown OP!\n"
	.size	.L.str.18, 27

	.type	.L__func__.hisi_blk_io_type_op,@object // @__func__.hisi_blk_io_type_op
.L__func__.hisi_blk_io_type_op:
	.asciz	"hisi_blk_io_type_op"
	.size	.L__func__.hisi_blk_io_type_op, 20

	.type	.L.str.19,@object       // @.str.19
.L.str.19:
	.asciz	"dump"
	.size	.L.str.19, 5

	.type	.L.str.20,@object       // @.str.20
.L.str.20:
	.asciz	"io_latency"
	.size	.L.str.20, 11

	.type	.L.str.21,@object       // @.str.21
.L.str.21:
	.asciz	"Queue Status:\n"
	.size	.L.str.21, 15

	.type	.L.str.22,@object       // @.str.22
.L.str.22:
	.asciz	"%s"
	.size	.L.str.22, 3

	.type	.L.str.23,@object       // @.str.23
.L.str.23:
	.asciz	"\0013[BLK-IO]%s"
	.size	.L.str.23, 13

	.type	.L.str.24,@object       // @.str.24
.L.str.24:
	.asciz	"\tIO Latency Waring: enable\tThreshold(ms): %u\n"
	.size	.L.str.24, 46

	.type	.L.str.25,@object       // @.str.25
.L.str.25:
	.asciz	"\tIO Latency Waring: disable\n"
	.size	.L.str.25, 29

	.type	.L.str.26,@object       // @.str.26
.L.str.26:
	.asciz	"\tFlush Reduce: %s\n"
	.size	.L.str.26, 19

	.type	.L.str.27,@object       // @.str.27
.L.str.27:
	.asciz	"enable"
	.size	.L.str.27, 7

	.type	.L.str.28,@object       // @.str.28
.L.str.28:
	.asciz	"disable"
	.size	.L.str.28, 8

	.type	.L.str.29,@object       // @.str.29
.L.str.29:
	.asciz	"LLD Status:\n"
	.size	.L.str.29, 13

	.type	.L.str.30,@object       // @.str.30
.L.str.30:
	.asciz	"\tPanic Dump: %s\n"
	.size	.L.str.30, 17

	.type	.L.str.31,@object       // @.str.31
.L.str.31:
	.asciz	"\tLatency Warning:enable\tThreshold(ms):%u\n"
	.size	.L.str.31, 42

	.type	.L.str.32,@object       // @.str.32
.L.str.32:
	.asciz	"\tLatency Waring: disable\n"
	.size	.L.str.32, 26

	.type	.L.str.33,@object       // @.str.33
.L.str.33:
	.asciz	"\tBusy/Idle Notifier: %s\t"
	.size	.L.str.33, 25

	.type	.L.str.34,@object       // @.str.34
.L.str.34:
	.asciz	"\tState: BUSY\t"
	.size	.L.str.34, 14

	.type	.L.str.35,@object       // @.str.35
.L.str.35:
	.asciz	"\tState: IDLE\t"
	.size	.L.str.35, 14

	.type	.L.str.36,@object       // @.str.36
.L.str.36:
	.asciz	"\tIO Count: %d\n"
	.size	.L.str.36, 15

	.type	.L.str.37,@object       // @.str.37
.L.str.37:
	.asciz	"\tIO Scheduler: "
	.size	.L.str.37, 16

	.type	.L.str.38,@object       // @.str.38
.L.str.38:
	.asciz	"HISI MQ\n"
	.size	.L.str.38, 9

	.type	.L.str.39,@object       // @.str.39
.L.str.39:
	.asciz	"Default Scheduler\n"
	.size	.L.str.39, 19

	.type	.L.str.40,@object       // @.str.40
.L.str.40:
	.asciz	"\tInline Crypto: %s\n"
	.size	.L.str.40, 20

	.type	.L.str.41,@object       // @.str.41
.L.str.41:
	.asciz	"\tUFS command priority: %s\n"
	.size	.L.str.41, 27

	.type	.L.str.42,@object       // @.str.42
.L.str.42:
	.asciz	"\tUFS order preserving: %s\n"
	.size	.L.str.42, 27

	.type	.L.str.43,@object       // @.str.43
.L.str.43:
	.asciz	"\0013[BLK-IO]bio_count = %llu req_count = %llu\n"
	.size	.L.str.43, 45

	.type	.L.str.44,@object       // @.str.44
.L.str.44:
	.asciz	"\0013[BLK-IO]bio_list:\n"
	.size	.L.str.44, 21

	.type	.L.str.45,@object       // @.str.45
.L.str.45:
	.asciz	"\0013[BLK-IO]req_list:\n"
	.size	.L.str.45, 21
